
/home/xxa/Desktop/CECS-Lab/software/picotest/build/pico-riscv32.elf:     file format elf32-littleriscv


Disassembly of section .text:

80000000 <_start>:
80000000:	00000413          	li	s0,0
80000004:	00011117          	auipc	sp,0x11
80000008:	ffc10113          	add	sp,sp,-4 # 80011000 <_end>
8000000c:	790080ef          	jal	8000879c <call_main>

80000010 <srli>:
80000010:	ffff8fb7          	lui	t6,0xffff8
80000014:	000fd193          	srl	gp,t6,0x0
80000018:	ffff8eb7          	lui	t4,0xffff8
8000001c:	00200e13          	li	t3,2
80000020:	2bd19263          	bne	gp,t4,800002c4 <fail>

80000024 <test_3>:
80000024:	ffff8fb7          	lui	t6,0xffff8
80000028:	001fd193          	srl	gp,t6,0x1
8000002c:	7fffceb7          	lui	t4,0x7fffc
80000030:	00300e13          	li	t3,3
80000034:	29d19863          	bne	gp,t4,800002c4 <fail>

80000038 <test_4>:
80000038:	ffff8fb7          	lui	t6,0xffff8
8000003c:	007fd193          	srl	gp,t6,0x7
80000040:	02000eb7          	lui	t4,0x2000
80000044:	f00e8e93          	add	t4,t4,-256 # 1ffff00 <_entry_offset+0x1ffff00>
80000048:	00400e13          	li	t3,4
8000004c:	27d19c63          	bne	gp,t4,800002c4 <fail>

80000050 <test_5>:
80000050:	ffff8fb7          	lui	t6,0xffff8
80000054:	00efd193          	srl	gp,t6,0xe
80000058:	00040eb7          	lui	t4,0x40
8000005c:	ffee8e93          	add	t4,t4,-2 # 3fffe <_entry_offset+0x3fffe>
80000060:	00500e13          	li	t3,5
80000064:	27d19063          	bne	gp,t4,800002c4 <fail>

80000068 <test_6>:
80000068:	ffff8fb7          	lui	t6,0xffff8
8000006c:	001f8f93          	add	t6,t6,1 # ffff8001 <_end+0x7ffe7001>
80000070:	00ffd193          	srl	gp,t6,0xf
80000074:	00020eb7          	lui	t4,0x20
80000078:	fffe8e93          	add	t4,t4,-1 # 1ffff <_entry_offset+0x1ffff>
8000007c:	00600e13          	li	t3,6
80000080:	25d19263          	bne	gp,t4,800002c4 <fail>

80000084 <test_7>:
80000084:	fff00f93          	li	t6,-1
80000088:	000fd193          	srl	gp,t6,0x0
8000008c:	fff00e93          	li	t4,-1
80000090:	00700e13          	li	t3,7
80000094:	23d19863          	bne	gp,t4,800002c4 <fail>

80000098 <test_8>:
80000098:	fff00f93          	li	t6,-1
8000009c:	001fd193          	srl	gp,t6,0x1
800000a0:	80000eb7          	lui	t4,0x80000
800000a4:	fffe8e93          	add	t4,t4,-1 # 7fffffff <_entry_offset+0x7fffffff>
800000a8:	00800e13          	li	t3,8
800000ac:	21d19c63          	bne	gp,t4,800002c4 <fail>

800000b0 <test_9>:
800000b0:	fff00f93          	li	t6,-1
800000b4:	007fd193          	srl	gp,t6,0x7
800000b8:	02000eb7          	lui	t4,0x2000
800000bc:	fffe8e93          	add	t4,t4,-1 # 1ffffff <_entry_offset+0x1ffffff>
800000c0:	00900e13          	li	t3,9
800000c4:	21d19063          	bne	gp,t4,800002c4 <fail>

800000c8 <test_10>:
800000c8:	fff00f93          	li	t6,-1
800000cc:	00efd193          	srl	gp,t6,0xe
800000d0:	00040eb7          	lui	t4,0x40
800000d4:	fffe8e93          	add	t4,t4,-1 # 3ffff <_entry_offset+0x3ffff>
800000d8:	00a00e13          	li	t3,10
800000dc:	1fd19463          	bne	gp,t4,800002c4 <fail>

800000e0 <test_11>:
800000e0:	fff00f93          	li	t6,-1
800000e4:	01ffd193          	srl	gp,t6,0x1f
800000e8:	00100e93          	li	t4,1
800000ec:	00b00e13          	li	t3,11
800000f0:	1dd19a63          	bne	gp,t4,800002c4 <fail>

800000f4 <test_12>:
800000f4:	21212fb7          	lui	t6,0x21212
800000f8:	121f8f93          	add	t6,t6,289 # 21212121 <_entry_offset+0x21212121>
800000fc:	000fd193          	srl	gp,t6,0x0
80000100:	21212eb7          	lui	t4,0x21212
80000104:	121e8e93          	add	t4,t4,289 # 21212121 <_entry_offset+0x21212121>
80000108:	00c00e13          	li	t3,12
8000010c:	1bd19c63          	bne	gp,t4,800002c4 <fail>

80000110 <test_13>:
80000110:	21212fb7          	lui	t6,0x21212
80000114:	121f8f93          	add	t6,t6,289 # 21212121 <_entry_offset+0x21212121>
80000118:	001fd193          	srl	gp,t6,0x1
8000011c:	10909eb7          	lui	t4,0x10909
80000120:	090e8e93          	add	t4,t4,144 # 10909090 <_entry_offset+0x10909090>
80000124:	00d00e13          	li	t3,13
80000128:	19d19e63          	bne	gp,t4,800002c4 <fail>

8000012c <test_14>:
8000012c:	21212fb7          	lui	t6,0x21212
80000130:	121f8f93          	add	t6,t6,289 # 21212121 <_entry_offset+0x21212121>
80000134:	007fd193          	srl	gp,t6,0x7
80000138:	00424eb7          	lui	t4,0x424
8000013c:	242e8e93          	add	t4,t4,578 # 424242 <_entry_offset+0x424242>
80000140:	00e00e13          	li	t3,14
80000144:	19d19063          	bne	gp,t4,800002c4 <fail>

80000148 <test_15>:
80000148:	21212fb7          	lui	t6,0x21212
8000014c:	121f8f93          	add	t6,t6,289 # 21212121 <_entry_offset+0x21212121>
80000150:	00efd193          	srl	gp,t6,0xe
80000154:	00008eb7          	lui	t4,0x8
80000158:	484e8e93          	add	t4,t4,1156 # 8484 <_entry_offset+0x8484>
8000015c:	00f00e13          	li	t3,15
80000160:	17d19263          	bne	gp,t4,800002c4 <fail>

80000164 <test_16>:
80000164:	21212fb7          	lui	t6,0x21212
80000168:	121f8f93          	add	t6,t6,289 # 21212121 <_entry_offset+0x21212121>
8000016c:	01ffd193          	srl	gp,t6,0x1f
80000170:	00000e93          	li	t4,0
80000174:	01000e13          	li	t3,16
80000178:	15d19663          	bne	gp,t4,800002c4 <fail>

8000017c <test_21>:
8000017c:	ffff8fb7          	lui	t6,0xffff8
80000180:	001fdf93          	srl	t6,t6,0x1
80000184:	7fffceb7          	lui	t4,0x7fffc
80000188:	01500e13          	li	t3,21
8000018c:	13df9c63          	bne	t6,t4,800002c4 <fail>

80000190 <test_22>:
80000190:	00000213          	li	tp,0
80000194:	ffff8fb7          	lui	t6,0xffff8
80000198:	001fd193          	srl	gp,t6,0x1
8000019c:	00018313          	mv	t1,gp
800001a0:	00120213          	add	tp,tp,1 # 1 <_entry_offset+0x1>
800001a4:	00200293          	li	t0,2
800001a8:	fe5216e3          	bne	tp,t0,80000194 <test_22+0x4>
800001ac:	7fffceb7          	lui	t4,0x7fffc
800001b0:	01600e13          	li	t3,22
800001b4:	11d31863          	bne	t1,t4,800002c4 <fail>

800001b8 <test_23>:
800001b8:	00000213          	li	tp,0
800001bc:	ffff8fb7          	lui	t6,0xffff8
800001c0:	00efd193          	srl	gp,t6,0xe
800001c4:	00000013          	nop
800001c8:	00018313          	mv	t1,gp
800001cc:	00120213          	add	tp,tp,1 # 1 <_entry_offset+0x1>
800001d0:	00200293          	li	t0,2
800001d4:	fe5214e3          	bne	tp,t0,800001bc <test_23+0x4>
800001d8:	00040eb7          	lui	t4,0x40
800001dc:	ffee8e93          	add	t4,t4,-2 # 3fffe <_entry_offset+0x3fffe>
800001e0:	01700e13          	li	t3,23
800001e4:	0fd31063          	bne	t1,t4,800002c4 <fail>

800001e8 <test_24>:
800001e8:	00000213          	li	tp,0
800001ec:	ffff8fb7          	lui	t6,0xffff8
800001f0:	00ffd193          	srl	gp,t6,0xf
800001f4:	00000013          	nop
800001f8:	00000013          	nop
800001fc:	00018313          	mv	t1,gp
80000200:	00120213          	add	tp,tp,1 # 1 <_entry_offset+0x1>
80000204:	00200293          	li	t0,2
80000208:	fe5212e3          	bne	tp,t0,800001ec <test_24+0x4>
8000020c:	00020eb7          	lui	t4,0x20
80000210:	fffe8e93          	add	t4,t4,-1 # 1ffff <_entry_offset+0x1ffff>
80000214:	01800e13          	li	t3,24
80000218:	0bd31663          	bne	t1,t4,800002c4 <fail>

8000021c <test_25>:
8000021c:	00000213          	li	tp,0
80000220:	ffff8fb7          	lui	t6,0xffff8
80000224:	001fd193          	srl	gp,t6,0x1
80000228:	00120213          	add	tp,tp,1 # 1 <_entry_offset+0x1>
8000022c:	00200293          	li	t0,2
80000230:	fe5218e3          	bne	tp,t0,80000220 <test_25+0x4>
80000234:	7fffceb7          	lui	t4,0x7fffc
80000238:	01900e13          	li	t3,25
8000023c:	09d19463          	bne	gp,t4,800002c4 <fail>

80000240 <test_26>:
80000240:	00000213          	li	tp,0
80000244:	ffff8fb7          	lui	t6,0xffff8
80000248:	00000013          	nop
8000024c:	00efd193          	srl	gp,t6,0xe
80000250:	00120213          	add	tp,tp,1 # 1 <_entry_offset+0x1>
80000254:	00200293          	li	t0,2
80000258:	fe5216e3          	bne	tp,t0,80000244 <test_26+0x4>
8000025c:	00040eb7          	lui	t4,0x40
80000260:	ffee8e93          	add	t4,t4,-2 # 3fffe <_entry_offset+0x3fffe>
80000264:	01a00e13          	li	t3,26
80000268:	05d19e63          	bne	gp,t4,800002c4 <fail>

8000026c <test_27>:
8000026c:	00000213          	li	tp,0
80000270:	ffff8fb7          	lui	t6,0xffff8
80000274:	00000013          	nop
80000278:	00000013          	nop
8000027c:	00ffd193          	srl	gp,t6,0xf
80000280:	00120213          	add	tp,tp,1 # 1 <_entry_offset+0x1>
80000284:	00200293          	li	t0,2
80000288:	fe5214e3          	bne	tp,t0,80000270 <test_27+0x4>
8000028c:	00020eb7          	lui	t4,0x20
80000290:	fffe8e93          	add	t4,t4,-1 # 1ffff <_entry_offset+0x1ffff>
80000294:	01b00e13          	li	t3,27
80000298:	03d19663          	bne	gp,t4,800002c4 <fail>

8000029c <test_28>:
8000029c:	01f05f93          	srl	t6,zero,0x1f
800002a0:	00000e93          	li	t4,0
800002a4:	01c00e13          	li	t3,28
800002a8:	01df9e63          	bne	t6,t4,800002c4 <fail>

800002ac <test_29>:
800002ac:	02100f93          	li	t6,33
800002b0:	014fd013          	srl	zero,t6,0x14
800002b4:	00000e93          	li	t4,0
800002b8:	01d00e13          	li	t3,29
800002bc:	01d01463          	bne	zero,t4,800002c4 <fail>
800002c0:	0100006f          	j	800002d0 <pass>

800002c4 <fail>:
800002c4:	fff00513          	li	a0,-1
800002c8:	00100073          	ebreak
800002cc:	ff9ff06f          	j	800002c4 <fail>

800002d0 <pass>:
800002d0:	00000513          	li	a0,0
800002d4:	00008067          	ret

800002d8 <lui>:
800002d8:	00000fb7          	lui	t6,0x0
800002dc:	00000e93          	li	t4,0
800002e0:	00200e13          	li	t3,2
800002e4:	05df9a63          	bne	t6,t4,80000338 <fail>

800002e8 <test_3>:
800002e8:	ffffffb7          	lui	t6,0xfffff
800002ec:	401fdf93          	sra	t6,t6,0x1
800002f0:	80000e93          	li	t4,-2048
800002f4:	00300e13          	li	t3,3
800002f8:	05df9063          	bne	t6,t4,80000338 <fail>

800002fc <test_4>:
800002fc:	7fffffb7          	lui	t6,0x7ffff
80000300:	414fdf93          	sra	t6,t6,0x14
80000304:	7ff00e93          	li	t4,2047
80000308:	00400e13          	li	t3,4
8000030c:	03df9663          	bne	t6,t4,80000338 <fail>

80000310 <test_5>:
80000310:	80000fb7          	lui	t6,0x80000
80000314:	414fdf93          	sra	t6,t6,0x14
80000318:	80000e93          	li	t4,-2048
8000031c:	00500e13          	li	t3,5
80000320:	01df9c63          	bne	t6,t4,80000338 <fail>

80000324 <test_6>:
80000324:	80000037          	lui	zero,0x80000
80000328:	00000e93          	li	t4,0
8000032c:	00600e13          	li	t3,6
80000330:	01d01463          	bne	zero,t4,80000338 <fail>
80000334:	0100006f          	j	80000344 <pass>

80000338 <fail>:
80000338:	fff00513          	li	a0,-1
8000033c:	00100073          	ebreak
80000340:	ff9ff06f          	j	80000338 <fail>

80000344 <pass>:
80000344:	00000513          	li	a0,0
80000348:	00008067          	ret

8000034c <blt>:
8000034c:	00200e13          	li	t3,2
80000350:	00000f93          	li	t6,0
80000354:	00100113          	li	sp,1
80000358:	002fc663          	blt	t6,sp,80000364 <blt+0x18>
8000035c:	2bc01863          	bne	zero,t3,8000060c <fail>
80000360:	01c01663          	bne	zero,t3,8000036c <test_3>
80000364:	fe2fcee3          	blt	t6,sp,80000360 <blt+0x14>
80000368:	2bc01263          	bne	zero,t3,8000060c <fail>

8000036c <test_3>:
8000036c:	00300e13          	li	t3,3
80000370:	fff00f93          	li	t6,-1
80000374:	00100113          	li	sp,1
80000378:	002fc663          	blt	t6,sp,80000384 <test_3+0x18>
8000037c:	29c01863          	bne	zero,t3,8000060c <fail>
80000380:	01c01663          	bne	zero,t3,8000038c <test_4>
80000384:	fe2fcee3          	blt	t6,sp,80000380 <test_3+0x14>
80000388:	29c01263          	bne	zero,t3,8000060c <fail>

8000038c <test_4>:
8000038c:	00400e13          	li	t3,4
80000390:	ffe00f93          	li	t6,-2
80000394:	fff00113          	li	sp,-1
80000398:	002fc663          	blt	t6,sp,800003a4 <test_4+0x18>
8000039c:	27c01863          	bne	zero,t3,8000060c <fail>
800003a0:	01c01663          	bne	zero,t3,800003ac <test_5>
800003a4:	fe2fcee3          	blt	t6,sp,800003a0 <test_4+0x14>
800003a8:	27c01263          	bne	zero,t3,8000060c <fail>

800003ac <test_5>:
800003ac:	00500e13          	li	t3,5
800003b0:	00100f93          	li	t6,1
800003b4:	00000113          	li	sp,0
800003b8:	002fc463          	blt	t6,sp,800003c0 <test_5+0x14>
800003bc:	01c01463          	bne	zero,t3,800003c4 <test_5+0x18>
800003c0:	25c01663          	bne	zero,t3,8000060c <fail>
800003c4:	fe2fcee3          	blt	t6,sp,800003c0 <test_5+0x14>

800003c8 <test_6>:
800003c8:	00600e13          	li	t3,6
800003cc:	00100f93          	li	t6,1
800003d0:	fff00113          	li	sp,-1
800003d4:	002fc463          	blt	t6,sp,800003dc <test_6+0x14>
800003d8:	01c01463          	bne	zero,t3,800003e0 <test_6+0x18>
800003dc:	23c01863          	bne	zero,t3,8000060c <fail>
800003e0:	fe2fcee3          	blt	t6,sp,800003dc <test_6+0x14>

800003e4 <test_7>:
800003e4:	00700e13          	li	t3,7
800003e8:	fff00f93          	li	t6,-1
800003ec:	ffe00113          	li	sp,-2
800003f0:	002fc463          	blt	t6,sp,800003f8 <test_7+0x14>
800003f4:	01c01463          	bne	zero,t3,800003fc <test_7+0x18>
800003f8:	21c01a63          	bne	zero,t3,8000060c <fail>
800003fc:	fe2fcee3          	blt	t6,sp,800003f8 <test_7+0x14>

80000400 <test_8>:
80000400:	00800e13          	li	t3,8
80000404:	00100f93          	li	t6,1
80000408:	ffe00113          	li	sp,-2
8000040c:	002fc463          	blt	t6,sp,80000414 <test_8+0x14>
80000410:	01c01463          	bne	zero,t3,80000418 <test_8+0x18>
80000414:	1fc01c63          	bne	zero,t3,8000060c <fail>
80000418:	fe2fcee3          	blt	t6,sp,80000414 <test_8+0x14>

8000041c <test_9>:
8000041c:	00900e13          	li	t3,9
80000420:	00000213          	li	tp,0
80000424:	00000f93          	li	t6,0
80000428:	fff00113          	li	sp,-1
8000042c:	1e2fc063          	blt	t6,sp,8000060c <fail>
80000430:	00120213          	add	tp,tp,1 # 1 <_entry_offset+0x1>
80000434:	00200293          	li	t0,2
80000438:	fe5216e3          	bne	tp,t0,80000424 <test_9+0x8>

8000043c <test_10>:
8000043c:	00a00e13          	li	t3,10
80000440:	00000213          	li	tp,0
80000444:	00000f93          	li	t6,0
80000448:	fff00113          	li	sp,-1
8000044c:	00000013          	nop
80000450:	1a2fce63          	blt	t6,sp,8000060c <fail>
80000454:	00120213          	add	tp,tp,1 # 1 <_entry_offset+0x1>
80000458:	00200293          	li	t0,2
8000045c:	fe5214e3          	bne	tp,t0,80000444 <test_10+0x8>

80000460 <test_11>:
80000460:	00b00e13          	li	t3,11
80000464:	00000213          	li	tp,0
80000468:	00000f93          	li	t6,0
8000046c:	fff00113          	li	sp,-1
80000470:	00000013          	nop
80000474:	00000013          	nop
80000478:	182fca63          	blt	t6,sp,8000060c <fail>
8000047c:	00120213          	add	tp,tp,1 # 1 <_entry_offset+0x1>
80000480:	00200293          	li	t0,2
80000484:	fe5212e3          	bne	tp,t0,80000468 <test_11+0x8>

80000488 <test_12>:
80000488:	00c00e13          	li	t3,12
8000048c:	00000213          	li	tp,0
80000490:	00000f93          	li	t6,0
80000494:	00000013          	nop
80000498:	fff00113          	li	sp,-1
8000049c:	162fc863          	blt	t6,sp,8000060c <fail>
800004a0:	00120213          	add	tp,tp,1 # 1 <_entry_offset+0x1>
800004a4:	00200293          	li	t0,2
800004a8:	fe5214e3          	bne	tp,t0,80000490 <test_12+0x8>

800004ac <test_13>:
800004ac:	00d00e13          	li	t3,13
800004b0:	00000213          	li	tp,0
800004b4:	00000f93          	li	t6,0
800004b8:	00000013          	nop
800004bc:	fff00113          	li	sp,-1
800004c0:	00000013          	nop
800004c4:	142fc463          	blt	t6,sp,8000060c <fail>
800004c8:	00120213          	add	tp,tp,1 # 1 <_entry_offset+0x1>
800004cc:	00200293          	li	t0,2
800004d0:	fe5212e3          	bne	tp,t0,800004b4 <test_13+0x8>

800004d4 <test_14>:
800004d4:	00e00e13          	li	t3,14
800004d8:	00000213          	li	tp,0
800004dc:	00000f93          	li	t6,0
800004e0:	00000013          	nop
800004e4:	00000013          	nop
800004e8:	fff00113          	li	sp,-1
800004ec:	122fc063          	blt	t6,sp,8000060c <fail>
800004f0:	00120213          	add	tp,tp,1 # 1 <_entry_offset+0x1>
800004f4:	00200293          	li	t0,2
800004f8:	fe5212e3          	bne	tp,t0,800004dc <test_14+0x8>

800004fc <test_15>:
800004fc:	00f00e13          	li	t3,15
80000500:	00000213          	li	tp,0
80000504:	00000f93          	li	t6,0
80000508:	fff00113          	li	sp,-1
8000050c:	102fc063          	blt	t6,sp,8000060c <fail>
80000510:	00120213          	add	tp,tp,1 # 1 <_entry_offset+0x1>
80000514:	00200293          	li	t0,2
80000518:	fe5216e3          	bne	tp,t0,80000504 <test_15+0x8>

8000051c <test_16>:
8000051c:	01000e13          	li	t3,16
80000520:	00000213          	li	tp,0
80000524:	00000f93          	li	t6,0
80000528:	fff00113          	li	sp,-1
8000052c:	00000013          	nop
80000530:	0c2fce63          	blt	t6,sp,8000060c <fail>
80000534:	00120213          	add	tp,tp,1 # 1 <_entry_offset+0x1>
80000538:	00200293          	li	t0,2
8000053c:	fe5214e3          	bne	tp,t0,80000524 <test_16+0x8>

80000540 <test_17>:
80000540:	01100e13          	li	t3,17
80000544:	00000213          	li	tp,0
80000548:	00000f93          	li	t6,0
8000054c:	fff00113          	li	sp,-1
80000550:	00000013          	nop
80000554:	00000013          	nop
80000558:	0a2fca63          	blt	t6,sp,8000060c <fail>
8000055c:	00120213          	add	tp,tp,1 # 1 <_entry_offset+0x1>
80000560:	00200293          	li	t0,2
80000564:	fe5212e3          	bne	tp,t0,80000548 <test_17+0x8>

80000568 <test_18>:
80000568:	01200e13          	li	t3,18
8000056c:	00000213          	li	tp,0
80000570:	00000f93          	li	t6,0
80000574:	00000013          	nop
80000578:	fff00113          	li	sp,-1
8000057c:	082fc863          	blt	t6,sp,8000060c <fail>
80000580:	00120213          	add	tp,tp,1 # 1 <_entry_offset+0x1>
80000584:	00200293          	li	t0,2
80000588:	fe5214e3          	bne	tp,t0,80000570 <test_18+0x8>

8000058c <test_19>:
8000058c:	01300e13          	li	t3,19
80000590:	00000213          	li	tp,0
80000594:	00000f93          	li	t6,0
80000598:	00000013          	nop
8000059c:	fff00113          	li	sp,-1
800005a0:	00000013          	nop
800005a4:	062fc463          	blt	t6,sp,8000060c <fail>
800005a8:	00120213          	add	tp,tp,1 # 1 <_entry_offset+0x1>
800005ac:	00200293          	li	t0,2
800005b0:	fe5212e3          	bne	tp,t0,80000594 <test_19+0x8>

800005b4 <test_20>:
800005b4:	01400e13          	li	t3,20
800005b8:	00000213          	li	tp,0
800005bc:	00000f93          	li	t6,0
800005c0:	00000013          	nop
800005c4:	00000013          	nop
800005c8:	fff00113          	li	sp,-1
800005cc:	042fc063          	blt	t6,sp,8000060c <fail>
800005d0:	00120213          	add	tp,tp,1 # 1 <_entry_offset+0x1>
800005d4:	00200293          	li	t0,2
800005d8:	fe5212e3          	bne	tp,t0,800005bc <test_20+0x8>

800005dc <test_21>:
800005dc:	00100f93          	li	t6,1
800005e0:	01f04a63          	bgtz	t6,800005f4 <test_21+0x18>
800005e4:	001f8f93          	add	t6,t6,1 # 80000001 <_start+0x1>
800005e8:	001f8f93          	add	t6,t6,1
800005ec:	001f8f93          	add	t6,t6,1
800005f0:	001f8f93          	add	t6,t6,1
800005f4:	001f8f93          	add	t6,t6,1
800005f8:	001f8f93          	add	t6,t6,1
800005fc:	00300e93          	li	t4,3
80000600:	01500e13          	li	t3,21
80000604:	01df9463          	bne	t6,t4,8000060c <fail>
80000608:	0100006f          	j	80000618 <pass>

8000060c <fail>:
8000060c:	fff00513          	li	a0,-1
80000610:	00100073          	ebreak
80000614:	ff9ff06f          	j	8000060c <fail>

80000618 <pass>:
80000618:	00000513          	li	a0,0
8000061c:	00008067          	ret

80000620 <srai>:
80000620:	00000f93          	li	t6,0
80000624:	400fd193          	sra	gp,t6,0x0
80000628:	00000e93          	li	t4,0
8000062c:	00200e13          	li	t3,2
80000630:	2bd19463          	bne	gp,t4,800008d8 <fail>

80000634 <test_3>:
80000634:	80000fb7          	lui	t6,0x80000
80000638:	401fd193          	sra	gp,t6,0x1
8000063c:	c0000eb7          	lui	t4,0xc0000
80000640:	00300e13          	li	t3,3
80000644:	29d19a63          	bne	gp,t4,800008d8 <fail>

80000648 <test_4>:
80000648:	80000fb7          	lui	t6,0x80000
8000064c:	407fd193          	sra	gp,t6,0x7
80000650:	ff000eb7          	lui	t4,0xff000
80000654:	00400e13          	li	t3,4
80000658:	29d19063          	bne	gp,t4,800008d8 <fail>

8000065c <test_5>:
8000065c:	80000fb7          	lui	t6,0x80000
80000660:	40efd193          	sra	gp,t6,0xe
80000664:	fffe0eb7          	lui	t4,0xfffe0
80000668:	00500e13          	li	t3,5
8000066c:	27d19663          	bne	gp,t4,800008d8 <fail>

80000670 <test_6>:
80000670:	80000fb7          	lui	t6,0x80000
80000674:	001f8f93          	add	t6,t6,1 # 80000001 <_start+0x1>
80000678:	41ffd193          	sra	gp,t6,0x1f
8000067c:	fff00e93          	li	t4,-1
80000680:	00600e13          	li	t3,6
80000684:	25d19a63          	bne	gp,t4,800008d8 <fail>

80000688 <test_7>:
80000688:	80000fb7          	lui	t6,0x80000
8000068c:	ffff8f93          	add	t6,t6,-1 # 7fffffff <_entry_offset+0x7fffffff>
80000690:	400fd193          	sra	gp,t6,0x0
80000694:	80000eb7          	lui	t4,0x80000
80000698:	fffe8e93          	add	t4,t4,-1 # 7fffffff <_entry_offset+0x7fffffff>
8000069c:	00700e13          	li	t3,7
800006a0:	23d19c63          	bne	gp,t4,800008d8 <fail>

800006a4 <test_8>:
800006a4:	80000fb7          	lui	t6,0x80000
800006a8:	ffff8f93          	add	t6,t6,-1 # 7fffffff <_entry_offset+0x7fffffff>
800006ac:	401fd193          	sra	gp,t6,0x1
800006b0:	40000eb7          	lui	t4,0x40000
800006b4:	fffe8e93          	add	t4,t4,-1 # 3fffffff <_entry_offset+0x3fffffff>
800006b8:	00800e13          	li	t3,8
800006bc:	21d19e63          	bne	gp,t4,800008d8 <fail>

800006c0 <test_9>:
800006c0:	80000fb7          	lui	t6,0x80000
800006c4:	ffff8f93          	add	t6,t6,-1 # 7fffffff <_entry_offset+0x7fffffff>
800006c8:	407fd193          	sra	gp,t6,0x7
800006cc:	01000eb7          	lui	t4,0x1000
800006d0:	fffe8e93          	add	t4,t4,-1 # ffffff <_entry_offset+0xffffff>
800006d4:	00900e13          	li	t3,9
800006d8:	21d19063          	bne	gp,t4,800008d8 <fail>

800006dc <test_10>:
800006dc:	80000fb7          	lui	t6,0x80000
800006e0:	ffff8f93          	add	t6,t6,-1 # 7fffffff <_entry_offset+0x7fffffff>
800006e4:	40efd193          	sra	gp,t6,0xe
800006e8:	00020eb7          	lui	t4,0x20
800006ec:	fffe8e93          	add	t4,t4,-1 # 1ffff <_entry_offset+0x1ffff>
800006f0:	00a00e13          	li	t3,10
800006f4:	1fd19263          	bne	gp,t4,800008d8 <fail>

800006f8 <test_11>:
800006f8:	80000fb7          	lui	t6,0x80000
800006fc:	ffff8f93          	add	t6,t6,-1 # 7fffffff <_entry_offset+0x7fffffff>
80000700:	41ffd193          	sra	gp,t6,0x1f
80000704:	00000e93          	li	t4,0
80000708:	00b00e13          	li	t3,11
8000070c:	1dd19663          	bne	gp,t4,800008d8 <fail>

80000710 <test_12>:
80000710:	81818fb7          	lui	t6,0x81818
80000714:	181f8f93          	add	t6,t6,385 # 81818181 <_end+0x1807181>
80000718:	400fd193          	sra	gp,t6,0x0
8000071c:	81818eb7          	lui	t4,0x81818
80000720:	181e8e93          	add	t4,t4,385 # 81818181 <_end+0x1807181>
80000724:	00c00e13          	li	t3,12
80000728:	1bd19863          	bne	gp,t4,800008d8 <fail>

8000072c <test_13>:
8000072c:	81818fb7          	lui	t6,0x81818
80000730:	181f8f93          	add	t6,t6,385 # 81818181 <_end+0x1807181>
80000734:	401fd193          	sra	gp,t6,0x1
80000738:	c0c0ceb7          	lui	t4,0xc0c0c
8000073c:	0c0e8e93          	add	t4,t4,192 # c0c0c0c0 <_end+0x40bfb0c0>
80000740:	00d00e13          	li	t3,13
80000744:	19d19a63          	bne	gp,t4,800008d8 <fail>

80000748 <test_14>:
80000748:	81818fb7          	lui	t6,0x81818
8000074c:	181f8f93          	add	t6,t6,385 # 81818181 <_end+0x1807181>
80000750:	407fd193          	sra	gp,t6,0x7
80000754:	ff030eb7          	lui	t4,0xff030
80000758:	303e8e93          	add	t4,t4,771 # ff030303 <_end+0x7f01f303>
8000075c:	00e00e13          	li	t3,14
80000760:	17d19c63          	bne	gp,t4,800008d8 <fail>

80000764 <test_15>:
80000764:	81818fb7          	lui	t6,0x81818
80000768:	181f8f93          	add	t6,t6,385 # 81818181 <_end+0x1807181>
8000076c:	40efd193          	sra	gp,t6,0xe
80000770:	fffe0eb7          	lui	t4,0xfffe0
80000774:	606e8e93          	add	t4,t4,1542 # fffe0606 <_end+0x7ffcf606>
80000778:	00f00e13          	li	t3,15
8000077c:	15d19e63          	bne	gp,t4,800008d8 <fail>

80000780 <test_16>:
80000780:	81818fb7          	lui	t6,0x81818
80000784:	181f8f93          	add	t6,t6,385 # 81818181 <_end+0x1807181>
80000788:	41ffd193          	sra	gp,t6,0x1f
8000078c:	fff00e93          	li	t4,-1
80000790:	01000e13          	li	t3,16
80000794:	15d19263          	bne	gp,t4,800008d8 <fail>

80000798 <test_17>:
80000798:	80000fb7          	lui	t6,0x80000
8000079c:	407fdf93          	sra	t6,t6,0x7
800007a0:	ff000eb7          	lui	t4,0xff000
800007a4:	01100e13          	li	t3,17
800007a8:	13df9863          	bne	t6,t4,800008d8 <fail>

800007ac <test_18>:
800007ac:	00000213          	li	tp,0
800007b0:	80000fb7          	lui	t6,0x80000
800007b4:	407fd193          	sra	gp,t6,0x7
800007b8:	00018313          	mv	t1,gp
800007bc:	00120213          	add	tp,tp,1 # 1 <_entry_offset+0x1>
800007c0:	00200293          	li	t0,2
800007c4:	fe5216e3          	bne	tp,t0,800007b0 <test_18+0x4>
800007c8:	ff000eb7          	lui	t4,0xff000
800007cc:	01200e13          	li	t3,18
800007d0:	11d31463          	bne	t1,t4,800008d8 <fail>

800007d4 <test_19>:
800007d4:	00000213          	li	tp,0
800007d8:	80000fb7          	lui	t6,0x80000
800007dc:	40efd193          	sra	gp,t6,0xe
800007e0:	00000013          	nop
800007e4:	00018313          	mv	t1,gp
800007e8:	00120213          	add	tp,tp,1 # 1 <_entry_offset+0x1>
800007ec:	00200293          	li	t0,2
800007f0:	fe5214e3          	bne	tp,t0,800007d8 <test_19+0x4>
800007f4:	fffe0eb7          	lui	t4,0xfffe0
800007f8:	01300e13          	li	t3,19
800007fc:	0dd31e63          	bne	t1,t4,800008d8 <fail>

80000800 <test_20>:
80000800:	00000213          	li	tp,0
80000804:	80000fb7          	lui	t6,0x80000
80000808:	001f8f93          	add	t6,t6,1 # 80000001 <_start+0x1>
8000080c:	41ffd193          	sra	gp,t6,0x1f
80000810:	00000013          	nop
80000814:	00000013          	nop
80000818:	00018313          	mv	t1,gp
8000081c:	00120213          	add	tp,tp,1 # 1 <_entry_offset+0x1>
80000820:	00200293          	li	t0,2
80000824:	fe5210e3          	bne	tp,t0,80000804 <test_20+0x4>
80000828:	fff00e93          	li	t4,-1
8000082c:	01400e13          	li	t3,20
80000830:	0bd31463          	bne	t1,t4,800008d8 <fail>

80000834 <test_21>:
80000834:	00000213          	li	tp,0
80000838:	80000fb7          	lui	t6,0x80000
8000083c:	407fd193          	sra	gp,t6,0x7
80000840:	00120213          	add	tp,tp,1 # 1 <_entry_offset+0x1>
80000844:	00200293          	li	t0,2
80000848:	fe5218e3          	bne	tp,t0,80000838 <test_21+0x4>
8000084c:	ff000eb7          	lui	t4,0xff000
80000850:	01500e13          	li	t3,21
80000854:	09d19263          	bne	gp,t4,800008d8 <fail>

80000858 <test_22>:
80000858:	00000213          	li	tp,0
8000085c:	80000fb7          	lui	t6,0x80000
80000860:	00000013          	nop
80000864:	40efd193          	sra	gp,t6,0xe
80000868:	00120213          	add	tp,tp,1 # 1 <_entry_offset+0x1>
8000086c:	00200293          	li	t0,2
80000870:	fe5216e3          	bne	tp,t0,8000085c <test_22+0x4>
80000874:	fffe0eb7          	lui	t4,0xfffe0
80000878:	01600e13          	li	t3,22
8000087c:	05d19e63          	bne	gp,t4,800008d8 <fail>

80000880 <test_23>:
80000880:	00000213          	li	tp,0
80000884:	80000fb7          	lui	t6,0x80000
80000888:	001f8f93          	add	t6,t6,1 # 80000001 <_start+0x1>
8000088c:	00000013          	nop
80000890:	00000013          	nop
80000894:	41ffd193          	sra	gp,t6,0x1f
80000898:	00120213          	add	tp,tp,1 # 1 <_entry_offset+0x1>
8000089c:	00200293          	li	t0,2
800008a0:	fe5212e3          	bne	tp,t0,80000884 <test_23+0x4>
800008a4:	fff00e93          	li	t4,-1
800008a8:	01700e13          	li	t3,23
800008ac:	03d19663          	bne	gp,t4,800008d8 <fail>

800008b0 <test_24>:
800008b0:	41f05f93          	sra	t6,zero,0x1f
800008b4:	00000e93          	li	t4,0
800008b8:	01800e13          	li	t3,24
800008bc:	01df9e63          	bne	t6,t4,800008d8 <fail>

800008c0 <test_25>:
800008c0:	02100f93          	li	t6,33
800008c4:	414fd013          	sra	zero,t6,0x14
800008c8:	00000e93          	li	t4,0
800008cc:	01900e13          	li	t3,25
800008d0:	01d01463          	bne	zero,t4,800008d8 <fail>
800008d4:	0100006f          	j	800008e4 <pass>

800008d8 <fail>:
800008d8:	fff00513          	li	a0,-1
800008dc:	00100073          	ebreak
800008e0:	ff9ff06f          	j	800008d8 <fail>

800008e4 <pass>:
800008e4:	00000513          	li	a0,0
800008e8:	00008067          	ret

800008ec <slti>:
800008ec:	00000f93          	li	t6,0
800008f0:	000fa193          	slti	gp,t6,0
800008f4:	00000e93          	li	t4,0
800008f8:	00200e13          	li	t3,2
800008fc:	27d19263          	bne	gp,t4,80000b60 <fail>

80000900 <test_3>:
80000900:	00100f93          	li	t6,1
80000904:	001fa193          	slti	gp,t6,1
80000908:	00000e93          	li	t4,0
8000090c:	00300e13          	li	t3,3
80000910:	25d19863          	bne	gp,t4,80000b60 <fail>

80000914 <test_4>:
80000914:	00300f93          	li	t6,3
80000918:	007fa193          	slti	gp,t6,7
8000091c:	00100e93          	li	t4,1
80000920:	00400e13          	li	t3,4
80000924:	23d19e63          	bne	gp,t4,80000b60 <fail>

80000928 <test_5>:
80000928:	00700f93          	li	t6,7
8000092c:	003fa193          	slti	gp,t6,3
80000930:	00000e93          	li	t4,0
80000934:	00500e13          	li	t3,5
80000938:	23d19463          	bne	gp,t4,80000b60 <fail>

8000093c <test_6>:
8000093c:	00000f93          	li	t6,0
80000940:	800fa193          	slti	gp,t6,-2048
80000944:	00000e93          	li	t4,0
80000948:	00600e13          	li	t3,6
8000094c:	21d19a63          	bne	gp,t4,80000b60 <fail>

80000950 <test_7>:
80000950:	80000fb7          	lui	t6,0x80000
80000954:	000fa193          	slti	gp,t6,0
80000958:	00100e93          	li	t4,1
8000095c:	00700e13          	li	t3,7
80000960:	21d19063          	bne	gp,t4,80000b60 <fail>

80000964 <test_8>:
80000964:	80000fb7          	lui	t6,0x80000
80000968:	800fa193          	slti	gp,t6,-2048
8000096c:	00100e93          	li	t4,1
80000970:	00800e13          	li	t3,8
80000974:	1fd19663          	bne	gp,t4,80000b60 <fail>

80000978 <test_9>:
80000978:	00000f93          	li	t6,0
8000097c:	7fffa193          	slti	gp,t6,2047
80000980:	00100e93          	li	t4,1
80000984:	00900e13          	li	t3,9
80000988:	1dd19c63          	bne	gp,t4,80000b60 <fail>

8000098c <test_10>:
8000098c:	80000fb7          	lui	t6,0x80000
80000990:	ffff8f93          	add	t6,t6,-1 # 7fffffff <_entry_offset+0x7fffffff>
80000994:	000fa193          	slti	gp,t6,0
80000998:	00000e93          	li	t4,0
8000099c:	00a00e13          	li	t3,10
800009a0:	1dd19063          	bne	gp,t4,80000b60 <fail>

800009a4 <test_11>:
800009a4:	80000fb7          	lui	t6,0x80000
800009a8:	ffff8f93          	add	t6,t6,-1 # 7fffffff <_entry_offset+0x7fffffff>
800009ac:	7fffa193          	slti	gp,t6,2047
800009b0:	00000e93          	li	t4,0
800009b4:	00b00e13          	li	t3,11
800009b8:	1bd19463          	bne	gp,t4,80000b60 <fail>

800009bc <test_12>:
800009bc:	80000fb7          	lui	t6,0x80000
800009c0:	7fffa193          	slti	gp,t6,2047
800009c4:	00100e93          	li	t4,1
800009c8:	00c00e13          	li	t3,12
800009cc:	19d19a63          	bne	gp,t4,80000b60 <fail>

800009d0 <test_13>:
800009d0:	80000fb7          	lui	t6,0x80000
800009d4:	ffff8f93          	add	t6,t6,-1 # 7fffffff <_entry_offset+0x7fffffff>
800009d8:	800fa193          	slti	gp,t6,-2048
800009dc:	00000e93          	li	t4,0
800009e0:	00d00e13          	li	t3,13
800009e4:	17d19e63          	bne	gp,t4,80000b60 <fail>

800009e8 <test_14>:
800009e8:	00000f93          	li	t6,0
800009ec:	ffffa193          	slti	gp,t6,-1
800009f0:	00000e93          	li	t4,0
800009f4:	00e00e13          	li	t3,14
800009f8:	17d19463          	bne	gp,t4,80000b60 <fail>

800009fc <test_15>:
800009fc:	fff00f93          	li	t6,-1
80000a00:	001fa193          	slti	gp,t6,1
80000a04:	00100e93          	li	t4,1
80000a08:	00f00e13          	li	t3,15
80000a0c:	15d19a63          	bne	gp,t4,80000b60 <fail>

80000a10 <test_16>:
80000a10:	fff00f93          	li	t6,-1
80000a14:	ffffa193          	slti	gp,t6,-1
80000a18:	00000e93          	li	t4,0
80000a1c:	01000e13          	li	t3,16
80000a20:	15d19063          	bne	gp,t4,80000b60 <fail>

80000a24 <test_17>:
80000a24:	00b00f93          	li	t6,11
80000a28:	00dfbf93          	sltiu	t6,t6,13
80000a2c:	00100e93          	li	t4,1
80000a30:	01100e13          	li	t3,17
80000a34:	13df9663          	bne	t6,t4,80000b60 <fail>

80000a38 <test_18>:
80000a38:	00000213          	li	tp,0
80000a3c:	00f00f93          	li	t6,15
80000a40:	00afa193          	slti	gp,t6,10
80000a44:	00018313          	mv	t1,gp
80000a48:	00120213          	add	tp,tp,1 # 1 <_entry_offset+0x1>
80000a4c:	00200293          	li	t0,2
80000a50:	fe5216e3          	bne	tp,t0,80000a3c <test_18+0x4>
80000a54:	00000e93          	li	t4,0
80000a58:	01200e13          	li	t3,18
80000a5c:	11d31263          	bne	t1,t4,80000b60 <fail>

80000a60 <test_19>:
80000a60:	00000213          	li	tp,0
80000a64:	00a00f93          	li	t6,10
80000a68:	010fa193          	slti	gp,t6,16
80000a6c:	00000013          	nop
80000a70:	00018313          	mv	t1,gp
80000a74:	00120213          	add	tp,tp,1 # 1 <_entry_offset+0x1>
80000a78:	00200293          	li	t0,2
80000a7c:	fe5214e3          	bne	tp,t0,80000a64 <test_19+0x4>
80000a80:	00100e93          	li	t4,1
80000a84:	01300e13          	li	t3,19
80000a88:	0dd31c63          	bne	t1,t4,80000b60 <fail>

80000a8c <test_20>:
80000a8c:	00000213          	li	tp,0
80000a90:	01000f93          	li	t6,16
80000a94:	009fa193          	slti	gp,t6,9
80000a98:	00000013          	nop
80000a9c:	00000013          	nop
80000aa0:	00018313          	mv	t1,gp
80000aa4:	00120213          	add	tp,tp,1 # 1 <_entry_offset+0x1>
80000aa8:	00200293          	li	t0,2
80000aac:	fe5212e3          	bne	tp,t0,80000a90 <test_20+0x4>
80000ab0:	00000e93          	li	t4,0
80000ab4:	01400e13          	li	t3,20
80000ab8:	0bd31463          	bne	t1,t4,80000b60 <fail>

80000abc <test_21>:
80000abc:	00000213          	li	tp,0
80000ac0:	00b00f93          	li	t6,11
80000ac4:	00ffa193          	slti	gp,t6,15
80000ac8:	00120213          	add	tp,tp,1 # 1 <_entry_offset+0x1>
80000acc:	00200293          	li	t0,2
80000ad0:	fe5218e3          	bne	tp,t0,80000ac0 <test_21+0x4>
80000ad4:	00100e93          	li	t4,1
80000ad8:	01500e13          	li	t3,21
80000adc:	09d19263          	bne	gp,t4,80000b60 <fail>

80000ae0 <test_22>:
80000ae0:	00000213          	li	tp,0
80000ae4:	01100f93          	li	t6,17
80000ae8:	00000013          	nop
80000aec:	008fa193          	slti	gp,t6,8
80000af0:	00120213          	add	tp,tp,1 # 1 <_entry_offset+0x1>
80000af4:	00200293          	li	t0,2
80000af8:	fe5216e3          	bne	tp,t0,80000ae4 <test_22+0x4>
80000afc:	00000e93          	li	t4,0
80000b00:	01600e13          	li	t3,22
80000b04:	05d19e63          	bne	gp,t4,80000b60 <fail>

80000b08 <test_23>:
80000b08:	00000213          	li	tp,0
80000b0c:	00c00f93          	li	t6,12
80000b10:	00000013          	nop
80000b14:	00000013          	nop
80000b18:	00efa193          	slti	gp,t6,14
80000b1c:	00120213          	add	tp,tp,1 # 1 <_entry_offset+0x1>
80000b20:	00200293          	li	t0,2
80000b24:	fe5214e3          	bne	tp,t0,80000b0c <test_23+0x4>
80000b28:	00100e93          	li	t4,1
80000b2c:	01700e13          	li	t3,23
80000b30:	03d19863          	bne	gp,t4,80000b60 <fail>

80000b34 <test_24>:
80000b34:	fff02f93          	slti	t6,zero,-1
80000b38:	00000e93          	li	t4,0
80000b3c:	01800e13          	li	t3,24
80000b40:	03df9063          	bne	t6,t4,80000b60 <fail>

80000b44 <test_25>:
80000b44:	00ff0fb7          	lui	t6,0xff0
80000b48:	0fff8f93          	add	t6,t6,255 # ff00ff <_entry_offset+0xff00ff>
80000b4c:	ffffa013          	slti	zero,t6,-1
80000b50:	00000e93          	li	t4,0
80000b54:	01900e13          	li	t3,25
80000b58:	01d01463          	bne	zero,t4,80000b60 <fail>
80000b5c:	0100006f          	j	80000b6c <pass>

80000b60 <fail>:
80000b60:	fff00513          	li	a0,-1
80000b64:	00100073          	ebreak
80000b68:	ff9ff06f          	j	80000b60 <fail>

80000b6c <pass>:
80000b6c:	00000513          	li	a0,0
80000b70:	00008067          	ret

80000b74 <sra>:
80000b74:	80000fb7          	lui	t6,0x80000
80000b78:	00000113          	li	sp,0
80000b7c:	402fd1b3          	sra	gp,t6,sp
80000b80:	80000eb7          	lui	t4,0x80000
80000b84:	00200e13          	li	t3,2
80000b88:	59d19463          	bne	gp,t4,80001110 <fail>

80000b8c <test_3>:
80000b8c:	80000fb7          	lui	t6,0x80000
80000b90:	00100113          	li	sp,1
80000b94:	402fd1b3          	sra	gp,t6,sp
80000b98:	c0000eb7          	lui	t4,0xc0000
80000b9c:	00300e13          	li	t3,3
80000ba0:	57d19863          	bne	gp,t4,80001110 <fail>

80000ba4 <test_4>:
80000ba4:	80000fb7          	lui	t6,0x80000
80000ba8:	00700113          	li	sp,7
80000bac:	402fd1b3          	sra	gp,t6,sp
80000bb0:	ff000eb7          	lui	t4,0xff000
80000bb4:	00400e13          	li	t3,4
80000bb8:	55d19c63          	bne	gp,t4,80001110 <fail>

80000bbc <test_5>:
80000bbc:	80000fb7          	lui	t6,0x80000
80000bc0:	00e00113          	li	sp,14
80000bc4:	402fd1b3          	sra	gp,t6,sp
80000bc8:	fffe0eb7          	lui	t4,0xfffe0
80000bcc:	00500e13          	li	t3,5
80000bd0:	55d19063          	bne	gp,t4,80001110 <fail>

80000bd4 <test_6>:
80000bd4:	80000fb7          	lui	t6,0x80000
80000bd8:	001f8f93          	add	t6,t6,1 # 80000001 <_start+0x1>
80000bdc:	01f00113          	li	sp,31
80000be0:	402fd1b3          	sra	gp,t6,sp
80000be4:	fff00e93          	li	t4,-1
80000be8:	00600e13          	li	t3,6
80000bec:	53d19263          	bne	gp,t4,80001110 <fail>

80000bf0 <test_7>:
80000bf0:	80000fb7          	lui	t6,0x80000
80000bf4:	ffff8f93          	add	t6,t6,-1 # 7fffffff <_entry_offset+0x7fffffff>
80000bf8:	00000113          	li	sp,0
80000bfc:	402fd1b3          	sra	gp,t6,sp
80000c00:	80000eb7          	lui	t4,0x80000
80000c04:	fffe8e93          	add	t4,t4,-1 # 7fffffff <_entry_offset+0x7fffffff>
80000c08:	00700e13          	li	t3,7
80000c0c:	51d19263          	bne	gp,t4,80001110 <fail>

80000c10 <test_8>:
80000c10:	80000fb7          	lui	t6,0x80000
80000c14:	ffff8f93          	add	t6,t6,-1 # 7fffffff <_entry_offset+0x7fffffff>
80000c18:	00100113          	li	sp,1
80000c1c:	402fd1b3          	sra	gp,t6,sp
80000c20:	40000eb7          	lui	t4,0x40000
80000c24:	fffe8e93          	add	t4,t4,-1 # 3fffffff <_entry_offset+0x3fffffff>
80000c28:	00800e13          	li	t3,8
80000c2c:	4fd19263          	bne	gp,t4,80001110 <fail>

80000c30 <test_9>:
80000c30:	80000fb7          	lui	t6,0x80000
80000c34:	ffff8f93          	add	t6,t6,-1 # 7fffffff <_entry_offset+0x7fffffff>
80000c38:	00700113          	li	sp,7
80000c3c:	402fd1b3          	sra	gp,t6,sp
80000c40:	01000eb7          	lui	t4,0x1000
80000c44:	fffe8e93          	add	t4,t4,-1 # ffffff <_entry_offset+0xffffff>
80000c48:	00900e13          	li	t3,9
80000c4c:	4dd19263          	bne	gp,t4,80001110 <fail>

80000c50 <test_10>:
80000c50:	80000fb7          	lui	t6,0x80000
80000c54:	ffff8f93          	add	t6,t6,-1 # 7fffffff <_entry_offset+0x7fffffff>
80000c58:	00e00113          	li	sp,14
80000c5c:	402fd1b3          	sra	gp,t6,sp
80000c60:	00020eb7          	lui	t4,0x20
80000c64:	fffe8e93          	add	t4,t4,-1 # 1ffff <_entry_offset+0x1ffff>
80000c68:	00a00e13          	li	t3,10
80000c6c:	4bd19263          	bne	gp,t4,80001110 <fail>

80000c70 <test_11>:
80000c70:	80000fb7          	lui	t6,0x80000
80000c74:	ffff8f93          	add	t6,t6,-1 # 7fffffff <_entry_offset+0x7fffffff>
80000c78:	01f00113          	li	sp,31
80000c7c:	402fd1b3          	sra	gp,t6,sp
80000c80:	00000e93          	li	t4,0
80000c84:	00b00e13          	li	t3,11
80000c88:	49d19463          	bne	gp,t4,80001110 <fail>

80000c8c <test_12>:
80000c8c:	81818fb7          	lui	t6,0x81818
80000c90:	181f8f93          	add	t6,t6,385 # 81818181 <_end+0x1807181>
80000c94:	00000113          	li	sp,0
80000c98:	402fd1b3          	sra	gp,t6,sp
80000c9c:	81818eb7          	lui	t4,0x81818
80000ca0:	181e8e93          	add	t4,t4,385 # 81818181 <_end+0x1807181>
80000ca4:	00c00e13          	li	t3,12
80000ca8:	47d19463          	bne	gp,t4,80001110 <fail>

80000cac <test_13>:
80000cac:	81818fb7          	lui	t6,0x81818
80000cb0:	181f8f93          	add	t6,t6,385 # 81818181 <_end+0x1807181>
80000cb4:	00100113          	li	sp,1
80000cb8:	402fd1b3          	sra	gp,t6,sp
80000cbc:	c0c0ceb7          	lui	t4,0xc0c0c
80000cc0:	0c0e8e93          	add	t4,t4,192 # c0c0c0c0 <_end+0x40bfb0c0>
80000cc4:	00d00e13          	li	t3,13
80000cc8:	45d19463          	bne	gp,t4,80001110 <fail>

80000ccc <test_14>:
80000ccc:	81818fb7          	lui	t6,0x81818
80000cd0:	181f8f93          	add	t6,t6,385 # 81818181 <_end+0x1807181>
80000cd4:	00700113          	li	sp,7
80000cd8:	402fd1b3          	sra	gp,t6,sp
80000cdc:	ff030eb7          	lui	t4,0xff030
80000ce0:	303e8e93          	add	t4,t4,771 # ff030303 <_end+0x7f01f303>
80000ce4:	00e00e13          	li	t3,14
80000ce8:	43d19463          	bne	gp,t4,80001110 <fail>

80000cec <test_15>:
80000cec:	81818fb7          	lui	t6,0x81818
80000cf0:	181f8f93          	add	t6,t6,385 # 81818181 <_end+0x1807181>
80000cf4:	00e00113          	li	sp,14
80000cf8:	402fd1b3          	sra	gp,t6,sp
80000cfc:	fffe0eb7          	lui	t4,0xfffe0
80000d00:	606e8e93          	add	t4,t4,1542 # fffe0606 <_end+0x7ffcf606>
80000d04:	00f00e13          	li	t3,15
80000d08:	41d19463          	bne	gp,t4,80001110 <fail>

80000d0c <test_16>:
80000d0c:	81818fb7          	lui	t6,0x81818
80000d10:	181f8f93          	add	t6,t6,385 # 81818181 <_end+0x1807181>
80000d14:	01f00113          	li	sp,31
80000d18:	402fd1b3          	sra	gp,t6,sp
80000d1c:	fff00e93          	li	t4,-1
80000d20:	01000e13          	li	t3,16
80000d24:	3fd19663          	bne	gp,t4,80001110 <fail>

80000d28 <test_17>:
80000d28:	81818fb7          	lui	t6,0x81818
80000d2c:	181f8f93          	add	t6,t6,385 # 81818181 <_end+0x1807181>
80000d30:	fc000113          	li	sp,-64
80000d34:	402fd1b3          	sra	gp,t6,sp
80000d38:	81818eb7          	lui	t4,0x81818
80000d3c:	181e8e93          	add	t4,t4,385 # 81818181 <_end+0x1807181>
80000d40:	01100e13          	li	t3,17
80000d44:	3dd19663          	bne	gp,t4,80001110 <fail>

80000d48 <test_18>:
80000d48:	81818fb7          	lui	t6,0x81818
80000d4c:	181f8f93          	add	t6,t6,385 # 81818181 <_end+0x1807181>
80000d50:	fc100113          	li	sp,-63
80000d54:	402fd1b3          	sra	gp,t6,sp
80000d58:	c0c0ceb7          	lui	t4,0xc0c0c
80000d5c:	0c0e8e93          	add	t4,t4,192 # c0c0c0c0 <_end+0x40bfb0c0>
80000d60:	01200e13          	li	t3,18
80000d64:	3bd19663          	bne	gp,t4,80001110 <fail>

80000d68 <test_19>:
80000d68:	81818fb7          	lui	t6,0x81818
80000d6c:	181f8f93          	add	t6,t6,385 # 81818181 <_end+0x1807181>
80000d70:	fc700113          	li	sp,-57
80000d74:	402fd1b3          	sra	gp,t6,sp
80000d78:	ff030eb7          	lui	t4,0xff030
80000d7c:	303e8e93          	add	t4,t4,771 # ff030303 <_end+0x7f01f303>
80000d80:	01300e13          	li	t3,19
80000d84:	39d19663          	bne	gp,t4,80001110 <fail>

80000d88 <test_20>:
80000d88:	81818fb7          	lui	t6,0x81818
80000d8c:	181f8f93          	add	t6,t6,385 # 81818181 <_end+0x1807181>
80000d90:	fce00113          	li	sp,-50
80000d94:	402fd1b3          	sra	gp,t6,sp
80000d98:	fffe0eb7          	lui	t4,0xfffe0
80000d9c:	606e8e93          	add	t4,t4,1542 # fffe0606 <_end+0x7ffcf606>
80000da0:	01400e13          	li	t3,20
80000da4:	37d19663          	bne	gp,t4,80001110 <fail>

80000da8 <test_21>:
80000da8:	81818fb7          	lui	t6,0x81818
80000dac:	181f8f93          	add	t6,t6,385 # 81818181 <_end+0x1807181>
80000db0:	fff00113          	li	sp,-1
80000db4:	402fd1b3          	sra	gp,t6,sp
80000db8:	fff00e93          	li	t4,-1
80000dbc:	01500e13          	li	t3,21
80000dc0:	35d19863          	bne	gp,t4,80001110 <fail>

80000dc4 <test_22>:
80000dc4:	80000fb7          	lui	t6,0x80000
80000dc8:	00700113          	li	sp,7
80000dcc:	402fdfb3          	sra	t6,t6,sp
80000dd0:	ff000eb7          	lui	t4,0xff000
80000dd4:	01600e13          	li	t3,22
80000dd8:	33df9c63          	bne	t6,t4,80001110 <fail>

80000ddc <test_23>:
80000ddc:	80000fb7          	lui	t6,0x80000
80000de0:	00e00113          	li	sp,14
80000de4:	402fd133          	sra	sp,t6,sp
80000de8:	fffe0eb7          	lui	t4,0xfffe0
80000dec:	01700e13          	li	t3,23
80000df0:	33d11063          	bne	sp,t4,80001110 <fail>

80000df4 <test_24>:
80000df4:	00700f93          	li	t6,7
80000df8:	41ffdfb3          	sra	t6,t6,t6
80000dfc:	00000e93          	li	t4,0
80000e00:	01800e13          	li	t3,24
80000e04:	31df9663          	bne	t6,t4,80001110 <fail>

80000e08 <test_25>:
80000e08:	00000213          	li	tp,0
80000e0c:	80000fb7          	lui	t6,0x80000
80000e10:	00700113          	li	sp,7
80000e14:	402fd1b3          	sra	gp,t6,sp
80000e18:	00018313          	mv	t1,gp
80000e1c:	00120213          	add	tp,tp,1 # 1 <_entry_offset+0x1>
80000e20:	00200293          	li	t0,2
80000e24:	fe5214e3          	bne	tp,t0,80000e0c <test_25+0x4>
80000e28:	ff000eb7          	lui	t4,0xff000
80000e2c:	01900e13          	li	t3,25
80000e30:	2fd31063          	bne	t1,t4,80001110 <fail>

80000e34 <test_26>:
80000e34:	00000213          	li	tp,0
80000e38:	80000fb7          	lui	t6,0x80000
80000e3c:	00e00113          	li	sp,14
80000e40:	402fd1b3          	sra	gp,t6,sp
80000e44:	00000013          	nop
80000e48:	00018313          	mv	t1,gp
80000e4c:	00120213          	add	tp,tp,1 # 1 <_entry_offset+0x1>
80000e50:	00200293          	li	t0,2
80000e54:	fe5212e3          	bne	tp,t0,80000e38 <test_26+0x4>
80000e58:	fffe0eb7          	lui	t4,0xfffe0
80000e5c:	01a00e13          	li	t3,26
80000e60:	2bd31863          	bne	t1,t4,80001110 <fail>

80000e64 <test_27>:
80000e64:	00000213          	li	tp,0
80000e68:	80000fb7          	lui	t6,0x80000
80000e6c:	01f00113          	li	sp,31
80000e70:	402fd1b3          	sra	gp,t6,sp
80000e74:	00000013          	nop
80000e78:	00000013          	nop
80000e7c:	00018313          	mv	t1,gp
80000e80:	00120213          	add	tp,tp,1 # 1 <_entry_offset+0x1>
80000e84:	00200293          	li	t0,2
80000e88:	fe5210e3          	bne	tp,t0,80000e68 <test_27+0x4>
80000e8c:	fff00e93          	li	t4,-1
80000e90:	01b00e13          	li	t3,27
80000e94:	27d31e63          	bne	t1,t4,80001110 <fail>

80000e98 <test_28>:
80000e98:	00000213          	li	tp,0
80000e9c:	80000fb7          	lui	t6,0x80000
80000ea0:	00700113          	li	sp,7
80000ea4:	402fd1b3          	sra	gp,t6,sp
80000ea8:	00120213          	add	tp,tp,1 # 1 <_entry_offset+0x1>
80000eac:	00200293          	li	t0,2
80000eb0:	fe5216e3          	bne	tp,t0,80000e9c <test_28+0x4>
80000eb4:	ff000eb7          	lui	t4,0xff000
80000eb8:	01c00e13          	li	t3,28
80000ebc:	25d19a63          	bne	gp,t4,80001110 <fail>

80000ec0 <test_29>:
80000ec0:	00000213          	li	tp,0
80000ec4:	80000fb7          	lui	t6,0x80000
80000ec8:	00e00113          	li	sp,14
80000ecc:	00000013          	nop
80000ed0:	402fd1b3          	sra	gp,t6,sp
80000ed4:	00120213          	add	tp,tp,1 # 1 <_entry_offset+0x1>
80000ed8:	00200293          	li	t0,2
80000edc:	fe5214e3          	bne	tp,t0,80000ec4 <test_29+0x4>
80000ee0:	fffe0eb7          	lui	t4,0xfffe0
80000ee4:	01d00e13          	li	t3,29
80000ee8:	23d19463          	bne	gp,t4,80001110 <fail>

80000eec <test_30>:
80000eec:	00000213          	li	tp,0
80000ef0:	80000fb7          	lui	t6,0x80000
80000ef4:	01f00113          	li	sp,31
80000ef8:	00000013          	nop
80000efc:	00000013          	nop
80000f00:	402fd1b3          	sra	gp,t6,sp
80000f04:	00120213          	add	tp,tp,1 # 1 <_entry_offset+0x1>
80000f08:	00200293          	li	t0,2
80000f0c:	fe5212e3          	bne	tp,t0,80000ef0 <test_30+0x4>
80000f10:	fff00e93          	li	t4,-1
80000f14:	01e00e13          	li	t3,30
80000f18:	1fd19c63          	bne	gp,t4,80001110 <fail>

80000f1c <test_31>:
80000f1c:	00000213          	li	tp,0
80000f20:	80000fb7          	lui	t6,0x80000
80000f24:	00000013          	nop
80000f28:	00700113          	li	sp,7
80000f2c:	402fd1b3          	sra	gp,t6,sp
80000f30:	00120213          	add	tp,tp,1 # 1 <_entry_offset+0x1>
80000f34:	00200293          	li	t0,2
80000f38:	fe5214e3          	bne	tp,t0,80000f20 <test_31+0x4>
80000f3c:	ff000eb7          	lui	t4,0xff000
80000f40:	01f00e13          	li	t3,31
80000f44:	1dd19663          	bne	gp,t4,80001110 <fail>

80000f48 <test_32>:
80000f48:	00000213          	li	tp,0
80000f4c:	80000fb7          	lui	t6,0x80000
80000f50:	00000013          	nop
80000f54:	00e00113          	li	sp,14
80000f58:	00000013          	nop
80000f5c:	402fd1b3          	sra	gp,t6,sp
80000f60:	00120213          	add	tp,tp,1 # 1 <_entry_offset+0x1>
80000f64:	00200293          	li	t0,2
80000f68:	fe5212e3          	bne	tp,t0,80000f4c <test_32+0x4>
80000f6c:	fffe0eb7          	lui	t4,0xfffe0
80000f70:	02000e13          	li	t3,32
80000f74:	19d19e63          	bne	gp,t4,80001110 <fail>

80000f78 <test_33>:
80000f78:	00000213          	li	tp,0
80000f7c:	80000fb7          	lui	t6,0x80000
80000f80:	00000013          	nop
80000f84:	00000013          	nop
80000f88:	01f00113          	li	sp,31
80000f8c:	402fd1b3          	sra	gp,t6,sp
80000f90:	00120213          	add	tp,tp,1 # 1 <_entry_offset+0x1>
80000f94:	00200293          	li	t0,2
80000f98:	fe5212e3          	bne	tp,t0,80000f7c <test_33+0x4>
80000f9c:	fff00e93          	li	t4,-1
80000fa0:	02100e13          	li	t3,33
80000fa4:	17d19663          	bne	gp,t4,80001110 <fail>

80000fa8 <test_34>:
80000fa8:	00000213          	li	tp,0
80000fac:	00700113          	li	sp,7
80000fb0:	80000fb7          	lui	t6,0x80000
80000fb4:	402fd1b3          	sra	gp,t6,sp
80000fb8:	00120213          	add	tp,tp,1 # 1 <_entry_offset+0x1>
80000fbc:	00200293          	li	t0,2
80000fc0:	fe5216e3          	bne	tp,t0,80000fac <test_34+0x4>
80000fc4:	ff000eb7          	lui	t4,0xff000
80000fc8:	02200e13          	li	t3,34
80000fcc:	15d19263          	bne	gp,t4,80001110 <fail>

80000fd0 <test_35>:
80000fd0:	00000213          	li	tp,0
80000fd4:	00e00113          	li	sp,14
80000fd8:	80000fb7          	lui	t6,0x80000
80000fdc:	00000013          	nop
80000fe0:	402fd1b3          	sra	gp,t6,sp
80000fe4:	00120213          	add	tp,tp,1 # 1 <_entry_offset+0x1>
80000fe8:	00200293          	li	t0,2
80000fec:	fe5214e3          	bne	tp,t0,80000fd4 <test_35+0x4>
80000ff0:	fffe0eb7          	lui	t4,0xfffe0
80000ff4:	02300e13          	li	t3,35
80000ff8:	11d19c63          	bne	gp,t4,80001110 <fail>

80000ffc <test_36>:
80000ffc:	00000213          	li	tp,0
80001000:	01f00113          	li	sp,31
80001004:	80000fb7          	lui	t6,0x80000
80001008:	00000013          	nop
8000100c:	00000013          	nop
80001010:	402fd1b3          	sra	gp,t6,sp
80001014:	00120213          	add	tp,tp,1 # 1 <_entry_offset+0x1>
80001018:	00200293          	li	t0,2
8000101c:	fe5212e3          	bne	tp,t0,80001000 <test_36+0x4>
80001020:	fff00e93          	li	t4,-1
80001024:	02400e13          	li	t3,36
80001028:	0fd19463          	bne	gp,t4,80001110 <fail>

8000102c <test_37>:
8000102c:	00000213          	li	tp,0
80001030:	00700113          	li	sp,7
80001034:	00000013          	nop
80001038:	80000fb7          	lui	t6,0x80000
8000103c:	402fd1b3          	sra	gp,t6,sp
80001040:	00120213          	add	tp,tp,1 # 1 <_entry_offset+0x1>
80001044:	00200293          	li	t0,2
80001048:	fe5214e3          	bne	tp,t0,80001030 <test_37+0x4>
8000104c:	ff000eb7          	lui	t4,0xff000
80001050:	02500e13          	li	t3,37
80001054:	0bd19e63          	bne	gp,t4,80001110 <fail>

80001058 <test_38>:
80001058:	00000213          	li	tp,0
8000105c:	00e00113          	li	sp,14
80001060:	00000013          	nop
80001064:	80000fb7          	lui	t6,0x80000
80001068:	00000013          	nop
8000106c:	402fd1b3          	sra	gp,t6,sp
80001070:	00120213          	add	tp,tp,1 # 1 <_entry_offset+0x1>
80001074:	00200293          	li	t0,2
80001078:	fe5212e3          	bne	tp,t0,8000105c <test_38+0x4>
8000107c:	fffe0eb7          	lui	t4,0xfffe0
80001080:	02600e13          	li	t3,38
80001084:	09d19663          	bne	gp,t4,80001110 <fail>

80001088 <test_39>:
80001088:	00000213          	li	tp,0
8000108c:	01f00113          	li	sp,31
80001090:	00000013          	nop
80001094:	00000013          	nop
80001098:	80000fb7          	lui	t6,0x80000
8000109c:	402fd1b3          	sra	gp,t6,sp
800010a0:	00120213          	add	tp,tp,1 # 1 <_entry_offset+0x1>
800010a4:	00200293          	li	t0,2
800010a8:	fe5212e3          	bne	tp,t0,8000108c <test_39+0x4>
800010ac:	fff00e93          	li	t4,-1
800010b0:	02700e13          	li	t3,39
800010b4:	05d19e63          	bne	gp,t4,80001110 <fail>

800010b8 <test_40>:
800010b8:	00f00f93          	li	t6,15
800010bc:	41f05133          	sra	sp,zero,t6
800010c0:	00000e93          	li	t4,0
800010c4:	02800e13          	li	t3,40
800010c8:	05d11463          	bne	sp,t4,80001110 <fail>

800010cc <test_41>:
800010cc:	02000f93          	li	t6,32
800010d0:	400fd133          	sra	sp,t6,zero
800010d4:	02000e93          	li	t4,32
800010d8:	02900e13          	li	t3,41
800010dc:	03d11a63          	bne	sp,t4,80001110 <fail>

800010e0 <test_42>:
800010e0:	40005fb3          	sra	t6,zero,zero
800010e4:	00000e93          	li	t4,0
800010e8:	02a00e13          	li	t3,42
800010ec:	03df9263          	bne	t6,t4,80001110 <fail>

800010f0 <test_43>:
800010f0:	40000f93          	li	t6,1024
800010f4:	00001137          	lui	sp,0x1
800010f8:	80010113          	add	sp,sp,-2048 # 800 <_entry_offset+0x800>
800010fc:	402fd033          	sra	zero,t6,sp
80001100:	00000e93          	li	t4,0
80001104:	02b00e13          	li	t3,43
80001108:	01d01463          	bne	zero,t4,80001110 <fail>
8000110c:	0100006f          	j	8000111c <pass>

80001110 <fail>:
80001110:	fff00513          	li	a0,-1
80001114:	00100073          	ebreak
80001118:	ff9ff06f          	j	80001110 <fail>

8000111c <pass>:
8000111c:	00000513          	li	a0,0
80001120:	00008067          	ret

80001124 <sw>:
80001124:	00007f97          	auipc	t6,0x7
80001128:	69cf8f93          	add	t6,t6,1692 # 800087c0 <tdat>
8000112c:	00aa0137          	lui	sp,0xaa0
80001130:	0aa10113          	add	sp,sp,170 # aa00aa <_entry_offset+0xaa00aa>
80001134:	002fa023          	sw	sp,0(t6)
80001138:	000fa183          	lw	gp,0(t6)
8000113c:	00aa0eb7          	lui	t4,0xaa0
80001140:	0aae8e93          	add	t4,t4,170 # aa00aa <_entry_offset+0xaa00aa>
80001144:	00200e13          	li	t3,2
80001148:	47d19063          	bne	gp,t4,800015a8 <fail>

8000114c <test_3>:
8000114c:	00007f97          	auipc	t6,0x7
80001150:	674f8f93          	add	t6,t6,1652 # 800087c0 <tdat>
80001154:	aa00b137          	lui	sp,0xaa00b
80001158:	a0010113          	add	sp,sp,-1536 # aa00aa00 <_end+0x29ff9a00>
8000115c:	002fa223          	sw	sp,4(t6)
80001160:	004fa183          	lw	gp,4(t6)
80001164:	aa00beb7          	lui	t4,0xaa00b
80001168:	a00e8e93          	add	t4,t4,-1536 # aa00aa00 <_end+0x29ff9a00>
8000116c:	00300e13          	li	t3,3
80001170:	43d19c63          	bne	gp,t4,800015a8 <fail>

80001174 <test_4>:
80001174:	00007f97          	auipc	t6,0x7
80001178:	64cf8f93          	add	t6,t6,1612 # 800087c0 <tdat>
8000117c:	0aa01137          	lui	sp,0xaa01
80001180:	aa010113          	add	sp,sp,-1376 # aa00aa0 <_entry_offset+0xaa00aa0>
80001184:	002fa423          	sw	sp,8(t6)
80001188:	008fa183          	lw	gp,8(t6)
8000118c:	0aa01eb7          	lui	t4,0xaa01
80001190:	aa0e8e93          	add	t4,t4,-1376 # aa00aa0 <_entry_offset+0xaa00aa0>
80001194:	00400e13          	li	t3,4
80001198:	41d19863          	bne	gp,t4,800015a8 <fail>

8000119c <test_5>:
8000119c:	00007f97          	auipc	t6,0x7
800011a0:	624f8f93          	add	t6,t6,1572 # 800087c0 <tdat>
800011a4:	a00aa137          	lui	sp,0xa00aa
800011a8:	00a10113          	add	sp,sp,10 # a00aa00a <_end+0x2009900a>
800011ac:	002fa623          	sw	sp,12(t6)
800011b0:	00cfa183          	lw	gp,12(t6)
800011b4:	a00aaeb7          	lui	t4,0xa00aa
800011b8:	00ae8e93          	add	t4,t4,10 # a00aa00a <_end+0x2009900a>
800011bc:	00500e13          	li	t3,5
800011c0:	3fd19463          	bne	gp,t4,800015a8 <fail>

800011c4 <test_6>:
800011c4:	00007f97          	auipc	t6,0x7
800011c8:	618f8f93          	add	t6,t6,1560 # 800087dc <tdat8>
800011cc:	00aa0137          	lui	sp,0xaa0
800011d0:	0aa10113          	add	sp,sp,170 # aa00aa <_entry_offset+0xaa00aa>
800011d4:	fe2faa23          	sw	sp,-12(t6)
800011d8:	ff4fa183          	lw	gp,-12(t6)
800011dc:	00aa0eb7          	lui	t4,0xaa0
800011e0:	0aae8e93          	add	t4,t4,170 # aa00aa <_entry_offset+0xaa00aa>
800011e4:	00600e13          	li	t3,6
800011e8:	3dd19063          	bne	gp,t4,800015a8 <fail>

800011ec <test_7>:
800011ec:	00007f97          	auipc	t6,0x7
800011f0:	5f0f8f93          	add	t6,t6,1520 # 800087dc <tdat8>
800011f4:	aa00b137          	lui	sp,0xaa00b
800011f8:	a0010113          	add	sp,sp,-1536 # aa00aa00 <_end+0x29ff9a00>
800011fc:	fe2fac23          	sw	sp,-8(t6)
80001200:	ff8fa183          	lw	gp,-8(t6)
80001204:	aa00beb7          	lui	t4,0xaa00b
80001208:	a00e8e93          	add	t4,t4,-1536 # aa00aa00 <_end+0x29ff9a00>
8000120c:	00700e13          	li	t3,7
80001210:	39d19c63          	bne	gp,t4,800015a8 <fail>

80001214 <test_8>:
80001214:	00007f97          	auipc	t6,0x7
80001218:	5c8f8f93          	add	t6,t6,1480 # 800087dc <tdat8>
8000121c:	0aa01137          	lui	sp,0xaa01
80001220:	aa010113          	add	sp,sp,-1376 # aa00aa0 <_entry_offset+0xaa00aa0>
80001224:	fe2fae23          	sw	sp,-4(t6)
80001228:	ffcfa183          	lw	gp,-4(t6)
8000122c:	0aa01eb7          	lui	t4,0xaa01
80001230:	aa0e8e93          	add	t4,t4,-1376 # aa00aa0 <_entry_offset+0xaa00aa0>
80001234:	00800e13          	li	t3,8
80001238:	37d19863          	bne	gp,t4,800015a8 <fail>

8000123c <test_9>:
8000123c:	00007f97          	auipc	t6,0x7
80001240:	5a0f8f93          	add	t6,t6,1440 # 800087dc <tdat8>
80001244:	a00aa137          	lui	sp,0xa00aa
80001248:	00a10113          	add	sp,sp,10 # a00aa00a <_end+0x2009900a>
8000124c:	002fa023          	sw	sp,0(t6)
80001250:	000fa183          	lw	gp,0(t6)
80001254:	a00aaeb7          	lui	t4,0xa00aa
80001258:	00ae8e93          	add	t4,t4,10 # a00aa00a <_end+0x2009900a>
8000125c:	00900e13          	li	t3,9
80001260:	35d19463          	bne	gp,t4,800015a8 <fail>

80001264 <test_10>:
80001264:	00007f97          	auipc	t6,0x7
80001268:	57cf8f93          	add	t6,t6,1404 # 800087e0 <tdat9>
8000126c:	12345137          	lui	sp,0x12345
80001270:	67810113          	add	sp,sp,1656 # 12345678 <_entry_offset+0x12345678>
80001274:	fe0f8213          	add	tp,t6,-32
80001278:	02222023          	sw	sp,32(tp) # 20 <_entry_offset+0x20>
8000127c:	000fa183          	lw	gp,0(t6)
80001280:	12345eb7          	lui	t4,0x12345
80001284:	678e8e93          	add	t4,t4,1656 # 12345678 <_entry_offset+0x12345678>
80001288:	00a00e13          	li	t3,10
8000128c:	31d19e63          	bne	gp,t4,800015a8 <fail>

80001290 <test_11>:
80001290:	00007f97          	auipc	t6,0x7
80001294:	550f8f93          	add	t6,t6,1360 # 800087e0 <tdat9>
80001298:	58213137          	lui	sp,0x58213
8000129c:	09810113          	add	sp,sp,152 # 58213098 <_entry_offset+0x58213098>
800012a0:	ffdf8f93          	add	t6,t6,-3
800012a4:	002fa3a3          	sw	sp,7(t6)
800012a8:	00007217          	auipc	tp,0x7
800012ac:	53c20213          	add	tp,tp,1340 # 800087e4 <tdat10>
800012b0:	00022183          	lw	gp,0(tp) # 0 <_entry_offset>
800012b4:	58213eb7          	lui	t4,0x58213
800012b8:	098e8e93          	add	t4,t4,152 # 58213098 <_entry_offset+0x58213098>
800012bc:	00b00e13          	li	t3,11
800012c0:	2fd19463          	bne	gp,t4,800015a8 <fail>

800012c4 <test_12>:
800012c4:	00c00e13          	li	t3,12
800012c8:	00000213          	li	tp,0
800012cc:	aabbdfb7          	lui	t6,0xaabbd
800012d0:	cddf8f93          	add	t6,t6,-803 # aabbccdd <_end+0x2ababcdd>
800012d4:	00007117          	auipc	sp,0x7
800012d8:	4ec10113          	add	sp,sp,1260 # 800087c0 <tdat>
800012dc:	01f12023          	sw	t6,0(sp)
800012e0:	00012183          	lw	gp,0(sp)
800012e4:	aabbdeb7          	lui	t4,0xaabbd
800012e8:	cdde8e93          	add	t4,t4,-803 # aabbccdd <_end+0x2ababcdd>
800012ec:	2bd19e63          	bne	gp,t4,800015a8 <fail>
800012f0:	00120213          	add	tp,tp,1 # 1 <_entry_offset+0x1>
800012f4:	00200293          	li	t0,2
800012f8:	fc521ae3          	bne	tp,t0,800012cc <test_12+0x8>

800012fc <test_13>:
800012fc:	00d00e13          	li	t3,13
80001300:	00000213          	li	tp,0
80001304:	daabcfb7          	lui	t6,0xdaabc
80001308:	ccdf8f93          	add	t6,t6,-819 # daabbccd <_end+0x5aaaaccd>
8000130c:	00007117          	auipc	sp,0x7
80001310:	4b410113          	add	sp,sp,1204 # 800087c0 <tdat>
80001314:	00000013          	nop
80001318:	01f12223          	sw	t6,4(sp)
8000131c:	00412183          	lw	gp,4(sp)
80001320:	daabceb7          	lui	t4,0xdaabc
80001324:	ccde8e93          	add	t4,t4,-819 # daabbccd <_end+0x5aaaaccd>
80001328:	29d19063          	bne	gp,t4,800015a8 <fail>
8000132c:	00120213          	add	tp,tp,1 # 1 <_entry_offset+0x1>
80001330:	00200293          	li	t0,2
80001334:	fc5218e3          	bne	tp,t0,80001304 <test_13+0x8>

80001338 <test_14>:
80001338:	00e00e13          	li	t3,14
8000133c:	00000213          	li	tp,0
80001340:	ddaacfb7          	lui	t6,0xddaac
80001344:	bccf8f93          	add	t6,t6,-1076 # ddaabbcc <_end+0x5da9abcc>
80001348:	00007117          	auipc	sp,0x7
8000134c:	47810113          	add	sp,sp,1144 # 800087c0 <tdat>
80001350:	00000013          	nop
80001354:	00000013          	nop
80001358:	01f12423          	sw	t6,8(sp)
8000135c:	00812183          	lw	gp,8(sp)
80001360:	ddaaceb7          	lui	t4,0xddaac
80001364:	bcce8e93          	add	t4,t4,-1076 # ddaabbcc <_end+0x5da9abcc>
80001368:	25d19063          	bne	gp,t4,800015a8 <fail>
8000136c:	00120213          	add	tp,tp,1 # 1 <_entry_offset+0x1>
80001370:	00200293          	li	t0,2
80001374:	fc5216e3          	bne	tp,t0,80001340 <test_14+0x8>

80001378 <test_15>:
80001378:	00f00e13          	li	t3,15
8000137c:	00000213          	li	tp,0
80001380:	cddabfb7          	lui	t6,0xcddab
80001384:	bbcf8f93          	add	t6,t6,-1092 # cddaabbc <_end+0x4dd99bbc>
80001388:	00000013          	nop
8000138c:	00007117          	auipc	sp,0x7
80001390:	43410113          	add	sp,sp,1076 # 800087c0 <tdat>
80001394:	01f12623          	sw	t6,12(sp)
80001398:	00c12183          	lw	gp,12(sp)
8000139c:	cddabeb7          	lui	t4,0xcddab
800013a0:	bbce8e93          	add	t4,t4,-1092 # cddaabbc <_end+0x4dd99bbc>
800013a4:	21d19263          	bne	gp,t4,800015a8 <fail>
800013a8:	00120213          	add	tp,tp,1 # 1 <_entry_offset+0x1>
800013ac:	00200293          	li	t0,2
800013b0:	fc5218e3          	bne	tp,t0,80001380 <test_15+0x8>

800013b4 <test_16>:
800013b4:	01000e13          	li	t3,16
800013b8:	00000213          	li	tp,0
800013bc:	ccddbfb7          	lui	t6,0xccddb
800013c0:	abbf8f93          	add	t6,t6,-1349 # ccddaabb <_end+0x4cdc9abb>
800013c4:	00000013          	nop
800013c8:	00007117          	auipc	sp,0x7
800013cc:	3f810113          	add	sp,sp,1016 # 800087c0 <tdat>
800013d0:	00000013          	nop
800013d4:	01f12823          	sw	t6,16(sp)
800013d8:	01012183          	lw	gp,16(sp)
800013dc:	ccddbeb7          	lui	t4,0xccddb
800013e0:	abbe8e93          	add	t4,t4,-1349 # ccddaabb <_end+0x4cdc9abb>
800013e4:	1dd19263          	bne	gp,t4,800015a8 <fail>
800013e8:	00120213          	add	tp,tp,1 # 1 <_entry_offset+0x1>
800013ec:	00200293          	li	t0,2
800013f0:	fc5216e3          	bne	tp,t0,800013bc <test_16+0x8>

800013f4 <test_17>:
800013f4:	01100e13          	li	t3,17
800013f8:	00000213          	li	tp,0
800013fc:	bccdefb7          	lui	t6,0xbccde
80001400:	aabf8f93          	add	t6,t6,-1365 # bccddaab <_end+0x3ccccaab>
80001404:	00000013          	nop
80001408:	00000013          	nop
8000140c:	00007117          	auipc	sp,0x7
80001410:	3b410113          	add	sp,sp,948 # 800087c0 <tdat>
80001414:	01f12a23          	sw	t6,20(sp)
80001418:	01412183          	lw	gp,20(sp)
8000141c:	bccdeeb7          	lui	t4,0xbccde
80001420:	aabe8e93          	add	t4,t4,-1365 # bccddaab <_end+0x3ccccaab>
80001424:	19d19263          	bne	gp,t4,800015a8 <fail>
80001428:	00120213          	add	tp,tp,1 # 1 <_entry_offset+0x1>
8000142c:	00200293          	li	t0,2
80001430:	fc5216e3          	bne	tp,t0,800013fc <test_17+0x8>

80001434 <test_18>:
80001434:	01200e13          	li	t3,18
80001438:	00000213          	li	tp,0
8000143c:	00007117          	auipc	sp,0x7
80001440:	38410113          	add	sp,sp,900 # 800087c0 <tdat>
80001444:	00112fb7          	lui	t6,0x112
80001448:	233f8f93          	add	t6,t6,563 # 112233 <_entry_offset+0x112233>
8000144c:	01f12023          	sw	t6,0(sp)
80001450:	00012183          	lw	gp,0(sp)
80001454:	00112eb7          	lui	t4,0x112
80001458:	233e8e93          	add	t4,t4,563 # 112233 <_entry_offset+0x112233>
8000145c:	15d19663          	bne	gp,t4,800015a8 <fail>
80001460:	00120213          	add	tp,tp,1 # 1 <_entry_offset+0x1>
80001464:	00200293          	li	t0,2
80001468:	fc521ae3          	bne	tp,t0,8000143c <test_18+0x8>

8000146c <test_19>:
8000146c:	01300e13          	li	t3,19
80001470:	00000213          	li	tp,0
80001474:	00007117          	auipc	sp,0x7
80001478:	34c10113          	add	sp,sp,844 # 800087c0 <tdat>
8000147c:	30011fb7          	lui	t6,0x30011
80001480:	223f8f93          	add	t6,t6,547 # 30011223 <_entry_offset+0x30011223>
80001484:	00000013          	nop
80001488:	01f12223          	sw	t6,4(sp)
8000148c:	00412183          	lw	gp,4(sp)
80001490:	30011eb7          	lui	t4,0x30011
80001494:	223e8e93          	add	t4,t4,547 # 30011223 <_entry_offset+0x30011223>
80001498:	11d19863          	bne	gp,t4,800015a8 <fail>
8000149c:	00120213          	add	tp,tp,1 # 1 <_entry_offset+0x1>
800014a0:	00200293          	li	t0,2
800014a4:	fc5218e3          	bne	tp,t0,80001474 <test_19+0x8>

800014a8 <test_20>:
800014a8:	01400e13          	li	t3,20
800014ac:	00000213          	li	tp,0
800014b0:	00007117          	auipc	sp,0x7
800014b4:	31010113          	add	sp,sp,784 # 800087c0 <tdat>
800014b8:	33001fb7          	lui	t6,0x33001
800014bc:	122f8f93          	add	t6,t6,290 # 33001122 <_entry_offset+0x33001122>
800014c0:	00000013          	nop
800014c4:	00000013          	nop
800014c8:	01f12423          	sw	t6,8(sp)
800014cc:	00812183          	lw	gp,8(sp)
800014d0:	33001eb7          	lui	t4,0x33001
800014d4:	122e8e93          	add	t4,t4,290 # 33001122 <_entry_offset+0x33001122>
800014d8:	0dd19863          	bne	gp,t4,800015a8 <fail>
800014dc:	00120213          	add	tp,tp,1 # 1 <_entry_offset+0x1>
800014e0:	00200293          	li	t0,2
800014e4:	fc5216e3          	bne	tp,t0,800014b0 <test_20+0x8>

800014e8 <test_21>:
800014e8:	01500e13          	li	t3,21
800014ec:	00000213          	li	tp,0
800014f0:	00007117          	auipc	sp,0x7
800014f4:	2d010113          	add	sp,sp,720 # 800087c0 <tdat>
800014f8:	00000013          	nop
800014fc:	23300fb7          	lui	t6,0x23300
80001500:	112f8f93          	add	t6,t6,274 # 23300112 <_entry_offset+0x23300112>
80001504:	01f12623          	sw	t6,12(sp)
80001508:	00c12183          	lw	gp,12(sp)
8000150c:	23300eb7          	lui	t4,0x23300
80001510:	112e8e93          	add	t4,t4,274 # 23300112 <_entry_offset+0x23300112>
80001514:	09d19a63          	bne	gp,t4,800015a8 <fail>
80001518:	00120213          	add	tp,tp,1 # 1 <_entry_offset+0x1>
8000151c:	00200293          	li	t0,2
80001520:	fc5218e3          	bne	tp,t0,800014f0 <test_21+0x8>

80001524 <test_22>:
80001524:	01600e13          	li	t3,22
80001528:	00000213          	li	tp,0
8000152c:	00007117          	auipc	sp,0x7
80001530:	29410113          	add	sp,sp,660 # 800087c0 <tdat>
80001534:	00000013          	nop
80001538:	22330fb7          	lui	t6,0x22330
8000153c:	011f8f93          	add	t6,t6,17 # 22330011 <_entry_offset+0x22330011>
80001540:	00000013          	nop
80001544:	01f12823          	sw	t6,16(sp)
80001548:	01012183          	lw	gp,16(sp)
8000154c:	22330eb7          	lui	t4,0x22330
80001550:	011e8e93          	add	t4,t4,17 # 22330011 <_entry_offset+0x22330011>
80001554:	05d19a63          	bne	gp,t4,800015a8 <fail>
80001558:	00120213          	add	tp,tp,1 # 1 <_entry_offset+0x1>
8000155c:	00200293          	li	t0,2
80001560:	fc5216e3          	bne	tp,t0,8000152c <test_22+0x8>

80001564 <test_23>:
80001564:	01700e13          	li	t3,23
80001568:	00000213          	li	tp,0
8000156c:	00007117          	auipc	sp,0x7
80001570:	25410113          	add	sp,sp,596 # 800087c0 <tdat>
80001574:	00000013          	nop
80001578:	00000013          	nop
8000157c:	12233fb7          	lui	t6,0x12233
80001580:	001f8f93          	add	t6,t6,1 # 12233001 <_entry_offset+0x12233001>
80001584:	01f12a23          	sw	t6,20(sp)
80001588:	01412183          	lw	gp,20(sp)
8000158c:	12233eb7          	lui	t4,0x12233
80001590:	001e8e93          	add	t4,t4,1 # 12233001 <_entry_offset+0x12233001>
80001594:	01d19a63          	bne	gp,t4,800015a8 <fail>
80001598:	00120213          	add	tp,tp,1 # 1 <_entry_offset+0x1>
8000159c:	00200293          	li	t0,2
800015a0:	fc5216e3          	bne	tp,t0,8000156c <test_23+0x8>
800015a4:	0100006f          	j	800015b4 <pass>

800015a8 <fail>:
800015a8:	fff00513          	li	a0,-1
800015ac:	00100073          	ebreak
800015b0:	ff9ff06f          	j	800015a8 <fail>

800015b4 <pass>:
800015b4:	00000513          	li	a0,0
800015b8:	00008067          	ret

800015bc <andi>:
800015bc:	ff010fb7          	lui	t6,0xff010
800015c0:	f00f8f93          	add	t6,t6,-256 # ff00ff00 <_end+0x7effef00>
800015c4:	f0fff193          	and	gp,t6,-241
800015c8:	ff010eb7          	lui	t4,0xff010
800015cc:	f00e8e93          	add	t4,t4,-256 # ff00ff00 <_end+0x7effef00>
800015d0:	00200e13          	li	t3,2
800015d4:	1bd19463          	bne	gp,t4,8000177c <fail>

800015d8 <test_3>:
800015d8:	0ff01fb7          	lui	t6,0xff01
800015dc:	ff0f8f93          	add	t6,t6,-16 # ff00ff0 <_entry_offset+0xff00ff0>
800015e0:	0f0ff193          	and	gp,t6,240
800015e4:	0f000e93          	li	t4,240
800015e8:	00300e13          	li	t3,3
800015ec:	19d19863          	bne	gp,t4,8000177c <fail>

800015f0 <test_4>:
800015f0:	00ff0fb7          	lui	t6,0xff0
800015f4:	0fff8f93          	add	t6,t6,255 # ff00ff <_entry_offset+0xff00ff>
800015f8:	70fff193          	and	gp,t6,1807
800015fc:	00f00e93          	li	t4,15
80001600:	00400e13          	li	t3,4
80001604:	17d19c63          	bne	gp,t4,8000177c <fail>

80001608 <test_5>:
80001608:	f00fffb7          	lui	t6,0xf00ff
8000160c:	00ff8f93          	add	t6,t6,15 # f00ff00f <_end+0x700ee00f>
80001610:	0f0ff193          	and	gp,t6,240
80001614:	00000e93          	li	t4,0
80001618:	00500e13          	li	t3,5
8000161c:	17d19063          	bne	gp,t4,8000177c <fail>

80001620 <test_6>:
80001620:	ff010fb7          	lui	t6,0xff010
80001624:	f00f8f93          	add	t6,t6,-256 # ff00ff00 <_end+0x7effef00>
80001628:	0f0fff93          	and	t6,t6,240
8000162c:	00000e93          	li	t4,0
80001630:	00600e13          	li	t3,6
80001634:	15df9463          	bne	t6,t4,8000177c <fail>

80001638 <test_7>:
80001638:	00000213          	li	tp,0
8000163c:	0ff01fb7          	lui	t6,0xff01
80001640:	ff0f8f93          	add	t6,t6,-16 # ff00ff0 <_entry_offset+0xff00ff0>
80001644:	70fff193          	and	gp,t6,1807
80001648:	00018313          	mv	t1,gp
8000164c:	00120213          	add	tp,tp,1 # 1 <_entry_offset+0x1>
80001650:	00200293          	li	t0,2
80001654:	fe5214e3          	bne	tp,t0,8000163c <test_7+0x4>
80001658:	70000e93          	li	t4,1792
8000165c:	00700e13          	li	t3,7
80001660:	11d31e63          	bne	t1,t4,8000177c <fail>

80001664 <test_8>:
80001664:	00000213          	li	tp,0
80001668:	00ff0fb7          	lui	t6,0xff0
8000166c:	0fff8f93          	add	t6,t6,255 # ff00ff <_entry_offset+0xff00ff>
80001670:	0f0ff193          	and	gp,t6,240
80001674:	00000013          	nop
80001678:	00018313          	mv	t1,gp
8000167c:	00120213          	add	tp,tp,1 # 1 <_entry_offset+0x1>
80001680:	00200293          	li	t0,2
80001684:	fe5212e3          	bne	tp,t0,80001668 <test_8+0x4>
80001688:	0f000e93          	li	t4,240
8000168c:	00800e13          	li	t3,8
80001690:	0fd31663          	bne	t1,t4,8000177c <fail>

80001694 <test_9>:
80001694:	00000213          	li	tp,0
80001698:	f00fffb7          	lui	t6,0xf00ff
8000169c:	00ff8f93          	add	t6,t6,15 # f00ff00f <_end+0x700ee00f>
800016a0:	f0fff193          	and	gp,t6,-241
800016a4:	00000013          	nop
800016a8:	00000013          	nop
800016ac:	00018313          	mv	t1,gp
800016b0:	00120213          	add	tp,tp,1 # 1 <_entry_offset+0x1>
800016b4:	00200293          	li	t0,2
800016b8:	fe5210e3          	bne	tp,t0,80001698 <test_9+0x4>
800016bc:	f00ffeb7          	lui	t4,0xf00ff
800016c0:	00fe8e93          	add	t4,t4,15 # f00ff00f <_end+0x700ee00f>
800016c4:	00900e13          	li	t3,9
800016c8:	0bd31a63          	bne	t1,t4,8000177c <fail>

800016cc <test_10>:
800016cc:	00000213          	li	tp,0
800016d0:	0ff01fb7          	lui	t6,0xff01
800016d4:	ff0f8f93          	add	t6,t6,-16 # ff00ff0 <_entry_offset+0xff00ff0>
800016d8:	70fff193          	and	gp,t6,1807
800016dc:	00120213          	add	tp,tp,1 # 1 <_entry_offset+0x1>
800016e0:	00200293          	li	t0,2
800016e4:	fe5216e3          	bne	tp,t0,800016d0 <test_10+0x4>
800016e8:	70000e93          	li	t4,1792
800016ec:	00a00e13          	li	t3,10
800016f0:	09d19663          	bne	gp,t4,8000177c <fail>

800016f4 <test_11>:
800016f4:	00000213          	li	tp,0
800016f8:	00ff0fb7          	lui	t6,0xff0
800016fc:	0fff8f93          	add	t6,t6,255 # ff00ff <_entry_offset+0xff00ff>
80001700:	00000013          	nop
80001704:	0f0ff193          	and	gp,t6,240
80001708:	00120213          	add	tp,tp,1 # 1 <_entry_offset+0x1>
8000170c:	00200293          	li	t0,2
80001710:	fe5214e3          	bne	tp,t0,800016f8 <test_11+0x4>
80001714:	0f000e93          	li	t4,240
80001718:	00b00e13          	li	t3,11
8000171c:	07d19063          	bne	gp,t4,8000177c <fail>

80001720 <test_12>:
80001720:	00000213          	li	tp,0
80001724:	f00fffb7          	lui	t6,0xf00ff
80001728:	00ff8f93          	add	t6,t6,15 # f00ff00f <_end+0x700ee00f>
8000172c:	00000013          	nop
80001730:	00000013          	nop
80001734:	70fff193          	and	gp,t6,1807
80001738:	00120213          	add	tp,tp,1 # 1 <_entry_offset+0x1>
8000173c:	00200293          	li	t0,2
80001740:	fe5212e3          	bne	tp,t0,80001724 <test_12+0x4>
80001744:	00f00e93          	li	t4,15
80001748:	00c00e13          	li	t3,12
8000174c:	03d19863          	bne	gp,t4,8000177c <fail>

80001750 <test_13>:
80001750:	0f007f93          	and	t6,zero,240
80001754:	00000e93          	li	t4,0
80001758:	00d00e13          	li	t3,13
8000175c:	03df9063          	bne	t6,t4,8000177c <fail>

80001760 <test_14>:
80001760:	00ff0fb7          	lui	t6,0xff0
80001764:	0fff8f93          	add	t6,t6,255 # ff00ff <_entry_offset+0xff00ff>
80001768:	70fff013          	and	zero,t6,1807
8000176c:	00000e93          	li	t4,0
80001770:	00e00e13          	li	t3,14
80001774:	01d01463          	bne	zero,t4,8000177c <fail>
80001778:	0100006f          	j	80001788 <pass>

8000177c <fail>:
8000177c:	fff00513          	li	a0,-1
80001780:	00100073          	ebreak
80001784:	ff9ff06f          	j	8000177c <fail>

80001788 <pass>:
80001788:	00000513          	li	a0,0
8000178c:	00008067          	ret

80001790 <addi>:
80001790:	00000f93          	li	t6,0
80001794:	000f8193          	mv	gp,t6
80001798:	00000e93          	li	t4,0
8000179c:	00200e13          	li	t3,2
800017a0:	27d19c63          	bne	gp,t4,80001a18 <fail>

800017a4 <test_3>:
800017a4:	00100f93          	li	t6,1
800017a8:	001f8193          	add	gp,t6,1
800017ac:	00200e93          	li	t4,2
800017b0:	00300e13          	li	t3,3
800017b4:	27d19263          	bne	gp,t4,80001a18 <fail>

800017b8 <test_4>:
800017b8:	00300f93          	li	t6,3
800017bc:	007f8193          	add	gp,t6,7
800017c0:	00a00e93          	li	t4,10
800017c4:	00400e13          	li	t3,4
800017c8:	25d19863          	bne	gp,t4,80001a18 <fail>

800017cc <test_5>:
800017cc:	00000f93          	li	t6,0
800017d0:	800f8193          	add	gp,t6,-2048
800017d4:	80000e93          	li	t4,-2048
800017d8:	00500e13          	li	t3,5
800017dc:	23d19e63          	bne	gp,t4,80001a18 <fail>

800017e0 <test_6>:
800017e0:	80000fb7          	lui	t6,0x80000
800017e4:	000f8193          	mv	gp,t6
800017e8:	80000eb7          	lui	t4,0x80000
800017ec:	00600e13          	li	t3,6
800017f0:	23d19463          	bne	gp,t4,80001a18 <fail>

800017f4 <test_7>:
800017f4:	80000fb7          	lui	t6,0x80000
800017f8:	800f8193          	add	gp,t6,-2048 # 7ffff800 <_entry_offset+0x7ffff800>
800017fc:	80000eb7          	lui	t4,0x80000
80001800:	800e8e93          	add	t4,t4,-2048 # 7ffff800 <_entry_offset+0x7ffff800>
80001804:	00700e13          	li	t3,7
80001808:	21d19863          	bne	gp,t4,80001a18 <fail>

8000180c <test_8>:
8000180c:	00000f93          	li	t6,0
80001810:	7fff8193          	add	gp,t6,2047
80001814:	7ff00e93          	li	t4,2047
80001818:	00800e13          	li	t3,8
8000181c:	1fd19e63          	bne	gp,t4,80001a18 <fail>

80001820 <test_9>:
80001820:	80000fb7          	lui	t6,0x80000
80001824:	ffff8f93          	add	t6,t6,-1 # 7fffffff <_entry_offset+0x7fffffff>
80001828:	000f8193          	mv	gp,t6
8000182c:	80000eb7          	lui	t4,0x80000
80001830:	fffe8e93          	add	t4,t4,-1 # 7fffffff <_entry_offset+0x7fffffff>
80001834:	00900e13          	li	t3,9
80001838:	1fd19063          	bne	gp,t4,80001a18 <fail>

8000183c <test_10>:
8000183c:	80000fb7          	lui	t6,0x80000
80001840:	ffff8f93          	add	t6,t6,-1 # 7fffffff <_entry_offset+0x7fffffff>
80001844:	7fff8193          	add	gp,t6,2047
80001848:	80000eb7          	lui	t4,0x80000
8000184c:	7fee8e93          	add	t4,t4,2046 # 800007fe <test_19+0x2a>
80001850:	00a00e13          	li	t3,10
80001854:	1dd19263          	bne	gp,t4,80001a18 <fail>

80001858 <test_11>:
80001858:	80000fb7          	lui	t6,0x80000
8000185c:	7fff8193          	add	gp,t6,2047 # 800007ff <test_19+0x2b>
80001860:	80000eb7          	lui	t4,0x80000
80001864:	7ffe8e93          	add	t4,t4,2047 # 800007ff <test_19+0x2b>
80001868:	00b00e13          	li	t3,11
8000186c:	1bd19663          	bne	gp,t4,80001a18 <fail>

80001870 <test_12>:
80001870:	80000fb7          	lui	t6,0x80000
80001874:	ffff8f93          	add	t6,t6,-1 # 7fffffff <_entry_offset+0x7fffffff>
80001878:	800f8193          	add	gp,t6,-2048
8000187c:	7ffffeb7          	lui	t4,0x7ffff
80001880:	7ffe8e93          	add	t4,t4,2047 # 7ffff7ff <_entry_offset+0x7ffff7ff>
80001884:	00c00e13          	li	t3,12
80001888:	19d19863          	bne	gp,t4,80001a18 <fail>

8000188c <test_13>:
8000188c:	00000f93          	li	t6,0
80001890:	ffff8193          	add	gp,t6,-1
80001894:	fff00e93          	li	t4,-1
80001898:	00d00e13          	li	t3,13
8000189c:	17d19e63          	bne	gp,t4,80001a18 <fail>

800018a0 <test_14>:
800018a0:	fff00f93          	li	t6,-1
800018a4:	001f8193          	add	gp,t6,1
800018a8:	00000e93          	li	t4,0
800018ac:	00e00e13          	li	t3,14
800018b0:	17d19463          	bne	gp,t4,80001a18 <fail>

800018b4 <test_15>:
800018b4:	fff00f93          	li	t6,-1
800018b8:	ffff8193          	add	gp,t6,-1
800018bc:	ffe00e93          	li	t4,-2
800018c0:	00f00e13          	li	t3,15
800018c4:	15d19a63          	bne	gp,t4,80001a18 <fail>

800018c8 <test_16>:
800018c8:	80000fb7          	lui	t6,0x80000
800018cc:	ffff8f93          	add	t6,t6,-1 # 7fffffff <_entry_offset+0x7fffffff>
800018d0:	001f8193          	add	gp,t6,1
800018d4:	80000eb7          	lui	t4,0x80000
800018d8:	01000e13          	li	t3,16
800018dc:	13d19e63          	bne	gp,t4,80001a18 <fail>

800018e0 <test_17>:
800018e0:	00d00f93          	li	t6,13
800018e4:	00bf8f93          	add	t6,t6,11
800018e8:	01800e93          	li	t4,24
800018ec:	01100e13          	li	t3,17
800018f0:	13df9463          	bne	t6,t4,80001a18 <fail>

800018f4 <test_18>:
800018f4:	00000213          	li	tp,0
800018f8:	00d00f93          	li	t6,13
800018fc:	00bf8193          	add	gp,t6,11
80001900:	00018313          	mv	t1,gp
80001904:	00120213          	add	tp,tp,1 # 1 <_entry_offset+0x1>
80001908:	00200293          	li	t0,2
8000190c:	fe5216e3          	bne	tp,t0,800018f8 <test_18+0x4>
80001910:	01800e93          	li	t4,24
80001914:	01200e13          	li	t3,18
80001918:	11d31063          	bne	t1,t4,80001a18 <fail>

8000191c <test_19>:
8000191c:	00000213          	li	tp,0
80001920:	00d00f93          	li	t6,13
80001924:	00af8193          	add	gp,t6,10
80001928:	00000013          	nop
8000192c:	00018313          	mv	t1,gp
80001930:	00120213          	add	tp,tp,1 # 1 <_entry_offset+0x1>
80001934:	00200293          	li	t0,2
80001938:	fe5214e3          	bne	tp,t0,80001920 <test_19+0x4>
8000193c:	01700e93          	li	t4,23
80001940:	01300e13          	li	t3,19
80001944:	0dd31a63          	bne	t1,t4,80001a18 <fail>

80001948 <test_20>:
80001948:	00000213          	li	tp,0
8000194c:	00d00f93          	li	t6,13
80001950:	009f8193          	add	gp,t6,9
80001954:	00000013          	nop
80001958:	00000013          	nop
8000195c:	00018313          	mv	t1,gp
80001960:	00120213          	add	tp,tp,1 # 1 <_entry_offset+0x1>
80001964:	00200293          	li	t0,2
80001968:	fe5212e3          	bne	tp,t0,8000194c <test_20+0x4>
8000196c:	01600e93          	li	t4,22
80001970:	01400e13          	li	t3,20
80001974:	0bd31263          	bne	t1,t4,80001a18 <fail>

80001978 <test_21>:
80001978:	00000213          	li	tp,0
8000197c:	00d00f93          	li	t6,13
80001980:	00bf8193          	add	gp,t6,11
80001984:	00120213          	add	tp,tp,1 # 1 <_entry_offset+0x1>
80001988:	00200293          	li	t0,2
8000198c:	fe5218e3          	bne	tp,t0,8000197c <test_21+0x4>
80001990:	01800e93          	li	t4,24
80001994:	01500e13          	li	t3,21
80001998:	09d19063          	bne	gp,t4,80001a18 <fail>

8000199c <test_22>:
8000199c:	00000213          	li	tp,0
800019a0:	00d00f93          	li	t6,13
800019a4:	00000013          	nop
800019a8:	00af8193          	add	gp,t6,10
800019ac:	00120213          	add	tp,tp,1 # 1 <_entry_offset+0x1>
800019b0:	00200293          	li	t0,2
800019b4:	fe5216e3          	bne	tp,t0,800019a0 <test_22+0x4>
800019b8:	01700e93          	li	t4,23
800019bc:	01600e13          	li	t3,22
800019c0:	05d19c63          	bne	gp,t4,80001a18 <fail>

800019c4 <test_23>:
800019c4:	00000213          	li	tp,0
800019c8:	00d00f93          	li	t6,13
800019cc:	00000013          	nop
800019d0:	00000013          	nop
800019d4:	009f8193          	add	gp,t6,9
800019d8:	00120213          	add	tp,tp,1 # 1 <_entry_offset+0x1>
800019dc:	00200293          	li	t0,2
800019e0:	fe5214e3          	bne	tp,t0,800019c8 <test_23+0x4>
800019e4:	01600e93          	li	t4,22
800019e8:	01700e13          	li	t3,23
800019ec:	03d19663          	bne	gp,t4,80001a18 <fail>

800019f0 <test_24>:
800019f0:	02000f93          	li	t6,32
800019f4:	02000e93          	li	t4,32
800019f8:	01800e13          	li	t3,24
800019fc:	01df9e63          	bne	t6,t4,80001a18 <fail>

80001a00 <test_25>:
80001a00:	02100f93          	li	t6,33
80001a04:	032f8013          	add	zero,t6,50
80001a08:	00000e93          	li	t4,0
80001a0c:	01900e13          	li	t3,25
80001a10:	01d01463          	bne	zero,t4,80001a18 <fail>
80001a14:	0100006f          	j	80001a24 <pass>

80001a18 <fail>:
80001a18:	fff00513          	li	a0,-1
80001a1c:	00100073          	ebreak
80001a20:	ff9ff06f          	j	80001a18 <fail>

80001a24 <pass>:
80001a24:	00000513          	li	a0,0
80001a28:	00008067          	ret

80001a2c <bgeu>:
80001a2c:	00200e13          	li	t3,2
80001a30:	00000f93          	li	t6,0
80001a34:	00000113          	li	sp,0
80001a38:	002ff663          	bgeu	t6,sp,80001a44 <bgeu+0x18>
80001a3c:	35c01263          	bne	zero,t3,80001d80 <fail>
80001a40:	01c01663          	bne	zero,t3,80001a4c <test_3>
80001a44:	fe2ffee3          	bgeu	t6,sp,80001a40 <bgeu+0x14>
80001a48:	33c01c63          	bne	zero,t3,80001d80 <fail>

80001a4c <test_3>:
80001a4c:	00300e13          	li	t3,3
80001a50:	00100f93          	li	t6,1
80001a54:	00100113          	li	sp,1
80001a58:	002ff663          	bgeu	t6,sp,80001a64 <test_3+0x18>
80001a5c:	33c01263          	bne	zero,t3,80001d80 <fail>
80001a60:	01c01663          	bne	zero,t3,80001a6c <test_4>
80001a64:	fe2ffee3          	bgeu	t6,sp,80001a60 <test_3+0x14>
80001a68:	31c01c63          	bne	zero,t3,80001d80 <fail>

80001a6c <test_4>:
80001a6c:	00400e13          	li	t3,4
80001a70:	fff00f93          	li	t6,-1
80001a74:	fff00113          	li	sp,-1
80001a78:	002ff663          	bgeu	t6,sp,80001a84 <test_4+0x18>
80001a7c:	31c01263          	bne	zero,t3,80001d80 <fail>
80001a80:	01c01663          	bne	zero,t3,80001a8c <test_5>
80001a84:	fe2ffee3          	bgeu	t6,sp,80001a80 <test_4+0x14>
80001a88:	2fc01c63          	bne	zero,t3,80001d80 <fail>

80001a8c <test_5>:
80001a8c:	00500e13          	li	t3,5
80001a90:	00100f93          	li	t6,1
80001a94:	00000113          	li	sp,0
80001a98:	002ff663          	bgeu	t6,sp,80001aa4 <test_5+0x18>
80001a9c:	2fc01263          	bne	zero,t3,80001d80 <fail>
80001aa0:	01c01663          	bne	zero,t3,80001aac <test_6>
80001aa4:	fe2ffee3          	bgeu	t6,sp,80001aa0 <test_5+0x14>
80001aa8:	2dc01c63          	bne	zero,t3,80001d80 <fail>

80001aac <test_6>:
80001aac:	00600e13          	li	t3,6
80001ab0:	fff00f93          	li	t6,-1
80001ab4:	ffe00113          	li	sp,-2
80001ab8:	002ff663          	bgeu	t6,sp,80001ac4 <test_6+0x18>
80001abc:	2dc01263          	bne	zero,t3,80001d80 <fail>
80001ac0:	01c01663          	bne	zero,t3,80001acc <test_7>
80001ac4:	fe2ffee3          	bgeu	t6,sp,80001ac0 <test_6+0x14>
80001ac8:	2bc01c63          	bne	zero,t3,80001d80 <fail>

80001acc <test_7>:
80001acc:	00700e13          	li	t3,7
80001ad0:	fff00f93          	li	t6,-1
80001ad4:	00000113          	li	sp,0
80001ad8:	002ff663          	bgeu	t6,sp,80001ae4 <test_7+0x18>
80001adc:	2bc01263          	bne	zero,t3,80001d80 <fail>
80001ae0:	01c01663          	bne	zero,t3,80001aec <test_8>
80001ae4:	fe2ffee3          	bgeu	t6,sp,80001ae0 <test_7+0x14>
80001ae8:	29c01c63          	bne	zero,t3,80001d80 <fail>

80001aec <test_8>:
80001aec:	00800e13          	li	t3,8
80001af0:	00000f93          	li	t6,0
80001af4:	00100113          	li	sp,1
80001af8:	002ff463          	bgeu	t6,sp,80001b00 <test_8+0x14>
80001afc:	01c01463          	bne	zero,t3,80001b04 <test_8+0x18>
80001b00:	29c01063          	bne	zero,t3,80001d80 <fail>
80001b04:	fe2ffee3          	bgeu	t6,sp,80001b00 <test_8+0x14>

80001b08 <test_9>:
80001b08:	00900e13          	li	t3,9
80001b0c:	ffe00f93          	li	t6,-2
80001b10:	fff00113          	li	sp,-1
80001b14:	002ff463          	bgeu	t6,sp,80001b1c <test_9+0x14>
80001b18:	01c01463          	bne	zero,t3,80001b20 <test_9+0x18>
80001b1c:	27c01263          	bne	zero,t3,80001d80 <fail>
80001b20:	fe2ffee3          	bgeu	t6,sp,80001b1c <test_9+0x14>

80001b24 <test_10>:
80001b24:	00a00e13          	li	t3,10
80001b28:	00000f93          	li	t6,0
80001b2c:	fff00113          	li	sp,-1
80001b30:	002ff463          	bgeu	t6,sp,80001b38 <test_10+0x14>
80001b34:	01c01463          	bne	zero,t3,80001b3c <test_10+0x18>
80001b38:	25c01463          	bne	zero,t3,80001d80 <fail>
80001b3c:	fe2ffee3          	bgeu	t6,sp,80001b38 <test_10+0x14>

80001b40 <test_11>:
80001b40:	00b00e13          	li	t3,11
80001b44:	80000fb7          	lui	t6,0x80000
80001b48:	ffff8f93          	add	t6,t6,-1 # 7fffffff <_entry_offset+0x7fffffff>
80001b4c:	80000137          	lui	sp,0x80000
80001b50:	002ff463          	bgeu	t6,sp,80001b58 <test_11+0x18>
80001b54:	01c01463          	bne	zero,t3,80001b5c <test_11+0x1c>
80001b58:	23c01463          	bne	zero,t3,80001d80 <fail>
80001b5c:	fe2ffee3          	bgeu	t6,sp,80001b58 <test_11+0x18>

80001b60 <test_12>:
80001b60:	00c00e13          	li	t3,12
80001b64:	00000213          	li	tp,0
80001b68:	f0000fb7          	lui	t6,0xf0000
80001b6c:	ffff8f93          	add	t6,t6,-1 # efffffff <_end+0x6ffeefff>
80001b70:	f0000137          	lui	sp,0xf0000
80001b74:	202ff663          	bgeu	t6,sp,80001d80 <fail>
80001b78:	00120213          	add	tp,tp,1 # 1 <_entry_offset+0x1>
80001b7c:	00200293          	li	t0,2
80001b80:	fe5214e3          	bne	tp,t0,80001b68 <test_12+0x8>

80001b84 <test_13>:
80001b84:	00d00e13          	li	t3,13
80001b88:	00000213          	li	tp,0
80001b8c:	f0000fb7          	lui	t6,0xf0000
80001b90:	ffff8f93          	add	t6,t6,-1 # efffffff <_end+0x6ffeefff>
80001b94:	f0000137          	lui	sp,0xf0000
80001b98:	00000013          	nop
80001b9c:	1e2ff263          	bgeu	t6,sp,80001d80 <fail>
80001ba0:	00120213          	add	tp,tp,1 # 1 <_entry_offset+0x1>
80001ba4:	00200293          	li	t0,2
80001ba8:	fe5212e3          	bne	tp,t0,80001b8c <test_13+0x8>

80001bac <test_14>:
80001bac:	00e00e13          	li	t3,14
80001bb0:	00000213          	li	tp,0
80001bb4:	f0000fb7          	lui	t6,0xf0000
80001bb8:	ffff8f93          	add	t6,t6,-1 # efffffff <_end+0x6ffeefff>
80001bbc:	f0000137          	lui	sp,0xf0000
80001bc0:	00000013          	nop
80001bc4:	00000013          	nop
80001bc8:	1a2ffc63          	bgeu	t6,sp,80001d80 <fail>
80001bcc:	00120213          	add	tp,tp,1 # 1 <_entry_offset+0x1>
80001bd0:	00200293          	li	t0,2
80001bd4:	fe5210e3          	bne	tp,t0,80001bb4 <test_14+0x8>

80001bd8 <test_15>:
80001bd8:	00f00e13          	li	t3,15
80001bdc:	00000213          	li	tp,0
80001be0:	f0000fb7          	lui	t6,0xf0000
80001be4:	ffff8f93          	add	t6,t6,-1 # efffffff <_end+0x6ffeefff>
80001be8:	00000013          	nop
80001bec:	f0000137          	lui	sp,0xf0000
80001bf0:	182ff863          	bgeu	t6,sp,80001d80 <fail>
80001bf4:	00120213          	add	tp,tp,1 # 1 <_entry_offset+0x1>
80001bf8:	00200293          	li	t0,2
80001bfc:	fe5212e3          	bne	tp,t0,80001be0 <test_15+0x8>

80001c00 <test_16>:
80001c00:	01000e13          	li	t3,16
80001c04:	00000213          	li	tp,0
80001c08:	f0000fb7          	lui	t6,0xf0000
80001c0c:	ffff8f93          	add	t6,t6,-1 # efffffff <_end+0x6ffeefff>
80001c10:	00000013          	nop
80001c14:	f0000137          	lui	sp,0xf0000
80001c18:	00000013          	nop
80001c1c:	162ff263          	bgeu	t6,sp,80001d80 <fail>
80001c20:	00120213          	add	tp,tp,1 # 1 <_entry_offset+0x1>
80001c24:	00200293          	li	t0,2
80001c28:	fe5210e3          	bne	tp,t0,80001c08 <test_16+0x8>

80001c2c <test_17>:
80001c2c:	01100e13          	li	t3,17
80001c30:	00000213          	li	tp,0
80001c34:	f0000fb7          	lui	t6,0xf0000
80001c38:	ffff8f93          	add	t6,t6,-1 # efffffff <_end+0x6ffeefff>
80001c3c:	00000013          	nop
80001c40:	00000013          	nop
80001c44:	f0000137          	lui	sp,0xf0000
80001c48:	122ffc63          	bgeu	t6,sp,80001d80 <fail>
80001c4c:	00120213          	add	tp,tp,1 # 1 <_entry_offset+0x1>
80001c50:	00200293          	li	t0,2
80001c54:	fe5210e3          	bne	tp,t0,80001c34 <test_17+0x8>

80001c58 <test_18>:
80001c58:	01200e13          	li	t3,18
80001c5c:	00000213          	li	tp,0
80001c60:	f0000fb7          	lui	t6,0xf0000
80001c64:	ffff8f93          	add	t6,t6,-1 # efffffff <_end+0x6ffeefff>
80001c68:	f0000137          	lui	sp,0xf0000
80001c6c:	102ffa63          	bgeu	t6,sp,80001d80 <fail>
80001c70:	00120213          	add	tp,tp,1 # 1 <_entry_offset+0x1>
80001c74:	00200293          	li	t0,2
80001c78:	fe5214e3          	bne	tp,t0,80001c60 <test_18+0x8>

80001c7c <test_19>:
80001c7c:	01300e13          	li	t3,19
80001c80:	00000213          	li	tp,0
80001c84:	f0000fb7          	lui	t6,0xf0000
80001c88:	ffff8f93          	add	t6,t6,-1 # efffffff <_end+0x6ffeefff>
80001c8c:	f0000137          	lui	sp,0xf0000
80001c90:	00000013          	nop
80001c94:	0e2ff663          	bgeu	t6,sp,80001d80 <fail>
80001c98:	00120213          	add	tp,tp,1 # 1 <_entry_offset+0x1>
80001c9c:	00200293          	li	t0,2
80001ca0:	fe5212e3          	bne	tp,t0,80001c84 <test_19+0x8>

80001ca4 <test_20>:
80001ca4:	01400e13          	li	t3,20
80001ca8:	00000213          	li	tp,0
80001cac:	f0000fb7          	lui	t6,0xf0000
80001cb0:	ffff8f93          	add	t6,t6,-1 # efffffff <_end+0x6ffeefff>
80001cb4:	f0000137          	lui	sp,0xf0000
80001cb8:	00000013          	nop
80001cbc:	00000013          	nop
80001cc0:	0c2ff063          	bgeu	t6,sp,80001d80 <fail>
80001cc4:	00120213          	add	tp,tp,1 # 1 <_entry_offset+0x1>
80001cc8:	00200293          	li	t0,2
80001ccc:	fe5210e3          	bne	tp,t0,80001cac <test_20+0x8>

80001cd0 <test_21>:
80001cd0:	01500e13          	li	t3,21
80001cd4:	00000213          	li	tp,0
80001cd8:	f0000fb7          	lui	t6,0xf0000
80001cdc:	ffff8f93          	add	t6,t6,-1 # efffffff <_end+0x6ffeefff>
80001ce0:	00000013          	nop
80001ce4:	f0000137          	lui	sp,0xf0000
80001ce8:	082ffc63          	bgeu	t6,sp,80001d80 <fail>
80001cec:	00120213          	add	tp,tp,1 # 1 <_entry_offset+0x1>
80001cf0:	00200293          	li	t0,2
80001cf4:	fe5212e3          	bne	tp,t0,80001cd8 <test_21+0x8>

80001cf8 <test_22>:
80001cf8:	01600e13          	li	t3,22
80001cfc:	00000213          	li	tp,0
80001d00:	f0000fb7          	lui	t6,0xf0000
80001d04:	ffff8f93          	add	t6,t6,-1 # efffffff <_end+0x6ffeefff>
80001d08:	00000013          	nop
80001d0c:	f0000137          	lui	sp,0xf0000
80001d10:	00000013          	nop
80001d14:	062ff663          	bgeu	t6,sp,80001d80 <fail>
80001d18:	00120213          	add	tp,tp,1 # 1 <_entry_offset+0x1>
80001d1c:	00200293          	li	t0,2
80001d20:	fe5210e3          	bne	tp,t0,80001d00 <test_22+0x8>

80001d24 <test_23>:
80001d24:	01700e13          	li	t3,23
80001d28:	00000213          	li	tp,0
80001d2c:	f0000fb7          	lui	t6,0xf0000
80001d30:	ffff8f93          	add	t6,t6,-1 # efffffff <_end+0x6ffeefff>
80001d34:	00000013          	nop
80001d38:	00000013          	nop
80001d3c:	f0000137          	lui	sp,0xf0000
80001d40:	042ff063          	bgeu	t6,sp,80001d80 <fail>
80001d44:	00120213          	add	tp,tp,1 # 1 <_entry_offset+0x1>
80001d48:	00200293          	li	t0,2
80001d4c:	fe5210e3          	bne	tp,t0,80001d2c <test_23+0x8>

80001d50 <test_24>:
80001d50:	00100f93          	li	t6,1
80001d54:	000ffa63          	bgeu	t6,zero,80001d68 <test_24+0x18>
80001d58:	001f8f93          	add	t6,t6,1
80001d5c:	001f8f93          	add	t6,t6,1
80001d60:	001f8f93          	add	t6,t6,1
80001d64:	001f8f93          	add	t6,t6,1
80001d68:	001f8f93          	add	t6,t6,1
80001d6c:	001f8f93          	add	t6,t6,1
80001d70:	00300e93          	li	t4,3
80001d74:	01800e13          	li	t3,24
80001d78:	01df9463          	bne	t6,t4,80001d80 <fail>
80001d7c:	0100006f          	j	80001d8c <pass>

80001d80 <fail>:
80001d80:	fff00513          	li	a0,-1
80001d84:	00100073          	ebreak
80001d88:	ff9ff06f          	j	80001d80 <fail>

80001d8c <pass>:
80001d8c:	00000513          	li	a0,0
80001d90:	00008067          	ret

80001d94 <bltu>:
80001d94:	00200e13          	li	t3,2
80001d98:	00000f93          	li	t6,0
80001d9c:	00100113          	li	sp,1
80001da0:	002fe663          	bltu	t6,sp,80001dac <bltu+0x18>
80001da4:	2fc01263          	bne	zero,t3,80002088 <fail>
80001da8:	01c01663          	bne	zero,t3,80001db4 <test_3>
80001dac:	fe2feee3          	bltu	t6,sp,80001da8 <bltu+0x14>
80001db0:	2dc01c63          	bne	zero,t3,80002088 <fail>

80001db4 <test_3>:
80001db4:	00300e13          	li	t3,3
80001db8:	ffe00f93          	li	t6,-2
80001dbc:	fff00113          	li	sp,-1
80001dc0:	002fe663          	bltu	t6,sp,80001dcc <test_3+0x18>
80001dc4:	2dc01263          	bne	zero,t3,80002088 <fail>
80001dc8:	01c01663          	bne	zero,t3,80001dd4 <test_4>
80001dcc:	fe2feee3          	bltu	t6,sp,80001dc8 <test_3+0x14>
80001dd0:	2bc01c63          	bne	zero,t3,80002088 <fail>

80001dd4 <test_4>:
80001dd4:	00400e13          	li	t3,4
80001dd8:	00000f93          	li	t6,0
80001ddc:	fff00113          	li	sp,-1
80001de0:	002fe663          	bltu	t6,sp,80001dec <test_4+0x18>
80001de4:	2bc01263          	bne	zero,t3,80002088 <fail>
80001de8:	01c01663          	bne	zero,t3,80001df4 <test_5>
80001dec:	fe2feee3          	bltu	t6,sp,80001de8 <test_4+0x14>
80001df0:	29c01c63          	bne	zero,t3,80002088 <fail>

80001df4 <test_5>:
80001df4:	00500e13          	li	t3,5
80001df8:	00100f93          	li	t6,1
80001dfc:	00000113          	li	sp,0
80001e00:	002fe463          	bltu	t6,sp,80001e08 <test_5+0x14>
80001e04:	01c01463          	bne	zero,t3,80001e0c <test_5+0x18>
80001e08:	29c01063          	bne	zero,t3,80002088 <fail>
80001e0c:	fe2feee3          	bltu	t6,sp,80001e08 <test_5+0x14>

80001e10 <test_6>:
80001e10:	00600e13          	li	t3,6
80001e14:	fff00f93          	li	t6,-1
80001e18:	ffe00113          	li	sp,-2
80001e1c:	002fe463          	bltu	t6,sp,80001e24 <test_6+0x14>
80001e20:	01c01463          	bne	zero,t3,80001e28 <test_6+0x18>
80001e24:	27c01263          	bne	zero,t3,80002088 <fail>
80001e28:	fe2feee3          	bltu	t6,sp,80001e24 <test_6+0x14>

80001e2c <test_7>:
80001e2c:	00700e13          	li	t3,7
80001e30:	fff00f93          	li	t6,-1
80001e34:	00000113          	li	sp,0
80001e38:	002fe463          	bltu	t6,sp,80001e40 <test_7+0x14>
80001e3c:	01c01463          	bne	zero,t3,80001e44 <test_7+0x18>
80001e40:	25c01463          	bne	zero,t3,80002088 <fail>
80001e44:	fe2feee3          	bltu	t6,sp,80001e40 <test_7+0x14>

80001e48 <test_8>:
80001e48:	00800e13          	li	t3,8
80001e4c:	80000fb7          	lui	t6,0x80000
80001e50:	80000137          	lui	sp,0x80000
80001e54:	fff10113          	add	sp,sp,-1 # 7fffffff <_entry_offset+0x7fffffff>
80001e58:	002fe463          	bltu	t6,sp,80001e60 <test_8+0x18>
80001e5c:	01c01463          	bne	zero,t3,80001e64 <test_8+0x1c>
80001e60:	23c01463          	bne	zero,t3,80002088 <fail>
80001e64:	fe2feee3          	bltu	t6,sp,80001e60 <test_8+0x18>

80001e68 <test_9>:
80001e68:	00900e13          	li	t3,9
80001e6c:	00000213          	li	tp,0
80001e70:	f0000fb7          	lui	t6,0xf0000
80001e74:	f0000137          	lui	sp,0xf0000
80001e78:	fff10113          	add	sp,sp,-1 # efffffff <_end+0x6ffeefff>
80001e7c:	202fe663          	bltu	t6,sp,80002088 <fail>
80001e80:	00120213          	add	tp,tp,1 # 1 <_entry_offset+0x1>
80001e84:	00200293          	li	t0,2
80001e88:	fe5214e3          	bne	tp,t0,80001e70 <test_9+0x8>

80001e8c <test_10>:
80001e8c:	00a00e13          	li	t3,10
80001e90:	00000213          	li	tp,0
80001e94:	f0000fb7          	lui	t6,0xf0000
80001e98:	f0000137          	lui	sp,0xf0000
80001e9c:	fff10113          	add	sp,sp,-1 # efffffff <_end+0x6ffeefff>
80001ea0:	00000013          	nop
80001ea4:	1e2fe263          	bltu	t6,sp,80002088 <fail>
80001ea8:	00120213          	add	tp,tp,1 # 1 <_entry_offset+0x1>
80001eac:	00200293          	li	t0,2
80001eb0:	fe5212e3          	bne	tp,t0,80001e94 <test_10+0x8>

80001eb4 <test_11>:
80001eb4:	00b00e13          	li	t3,11
80001eb8:	00000213          	li	tp,0
80001ebc:	f0000fb7          	lui	t6,0xf0000
80001ec0:	f0000137          	lui	sp,0xf0000
80001ec4:	fff10113          	add	sp,sp,-1 # efffffff <_end+0x6ffeefff>
80001ec8:	00000013          	nop
80001ecc:	00000013          	nop
80001ed0:	1a2fec63          	bltu	t6,sp,80002088 <fail>
80001ed4:	00120213          	add	tp,tp,1 # 1 <_entry_offset+0x1>
80001ed8:	00200293          	li	t0,2
80001edc:	fe5210e3          	bne	tp,t0,80001ebc <test_11+0x8>

80001ee0 <test_12>:
80001ee0:	00c00e13          	li	t3,12
80001ee4:	00000213          	li	tp,0
80001ee8:	f0000fb7          	lui	t6,0xf0000
80001eec:	00000013          	nop
80001ef0:	f0000137          	lui	sp,0xf0000
80001ef4:	fff10113          	add	sp,sp,-1 # efffffff <_end+0x6ffeefff>
80001ef8:	182fe863          	bltu	t6,sp,80002088 <fail>
80001efc:	00120213          	add	tp,tp,1 # 1 <_entry_offset+0x1>
80001f00:	00200293          	li	t0,2
80001f04:	fe5212e3          	bne	tp,t0,80001ee8 <test_12+0x8>

80001f08 <test_13>:
80001f08:	00d00e13          	li	t3,13
80001f0c:	00000213          	li	tp,0
80001f10:	f0000fb7          	lui	t6,0xf0000
80001f14:	00000013          	nop
80001f18:	f0000137          	lui	sp,0xf0000
80001f1c:	fff10113          	add	sp,sp,-1 # efffffff <_end+0x6ffeefff>
80001f20:	00000013          	nop
80001f24:	162fe263          	bltu	t6,sp,80002088 <fail>
80001f28:	00120213          	add	tp,tp,1 # 1 <_entry_offset+0x1>
80001f2c:	00200293          	li	t0,2
80001f30:	fe5210e3          	bne	tp,t0,80001f10 <test_13+0x8>

80001f34 <test_14>:
80001f34:	00e00e13          	li	t3,14
80001f38:	00000213          	li	tp,0
80001f3c:	f0000fb7          	lui	t6,0xf0000
80001f40:	00000013          	nop
80001f44:	00000013          	nop
80001f48:	f0000137          	lui	sp,0xf0000
80001f4c:	fff10113          	add	sp,sp,-1 # efffffff <_end+0x6ffeefff>
80001f50:	122fec63          	bltu	t6,sp,80002088 <fail>
80001f54:	00120213          	add	tp,tp,1 # 1 <_entry_offset+0x1>
80001f58:	00200293          	li	t0,2
80001f5c:	fe5210e3          	bne	tp,t0,80001f3c <test_14+0x8>

80001f60 <test_15>:
80001f60:	00f00e13          	li	t3,15
80001f64:	00000213          	li	tp,0
80001f68:	f0000fb7          	lui	t6,0xf0000
80001f6c:	f0000137          	lui	sp,0xf0000
80001f70:	fff10113          	add	sp,sp,-1 # efffffff <_end+0x6ffeefff>
80001f74:	102fea63          	bltu	t6,sp,80002088 <fail>
80001f78:	00120213          	add	tp,tp,1 # 1 <_entry_offset+0x1>
80001f7c:	00200293          	li	t0,2
80001f80:	fe5214e3          	bne	tp,t0,80001f68 <test_15+0x8>

80001f84 <test_16>:
80001f84:	01000e13          	li	t3,16
80001f88:	00000213          	li	tp,0
80001f8c:	f0000fb7          	lui	t6,0xf0000
80001f90:	f0000137          	lui	sp,0xf0000
80001f94:	fff10113          	add	sp,sp,-1 # efffffff <_end+0x6ffeefff>
80001f98:	00000013          	nop
80001f9c:	0e2fe663          	bltu	t6,sp,80002088 <fail>
80001fa0:	00120213          	add	tp,tp,1 # 1 <_entry_offset+0x1>
80001fa4:	00200293          	li	t0,2
80001fa8:	fe5212e3          	bne	tp,t0,80001f8c <test_16+0x8>

80001fac <test_17>:
80001fac:	01100e13          	li	t3,17
80001fb0:	00000213          	li	tp,0
80001fb4:	f0000fb7          	lui	t6,0xf0000
80001fb8:	f0000137          	lui	sp,0xf0000
80001fbc:	fff10113          	add	sp,sp,-1 # efffffff <_end+0x6ffeefff>
80001fc0:	00000013          	nop
80001fc4:	00000013          	nop
80001fc8:	0c2fe063          	bltu	t6,sp,80002088 <fail>
80001fcc:	00120213          	add	tp,tp,1 # 1 <_entry_offset+0x1>
80001fd0:	00200293          	li	t0,2
80001fd4:	fe5210e3          	bne	tp,t0,80001fb4 <test_17+0x8>

80001fd8 <test_18>:
80001fd8:	01200e13          	li	t3,18
80001fdc:	00000213          	li	tp,0
80001fe0:	f0000fb7          	lui	t6,0xf0000
80001fe4:	00000013          	nop
80001fe8:	f0000137          	lui	sp,0xf0000
80001fec:	fff10113          	add	sp,sp,-1 # efffffff <_end+0x6ffeefff>
80001ff0:	082fec63          	bltu	t6,sp,80002088 <fail>
80001ff4:	00120213          	add	tp,tp,1 # 1 <_entry_offset+0x1>
80001ff8:	00200293          	li	t0,2
80001ffc:	fe5212e3          	bne	tp,t0,80001fe0 <test_18+0x8>

80002000 <test_19>:
80002000:	01300e13          	li	t3,19
80002004:	00000213          	li	tp,0
80002008:	f0000fb7          	lui	t6,0xf0000
8000200c:	00000013          	nop
80002010:	f0000137          	lui	sp,0xf0000
80002014:	fff10113          	add	sp,sp,-1 # efffffff <_end+0x6ffeefff>
80002018:	00000013          	nop
8000201c:	062fe663          	bltu	t6,sp,80002088 <fail>
80002020:	00120213          	add	tp,tp,1 # 1 <_entry_offset+0x1>
80002024:	00200293          	li	t0,2
80002028:	fe5210e3          	bne	tp,t0,80002008 <test_19+0x8>

8000202c <test_20>:
8000202c:	01400e13          	li	t3,20
80002030:	00000213          	li	tp,0
80002034:	f0000fb7          	lui	t6,0xf0000
80002038:	00000013          	nop
8000203c:	00000013          	nop
80002040:	f0000137          	lui	sp,0xf0000
80002044:	fff10113          	add	sp,sp,-1 # efffffff <_end+0x6ffeefff>
80002048:	042fe063          	bltu	t6,sp,80002088 <fail>
8000204c:	00120213          	add	tp,tp,1 # 1 <_entry_offset+0x1>
80002050:	00200293          	li	t0,2
80002054:	fe5210e3          	bne	tp,t0,80002034 <test_20+0x8>

80002058 <test_21>:
80002058:	00100f93          	li	t6,1
8000205c:	01f06a63          	bltu	zero,t6,80002070 <test_21+0x18>
80002060:	001f8f93          	add	t6,t6,1 # f0000001 <_end+0x6ffef001>
80002064:	001f8f93          	add	t6,t6,1
80002068:	001f8f93          	add	t6,t6,1
8000206c:	001f8f93          	add	t6,t6,1
80002070:	001f8f93          	add	t6,t6,1
80002074:	001f8f93          	add	t6,t6,1
80002078:	00300e93          	li	t4,3
8000207c:	01500e13          	li	t3,21
80002080:	01df9463          	bne	t6,t4,80002088 <fail>
80002084:	0100006f          	j	80002094 <pass>

80002088 <fail>:
80002088:	fff00513          	li	a0,-1
8000208c:	00100073          	ebreak
80002090:	ff9ff06f          	j	80002088 <fail>

80002094 <pass>:
80002094:	00000513          	li	a0,0
80002098:	00008067          	ret

8000209c <remu>:
8000209c:	01400f93          	li	t6,20
800020a0:	00600113          	li	sp,6
800020a4:	022ff1b3          	remu	gp,t6,sp
800020a8:	00200e93          	li	t4,2
800020ac:	00200e13          	li	t3,2
800020b0:	0dd19463          	bne	gp,t4,80002178 <fail>

800020b4 <test_3>:
800020b4:	fec00f93          	li	t6,-20
800020b8:	00600113          	li	sp,6
800020bc:	022ff1b3          	remu	gp,t6,sp
800020c0:	00200e93          	li	t4,2
800020c4:	00300e13          	li	t3,3
800020c8:	0bd19863          	bne	gp,t4,80002178 <fail>

800020cc <test_4>:
800020cc:	01400f93          	li	t6,20
800020d0:	ffa00113          	li	sp,-6
800020d4:	022ff1b3          	remu	gp,t6,sp
800020d8:	01400e93          	li	t4,20
800020dc:	00400e13          	li	t3,4
800020e0:	09d19c63          	bne	gp,t4,80002178 <fail>

800020e4 <test_5>:
800020e4:	fec00f93          	li	t6,-20
800020e8:	ffa00113          	li	sp,-6
800020ec:	022ff1b3          	remu	gp,t6,sp
800020f0:	fec00e93          	li	t4,-20
800020f4:	00500e13          	li	t3,5
800020f8:	09d19063          	bne	gp,t4,80002178 <fail>

800020fc <test_6>:
800020fc:	80000fb7          	lui	t6,0x80000
80002100:	00100113          	li	sp,1
80002104:	022ff1b3          	remu	gp,t6,sp
80002108:	00000e93          	li	t4,0
8000210c:	00600e13          	li	t3,6
80002110:	07d19463          	bne	gp,t4,80002178 <fail>

80002114 <test_7>:
80002114:	80000fb7          	lui	t6,0x80000
80002118:	fff00113          	li	sp,-1
8000211c:	022ff1b3          	remu	gp,t6,sp
80002120:	80000eb7          	lui	t4,0x80000
80002124:	00700e13          	li	t3,7
80002128:	05d19863          	bne	gp,t4,80002178 <fail>

8000212c <test_8>:
8000212c:	80000fb7          	lui	t6,0x80000
80002130:	00000113          	li	sp,0
80002134:	022ff1b3          	remu	gp,t6,sp
80002138:	80000eb7          	lui	t4,0x80000
8000213c:	00800e13          	li	t3,8
80002140:	03d19c63          	bne	gp,t4,80002178 <fail>

80002144 <test_9>:
80002144:	00100f93          	li	t6,1
80002148:	00000113          	li	sp,0
8000214c:	022ff1b3          	remu	gp,t6,sp
80002150:	00100e93          	li	t4,1
80002154:	00900e13          	li	t3,9
80002158:	03d19063          	bne	gp,t4,80002178 <fail>

8000215c <test_10>:
8000215c:	00000f93          	li	t6,0
80002160:	00000113          	li	sp,0
80002164:	022ff1b3          	remu	gp,t6,sp
80002168:	00000e93          	li	t4,0
8000216c:	00a00e13          	li	t3,10
80002170:	01d19463          	bne	gp,t4,80002178 <fail>
80002174:	0100006f          	j	80002184 <pass>

80002178 <fail>:
80002178:	fff00513          	li	a0,-1
8000217c:	00100073          	ebreak
80002180:	ff9ff06f          	j	80002178 <fail>

80002184 <pass>:
80002184:	00000513          	li	a0,0
80002188:	00008067          	ret

8000218c <srl>:
8000218c:	ffff8fb7          	lui	t6,0xffff8
80002190:	00000113          	li	sp,0
80002194:	002fd1b3          	srl	gp,t6,sp
80002198:	ffff8eb7          	lui	t4,0xffff8
8000219c:	00200e13          	li	t3,2
800021a0:	5bd19463          	bne	gp,t4,80002748 <fail>

800021a4 <test_3>:
800021a4:	ffff8fb7          	lui	t6,0xffff8
800021a8:	00100113          	li	sp,1
800021ac:	002fd1b3          	srl	gp,t6,sp
800021b0:	7fffceb7          	lui	t4,0x7fffc
800021b4:	00300e13          	li	t3,3
800021b8:	59d19863          	bne	gp,t4,80002748 <fail>

800021bc <test_4>:
800021bc:	ffff8fb7          	lui	t6,0xffff8
800021c0:	00700113          	li	sp,7
800021c4:	002fd1b3          	srl	gp,t6,sp
800021c8:	02000eb7          	lui	t4,0x2000
800021cc:	f00e8e93          	add	t4,t4,-256 # 1ffff00 <_entry_offset+0x1ffff00>
800021d0:	00400e13          	li	t3,4
800021d4:	57d19a63          	bne	gp,t4,80002748 <fail>

800021d8 <test_5>:
800021d8:	ffff8fb7          	lui	t6,0xffff8
800021dc:	00e00113          	li	sp,14
800021e0:	002fd1b3          	srl	gp,t6,sp
800021e4:	00040eb7          	lui	t4,0x40
800021e8:	ffee8e93          	add	t4,t4,-2 # 3fffe <_entry_offset+0x3fffe>
800021ec:	00500e13          	li	t3,5
800021f0:	55d19c63          	bne	gp,t4,80002748 <fail>

800021f4 <test_6>:
800021f4:	ffff8fb7          	lui	t6,0xffff8
800021f8:	001f8f93          	add	t6,t6,1 # ffff8001 <_end+0x7ffe7001>
800021fc:	00f00113          	li	sp,15
80002200:	002fd1b3          	srl	gp,t6,sp
80002204:	00020eb7          	lui	t4,0x20
80002208:	fffe8e93          	add	t4,t4,-1 # 1ffff <_entry_offset+0x1ffff>
8000220c:	00600e13          	li	t3,6
80002210:	53d19c63          	bne	gp,t4,80002748 <fail>

80002214 <test_7>:
80002214:	fff00f93          	li	t6,-1
80002218:	00000113          	li	sp,0
8000221c:	002fd1b3          	srl	gp,t6,sp
80002220:	fff00e93          	li	t4,-1
80002224:	00700e13          	li	t3,7
80002228:	53d19063          	bne	gp,t4,80002748 <fail>

8000222c <test_8>:
8000222c:	fff00f93          	li	t6,-1
80002230:	00100113          	li	sp,1
80002234:	002fd1b3          	srl	gp,t6,sp
80002238:	80000eb7          	lui	t4,0x80000
8000223c:	fffe8e93          	add	t4,t4,-1 # 7fffffff <_entry_offset+0x7fffffff>
80002240:	00800e13          	li	t3,8
80002244:	51d19263          	bne	gp,t4,80002748 <fail>

80002248 <test_9>:
80002248:	fff00f93          	li	t6,-1
8000224c:	00700113          	li	sp,7
80002250:	002fd1b3          	srl	gp,t6,sp
80002254:	02000eb7          	lui	t4,0x2000
80002258:	fffe8e93          	add	t4,t4,-1 # 1ffffff <_entry_offset+0x1ffffff>
8000225c:	00900e13          	li	t3,9
80002260:	4fd19463          	bne	gp,t4,80002748 <fail>

80002264 <test_10>:
80002264:	fff00f93          	li	t6,-1
80002268:	00e00113          	li	sp,14
8000226c:	002fd1b3          	srl	gp,t6,sp
80002270:	00040eb7          	lui	t4,0x40
80002274:	fffe8e93          	add	t4,t4,-1 # 3ffff <_entry_offset+0x3ffff>
80002278:	00a00e13          	li	t3,10
8000227c:	4dd19663          	bne	gp,t4,80002748 <fail>

80002280 <test_11>:
80002280:	fff00f93          	li	t6,-1
80002284:	01f00113          	li	sp,31
80002288:	002fd1b3          	srl	gp,t6,sp
8000228c:	00100e93          	li	t4,1
80002290:	00b00e13          	li	t3,11
80002294:	4bd19a63          	bne	gp,t4,80002748 <fail>

80002298 <test_12>:
80002298:	21212fb7          	lui	t6,0x21212
8000229c:	121f8f93          	add	t6,t6,289 # 21212121 <_entry_offset+0x21212121>
800022a0:	00000113          	li	sp,0
800022a4:	002fd1b3          	srl	gp,t6,sp
800022a8:	21212eb7          	lui	t4,0x21212
800022ac:	121e8e93          	add	t4,t4,289 # 21212121 <_entry_offset+0x21212121>
800022b0:	00c00e13          	li	t3,12
800022b4:	49d19a63          	bne	gp,t4,80002748 <fail>

800022b8 <test_13>:
800022b8:	21212fb7          	lui	t6,0x21212
800022bc:	121f8f93          	add	t6,t6,289 # 21212121 <_entry_offset+0x21212121>
800022c0:	00100113          	li	sp,1
800022c4:	002fd1b3          	srl	gp,t6,sp
800022c8:	10909eb7          	lui	t4,0x10909
800022cc:	090e8e93          	add	t4,t4,144 # 10909090 <_entry_offset+0x10909090>
800022d0:	00d00e13          	li	t3,13
800022d4:	47d19a63          	bne	gp,t4,80002748 <fail>

800022d8 <test_14>:
800022d8:	21212fb7          	lui	t6,0x21212
800022dc:	121f8f93          	add	t6,t6,289 # 21212121 <_entry_offset+0x21212121>
800022e0:	00700113          	li	sp,7
800022e4:	002fd1b3          	srl	gp,t6,sp
800022e8:	00424eb7          	lui	t4,0x424
800022ec:	242e8e93          	add	t4,t4,578 # 424242 <_entry_offset+0x424242>
800022f0:	00e00e13          	li	t3,14
800022f4:	45d19a63          	bne	gp,t4,80002748 <fail>

800022f8 <test_15>:
800022f8:	21212fb7          	lui	t6,0x21212
800022fc:	121f8f93          	add	t6,t6,289 # 21212121 <_entry_offset+0x21212121>
80002300:	00e00113          	li	sp,14
80002304:	002fd1b3          	srl	gp,t6,sp
80002308:	00008eb7          	lui	t4,0x8
8000230c:	484e8e93          	add	t4,t4,1156 # 8484 <_entry_offset+0x8484>
80002310:	00f00e13          	li	t3,15
80002314:	43d19a63          	bne	gp,t4,80002748 <fail>

80002318 <test_16>:
80002318:	21212fb7          	lui	t6,0x21212
8000231c:	121f8f93          	add	t6,t6,289 # 21212121 <_entry_offset+0x21212121>
80002320:	01f00113          	li	sp,31
80002324:	002fd1b3          	srl	gp,t6,sp
80002328:	00000e93          	li	t4,0
8000232c:	01000e13          	li	t3,16
80002330:	41d19c63          	bne	gp,t4,80002748 <fail>

80002334 <test_17>:
80002334:	21212fb7          	lui	t6,0x21212
80002338:	121f8f93          	add	t6,t6,289 # 21212121 <_entry_offset+0x21212121>
8000233c:	fe000113          	li	sp,-32
80002340:	002fd1b3          	srl	gp,t6,sp
80002344:	21212eb7          	lui	t4,0x21212
80002348:	121e8e93          	add	t4,t4,289 # 21212121 <_entry_offset+0x21212121>
8000234c:	01100e13          	li	t3,17
80002350:	3fd19c63          	bne	gp,t4,80002748 <fail>

80002354 <test_18>:
80002354:	21212fb7          	lui	t6,0x21212
80002358:	121f8f93          	add	t6,t6,289 # 21212121 <_entry_offset+0x21212121>
8000235c:	fe100113          	li	sp,-31
80002360:	002fd1b3          	srl	gp,t6,sp
80002364:	10909eb7          	lui	t4,0x10909
80002368:	090e8e93          	add	t4,t4,144 # 10909090 <_entry_offset+0x10909090>
8000236c:	01200e13          	li	t3,18
80002370:	3dd19c63          	bne	gp,t4,80002748 <fail>

80002374 <test_19>:
80002374:	21212fb7          	lui	t6,0x21212
80002378:	121f8f93          	add	t6,t6,289 # 21212121 <_entry_offset+0x21212121>
8000237c:	fe700113          	li	sp,-25
80002380:	002fd1b3          	srl	gp,t6,sp
80002384:	00424eb7          	lui	t4,0x424
80002388:	242e8e93          	add	t4,t4,578 # 424242 <_entry_offset+0x424242>
8000238c:	01300e13          	li	t3,19
80002390:	3bd19c63          	bne	gp,t4,80002748 <fail>

80002394 <test_20>:
80002394:	21212fb7          	lui	t6,0x21212
80002398:	121f8f93          	add	t6,t6,289 # 21212121 <_entry_offset+0x21212121>
8000239c:	fee00113          	li	sp,-18
800023a0:	002fd1b3          	srl	gp,t6,sp
800023a4:	00008eb7          	lui	t4,0x8
800023a8:	484e8e93          	add	t4,t4,1156 # 8484 <_entry_offset+0x8484>
800023ac:	01400e13          	li	t3,20
800023b0:	39d19c63          	bne	gp,t4,80002748 <fail>

800023b4 <test_21>:
800023b4:	21212fb7          	lui	t6,0x21212
800023b8:	121f8f93          	add	t6,t6,289 # 21212121 <_entry_offset+0x21212121>
800023bc:	fff00113          	li	sp,-1
800023c0:	002fd1b3          	srl	gp,t6,sp
800023c4:	00000e93          	li	t4,0
800023c8:	01500e13          	li	t3,21
800023cc:	37d19e63          	bne	gp,t4,80002748 <fail>

800023d0 <test_22>:
800023d0:	ffff8fb7          	lui	t6,0xffff8
800023d4:	00100113          	li	sp,1
800023d8:	002fdfb3          	srl	t6,t6,sp
800023dc:	7fffceb7          	lui	t4,0x7fffc
800023e0:	01600e13          	li	t3,22
800023e4:	37df9263          	bne	t6,t4,80002748 <fail>

800023e8 <test_23>:
800023e8:	ffff8fb7          	lui	t6,0xffff8
800023ec:	00e00113          	li	sp,14
800023f0:	002fd133          	srl	sp,t6,sp
800023f4:	00040eb7          	lui	t4,0x40
800023f8:	ffee8e93          	add	t4,t4,-2 # 3fffe <_entry_offset+0x3fffe>
800023fc:	01700e13          	li	t3,23
80002400:	35d11463          	bne	sp,t4,80002748 <fail>

80002404 <test_24>:
80002404:	00700f93          	li	t6,7
80002408:	01ffdfb3          	srl	t6,t6,t6
8000240c:	00000e93          	li	t4,0
80002410:	01800e13          	li	t3,24
80002414:	33df9a63          	bne	t6,t4,80002748 <fail>

80002418 <test_25>:
80002418:	00000213          	li	tp,0
8000241c:	ffff8fb7          	lui	t6,0xffff8
80002420:	00100113          	li	sp,1
80002424:	002fd1b3          	srl	gp,t6,sp
80002428:	00018313          	mv	t1,gp
8000242c:	00120213          	add	tp,tp,1 # 1 <_entry_offset+0x1>
80002430:	00200293          	li	t0,2
80002434:	fe5214e3          	bne	tp,t0,8000241c <test_25+0x4>
80002438:	7fffceb7          	lui	t4,0x7fffc
8000243c:	01900e13          	li	t3,25
80002440:	31d31463          	bne	t1,t4,80002748 <fail>

80002444 <test_26>:
80002444:	00000213          	li	tp,0
80002448:	ffff8fb7          	lui	t6,0xffff8
8000244c:	00e00113          	li	sp,14
80002450:	002fd1b3          	srl	gp,t6,sp
80002454:	00000013          	nop
80002458:	00018313          	mv	t1,gp
8000245c:	00120213          	add	tp,tp,1 # 1 <_entry_offset+0x1>
80002460:	00200293          	li	t0,2
80002464:	fe5212e3          	bne	tp,t0,80002448 <test_26+0x4>
80002468:	00040eb7          	lui	t4,0x40
8000246c:	ffee8e93          	add	t4,t4,-2 # 3fffe <_entry_offset+0x3fffe>
80002470:	01a00e13          	li	t3,26
80002474:	2dd31a63          	bne	t1,t4,80002748 <fail>

80002478 <test_27>:
80002478:	00000213          	li	tp,0
8000247c:	ffff8fb7          	lui	t6,0xffff8
80002480:	00f00113          	li	sp,15
80002484:	002fd1b3          	srl	gp,t6,sp
80002488:	00000013          	nop
8000248c:	00000013          	nop
80002490:	00018313          	mv	t1,gp
80002494:	00120213          	add	tp,tp,1 # 1 <_entry_offset+0x1>
80002498:	00200293          	li	t0,2
8000249c:	fe5210e3          	bne	tp,t0,8000247c <test_27+0x4>
800024a0:	00020eb7          	lui	t4,0x20
800024a4:	fffe8e93          	add	t4,t4,-1 # 1ffff <_entry_offset+0x1ffff>
800024a8:	01b00e13          	li	t3,27
800024ac:	29d31e63          	bne	t1,t4,80002748 <fail>

800024b0 <test_28>:
800024b0:	00000213          	li	tp,0
800024b4:	ffff8fb7          	lui	t6,0xffff8
800024b8:	00100113          	li	sp,1
800024bc:	002fd1b3          	srl	gp,t6,sp
800024c0:	00120213          	add	tp,tp,1 # 1 <_entry_offset+0x1>
800024c4:	00200293          	li	t0,2
800024c8:	fe5216e3          	bne	tp,t0,800024b4 <test_28+0x4>
800024cc:	7fffceb7          	lui	t4,0x7fffc
800024d0:	01c00e13          	li	t3,28
800024d4:	27d19a63          	bne	gp,t4,80002748 <fail>

800024d8 <test_29>:
800024d8:	00000213          	li	tp,0
800024dc:	ffff8fb7          	lui	t6,0xffff8
800024e0:	00700113          	li	sp,7
800024e4:	00000013          	nop
800024e8:	002fd1b3          	srl	gp,t6,sp
800024ec:	00120213          	add	tp,tp,1 # 1 <_entry_offset+0x1>
800024f0:	00200293          	li	t0,2
800024f4:	fe5214e3          	bne	tp,t0,800024dc <test_29+0x4>
800024f8:	02000eb7          	lui	t4,0x2000
800024fc:	f00e8e93          	add	t4,t4,-256 # 1ffff00 <_entry_offset+0x1ffff00>
80002500:	01d00e13          	li	t3,29
80002504:	25d19263          	bne	gp,t4,80002748 <fail>

80002508 <test_30>:
80002508:	00000213          	li	tp,0
8000250c:	ffff8fb7          	lui	t6,0xffff8
80002510:	00f00113          	li	sp,15
80002514:	00000013          	nop
80002518:	00000013          	nop
8000251c:	002fd1b3          	srl	gp,t6,sp
80002520:	00120213          	add	tp,tp,1 # 1 <_entry_offset+0x1>
80002524:	00200293          	li	t0,2
80002528:	fe5212e3          	bne	tp,t0,8000250c <test_30+0x4>
8000252c:	00020eb7          	lui	t4,0x20
80002530:	fffe8e93          	add	t4,t4,-1 # 1ffff <_entry_offset+0x1ffff>
80002534:	01e00e13          	li	t3,30
80002538:	21d19863          	bne	gp,t4,80002748 <fail>

8000253c <test_31>:
8000253c:	00000213          	li	tp,0
80002540:	ffff8fb7          	lui	t6,0xffff8
80002544:	00000013          	nop
80002548:	00100113          	li	sp,1
8000254c:	002fd1b3          	srl	gp,t6,sp
80002550:	00120213          	add	tp,tp,1 # 1 <_entry_offset+0x1>
80002554:	00200293          	li	t0,2
80002558:	fe5214e3          	bne	tp,t0,80002540 <test_31+0x4>
8000255c:	7fffceb7          	lui	t4,0x7fffc
80002560:	01f00e13          	li	t3,31
80002564:	1fd19263          	bne	gp,t4,80002748 <fail>

80002568 <test_32>:
80002568:	00000213          	li	tp,0
8000256c:	ffff8fb7          	lui	t6,0xffff8
80002570:	00000013          	nop
80002574:	00700113          	li	sp,7
80002578:	00000013          	nop
8000257c:	002fd1b3          	srl	gp,t6,sp
80002580:	00120213          	add	tp,tp,1 # 1 <_entry_offset+0x1>
80002584:	00200293          	li	t0,2
80002588:	fe5212e3          	bne	tp,t0,8000256c <test_32+0x4>
8000258c:	02000eb7          	lui	t4,0x2000
80002590:	f00e8e93          	add	t4,t4,-256 # 1ffff00 <_entry_offset+0x1ffff00>
80002594:	02000e13          	li	t3,32
80002598:	1bd19863          	bne	gp,t4,80002748 <fail>

8000259c <test_33>:
8000259c:	00000213          	li	tp,0
800025a0:	ffff8fb7          	lui	t6,0xffff8
800025a4:	00000013          	nop
800025a8:	00000013          	nop
800025ac:	00f00113          	li	sp,15
800025b0:	002fd1b3          	srl	gp,t6,sp
800025b4:	00120213          	add	tp,tp,1 # 1 <_entry_offset+0x1>
800025b8:	00200293          	li	t0,2
800025bc:	fe5212e3          	bne	tp,t0,800025a0 <test_33+0x4>
800025c0:	00020eb7          	lui	t4,0x20
800025c4:	fffe8e93          	add	t4,t4,-1 # 1ffff <_entry_offset+0x1ffff>
800025c8:	02100e13          	li	t3,33
800025cc:	17d19e63          	bne	gp,t4,80002748 <fail>

800025d0 <test_34>:
800025d0:	00000213          	li	tp,0
800025d4:	00100113          	li	sp,1
800025d8:	ffff8fb7          	lui	t6,0xffff8
800025dc:	002fd1b3          	srl	gp,t6,sp
800025e0:	00120213          	add	tp,tp,1 # 1 <_entry_offset+0x1>
800025e4:	00200293          	li	t0,2
800025e8:	fe5216e3          	bne	tp,t0,800025d4 <test_34+0x4>
800025ec:	7fffceb7          	lui	t4,0x7fffc
800025f0:	02200e13          	li	t3,34
800025f4:	15d19a63          	bne	gp,t4,80002748 <fail>

800025f8 <test_35>:
800025f8:	00000213          	li	tp,0
800025fc:	00700113          	li	sp,7
80002600:	ffff8fb7          	lui	t6,0xffff8
80002604:	00000013          	nop
80002608:	002fd1b3          	srl	gp,t6,sp
8000260c:	00120213          	add	tp,tp,1 # 1 <_entry_offset+0x1>
80002610:	00200293          	li	t0,2
80002614:	fe5214e3          	bne	tp,t0,800025fc <test_35+0x4>
80002618:	02000eb7          	lui	t4,0x2000
8000261c:	f00e8e93          	add	t4,t4,-256 # 1ffff00 <_entry_offset+0x1ffff00>
80002620:	02300e13          	li	t3,35
80002624:	13d19263          	bne	gp,t4,80002748 <fail>

80002628 <test_36>:
80002628:	00000213          	li	tp,0
8000262c:	00f00113          	li	sp,15
80002630:	ffff8fb7          	lui	t6,0xffff8
80002634:	00000013          	nop
80002638:	00000013          	nop
8000263c:	002fd1b3          	srl	gp,t6,sp
80002640:	00120213          	add	tp,tp,1 # 1 <_entry_offset+0x1>
80002644:	00200293          	li	t0,2
80002648:	fe5212e3          	bne	tp,t0,8000262c <test_36+0x4>
8000264c:	00020eb7          	lui	t4,0x20
80002650:	fffe8e93          	add	t4,t4,-1 # 1ffff <_entry_offset+0x1ffff>
80002654:	02400e13          	li	t3,36
80002658:	0fd19863          	bne	gp,t4,80002748 <fail>

8000265c <test_37>:
8000265c:	00000213          	li	tp,0
80002660:	00100113          	li	sp,1
80002664:	00000013          	nop
80002668:	ffff8fb7          	lui	t6,0xffff8
8000266c:	002fd1b3          	srl	gp,t6,sp
80002670:	00120213          	add	tp,tp,1 # 1 <_entry_offset+0x1>
80002674:	00200293          	li	t0,2
80002678:	fe5214e3          	bne	tp,t0,80002660 <test_37+0x4>
8000267c:	7fffceb7          	lui	t4,0x7fffc
80002680:	02500e13          	li	t3,37
80002684:	0dd19263          	bne	gp,t4,80002748 <fail>

80002688 <test_38>:
80002688:	00000213          	li	tp,0
8000268c:	00700113          	li	sp,7
80002690:	00000013          	nop
80002694:	ffff8fb7          	lui	t6,0xffff8
80002698:	00000013          	nop
8000269c:	002fd1b3          	srl	gp,t6,sp
800026a0:	00120213          	add	tp,tp,1 # 1 <_entry_offset+0x1>
800026a4:	00200293          	li	t0,2
800026a8:	fe5212e3          	bne	tp,t0,8000268c <test_38+0x4>
800026ac:	02000eb7          	lui	t4,0x2000
800026b0:	f00e8e93          	add	t4,t4,-256 # 1ffff00 <_entry_offset+0x1ffff00>
800026b4:	02600e13          	li	t3,38
800026b8:	09d19863          	bne	gp,t4,80002748 <fail>

800026bc <test_39>:
800026bc:	00000213          	li	tp,0
800026c0:	00f00113          	li	sp,15
800026c4:	00000013          	nop
800026c8:	00000013          	nop
800026cc:	ffff8fb7          	lui	t6,0xffff8
800026d0:	002fd1b3          	srl	gp,t6,sp
800026d4:	00120213          	add	tp,tp,1 # 1 <_entry_offset+0x1>
800026d8:	00200293          	li	t0,2
800026dc:	fe5212e3          	bne	tp,t0,800026c0 <test_39+0x4>
800026e0:	00020eb7          	lui	t4,0x20
800026e4:	fffe8e93          	add	t4,t4,-1 # 1ffff <_entry_offset+0x1ffff>
800026e8:	02700e13          	li	t3,39
800026ec:	05d19e63          	bne	gp,t4,80002748 <fail>

800026f0 <test_40>:
800026f0:	00f00f93          	li	t6,15
800026f4:	01f05133          	srl	sp,zero,t6
800026f8:	00000e93          	li	t4,0
800026fc:	02800e13          	li	t3,40
80002700:	05d11463          	bne	sp,t4,80002748 <fail>

80002704 <test_41>:
80002704:	02000f93          	li	t6,32
80002708:	000fd133          	srl	sp,t6,zero
8000270c:	02000e93          	li	t4,32
80002710:	02900e13          	li	t3,41
80002714:	03d11a63          	bne	sp,t4,80002748 <fail>

80002718 <test_42>:
80002718:	00005fb3          	srl	t6,zero,zero
8000271c:	00000e93          	li	t4,0
80002720:	02a00e13          	li	t3,42
80002724:	03df9263          	bne	t6,t4,80002748 <fail>

80002728 <test_43>:
80002728:	40000f93          	li	t6,1024
8000272c:	00001137          	lui	sp,0x1
80002730:	80010113          	add	sp,sp,-2048 # 800 <_entry_offset+0x800>
80002734:	002fd033          	srl	zero,t6,sp
80002738:	00000e93          	li	t4,0
8000273c:	02b00e13          	li	t3,43
80002740:	01d01463          	bne	zero,t4,80002748 <fail>
80002744:	0100006f          	j	80002754 <pass>

80002748 <fail>:
80002748:	fff00513          	li	a0,-1
8000274c:	00100073          	ebreak
80002750:	ff9ff06f          	j	80002748 <fail>

80002754 <pass>:
80002754:	00000513          	li	a0,0
80002758:	00008067          	ret

8000275c <lb>:
8000275c:	00006f97          	auipc	t6,0x6
80002760:	08cf8f93          	add	t6,t6,140 # 800087e8 <tdat>
80002764:	000f8183          	lb	gp,0(t6)
80002768:	fff00e93          	li	t4,-1
8000276c:	00200e13          	li	t3,2
80002770:	23d19c63          	bne	gp,t4,800029a8 <fail>

80002774 <test_3>:
80002774:	00006f97          	auipc	t6,0x6
80002778:	074f8f93          	add	t6,t6,116 # 800087e8 <tdat>
8000277c:	001f8183          	lb	gp,1(t6)
80002780:	00000e93          	li	t4,0
80002784:	00300e13          	li	t3,3
80002788:	23d19063          	bne	gp,t4,800029a8 <fail>

8000278c <test_4>:
8000278c:	00006f97          	auipc	t6,0x6
80002790:	05cf8f93          	add	t6,t6,92 # 800087e8 <tdat>
80002794:	002f8183          	lb	gp,2(t6)
80002798:	ff000e93          	li	t4,-16
8000279c:	00400e13          	li	t3,4
800027a0:	21d19463          	bne	gp,t4,800029a8 <fail>

800027a4 <test_5>:
800027a4:	00006f97          	auipc	t6,0x6
800027a8:	044f8f93          	add	t6,t6,68 # 800087e8 <tdat>
800027ac:	003f8183          	lb	gp,3(t6)
800027b0:	00f00e93          	li	t4,15
800027b4:	00500e13          	li	t3,5
800027b8:	1fd19863          	bne	gp,t4,800029a8 <fail>

800027bc <test_6>:
800027bc:	00006f97          	auipc	t6,0x6
800027c0:	02ff8f93          	add	t6,t6,47 # 800087eb <tdat4>
800027c4:	ffdf8183          	lb	gp,-3(t6)
800027c8:	fff00e93          	li	t4,-1
800027cc:	00600e13          	li	t3,6
800027d0:	1dd19c63          	bne	gp,t4,800029a8 <fail>

800027d4 <test_7>:
800027d4:	00006f97          	auipc	t6,0x6
800027d8:	017f8f93          	add	t6,t6,23 # 800087eb <tdat4>
800027dc:	ffef8183          	lb	gp,-2(t6)
800027e0:	00000e93          	li	t4,0
800027e4:	00700e13          	li	t3,7
800027e8:	1dd19063          	bne	gp,t4,800029a8 <fail>

800027ec <test_8>:
800027ec:	00006f97          	auipc	t6,0x6
800027f0:	ffff8f93          	add	t6,t6,-1 # 800087eb <tdat4>
800027f4:	ffff8183          	lb	gp,-1(t6)
800027f8:	ff000e93          	li	t4,-16
800027fc:	00800e13          	li	t3,8
80002800:	1bd19463          	bne	gp,t4,800029a8 <fail>

80002804 <test_9>:
80002804:	00006f97          	auipc	t6,0x6
80002808:	fe7f8f93          	add	t6,t6,-25 # 800087eb <tdat4>
8000280c:	000f8183          	lb	gp,0(t6)
80002810:	00f00e93          	li	t4,15
80002814:	00900e13          	li	t3,9
80002818:	19d19863          	bne	gp,t4,800029a8 <fail>

8000281c <test_10>:
8000281c:	00006f97          	auipc	t6,0x6
80002820:	fccf8f93          	add	t6,t6,-52 # 800087e8 <tdat>
80002824:	fe0f8f93          	add	t6,t6,-32
80002828:	020f8183          	lb	gp,32(t6)
8000282c:	fff00e93          	li	t4,-1
80002830:	00a00e13          	li	t3,10
80002834:	17d19a63          	bne	gp,t4,800029a8 <fail>

80002838 <test_11>:
80002838:	00006f97          	auipc	t6,0x6
8000283c:	fb0f8f93          	add	t6,t6,-80 # 800087e8 <tdat>
80002840:	ffaf8f93          	add	t6,t6,-6
80002844:	007f8183          	lb	gp,7(t6)
80002848:	00000e93          	li	t4,0
8000284c:	00b00e13          	li	t3,11
80002850:	15d19c63          	bne	gp,t4,800029a8 <fail>

80002854 <test_12>:
80002854:	00c00e13          	li	t3,12
80002858:	00000213          	li	tp,0
8000285c:	00006f97          	auipc	t6,0x6
80002860:	f8df8f93          	add	t6,t6,-115 # 800087e9 <tdat2>
80002864:	001f8183          	lb	gp,1(t6)
80002868:	00018313          	mv	t1,gp
8000286c:	ff000e93          	li	t4,-16
80002870:	13d31c63          	bne	t1,t4,800029a8 <fail>
80002874:	00120213          	add	tp,tp,1 # 1 <_entry_offset+0x1>
80002878:	00200293          	li	t0,2
8000287c:	fe5210e3          	bne	tp,t0,8000285c <test_12+0x8>

80002880 <test_13>:
80002880:	00d00e13          	li	t3,13
80002884:	00000213          	li	tp,0
80002888:	00006f97          	auipc	t6,0x6
8000288c:	f62f8f93          	add	t6,t6,-158 # 800087ea <tdat3>
80002890:	001f8183          	lb	gp,1(t6)
80002894:	00000013          	nop
80002898:	00018313          	mv	t1,gp
8000289c:	00f00e93          	li	t4,15
800028a0:	11d31463          	bne	t1,t4,800029a8 <fail>
800028a4:	00120213          	add	tp,tp,1 # 1 <_entry_offset+0x1>
800028a8:	00200293          	li	t0,2
800028ac:	fc521ee3          	bne	tp,t0,80002888 <test_13+0x8>

800028b0 <test_14>:
800028b0:	00e00e13          	li	t3,14
800028b4:	00000213          	li	tp,0
800028b8:	00006f97          	auipc	t6,0x6
800028bc:	f30f8f93          	add	t6,t6,-208 # 800087e8 <tdat>
800028c0:	001f8183          	lb	gp,1(t6)
800028c4:	00000013          	nop
800028c8:	00000013          	nop
800028cc:	00018313          	mv	t1,gp
800028d0:	00000e93          	li	t4,0
800028d4:	0dd31a63          	bne	t1,t4,800029a8 <fail>
800028d8:	00120213          	add	tp,tp,1 # 1 <_entry_offset+0x1>
800028dc:	00200293          	li	t0,2
800028e0:	fc521ce3          	bne	tp,t0,800028b8 <test_14+0x8>

800028e4 <test_15>:
800028e4:	00f00e13          	li	t3,15
800028e8:	00000213          	li	tp,0
800028ec:	00006f97          	auipc	t6,0x6
800028f0:	efdf8f93          	add	t6,t6,-259 # 800087e9 <tdat2>
800028f4:	001f8183          	lb	gp,1(t6)
800028f8:	ff000e93          	li	t4,-16
800028fc:	0bd19663          	bne	gp,t4,800029a8 <fail>
80002900:	00120213          	add	tp,tp,1 # 1 <_entry_offset+0x1>
80002904:	00200293          	li	t0,2
80002908:	fe5212e3          	bne	tp,t0,800028ec <test_15+0x8>

8000290c <test_16>:
8000290c:	01000e13          	li	t3,16
80002910:	00000213          	li	tp,0
80002914:	00006f97          	auipc	t6,0x6
80002918:	ed6f8f93          	add	t6,t6,-298 # 800087ea <tdat3>
8000291c:	00000013          	nop
80002920:	001f8183          	lb	gp,1(t6)
80002924:	00f00e93          	li	t4,15
80002928:	09d19063          	bne	gp,t4,800029a8 <fail>
8000292c:	00120213          	add	tp,tp,1 # 1 <_entry_offset+0x1>
80002930:	00200293          	li	t0,2
80002934:	fe5210e3          	bne	tp,t0,80002914 <test_16+0x8>

80002938 <test_17>:
80002938:	01100e13          	li	t3,17
8000293c:	00000213          	li	tp,0
80002940:	00006f97          	auipc	t6,0x6
80002944:	ea8f8f93          	add	t6,t6,-344 # 800087e8 <tdat>
80002948:	00000013          	nop
8000294c:	00000013          	nop
80002950:	001f8183          	lb	gp,1(t6)
80002954:	00000e93          	li	t4,0
80002958:	05d19863          	bne	gp,t4,800029a8 <fail>
8000295c:	00120213          	add	tp,tp,1 # 1 <_entry_offset+0x1>
80002960:	00200293          	li	t0,2
80002964:	fc521ee3          	bne	tp,t0,80002940 <test_17+0x8>

80002968 <test_18>:
80002968:	00006197          	auipc	gp,0x6
8000296c:	e8018193          	add	gp,gp,-384 # 800087e8 <tdat>
80002970:	00018103          	lb	sp,0(gp)
80002974:	00200113          	li	sp,2
80002978:	00200e93          	li	t4,2
8000297c:	01200e13          	li	t3,18
80002980:	03d11463          	bne	sp,t4,800029a8 <fail>

80002984 <test_19>:
80002984:	00006197          	auipc	gp,0x6
80002988:	e6418193          	add	gp,gp,-412 # 800087e8 <tdat>
8000298c:	00018103          	lb	sp,0(gp)
80002990:	00000013          	nop
80002994:	00200113          	li	sp,2
80002998:	00200e93          	li	t4,2
8000299c:	01300e13          	li	t3,19
800029a0:	01d11463          	bne	sp,t4,800029a8 <fail>
800029a4:	0100006f          	j	800029b4 <pass>

800029a8 <fail>:
800029a8:	fff00513          	li	a0,-1
800029ac:	00100073          	ebreak
800029b0:	ff9ff06f          	j	800029a8 <fail>

800029b4 <pass>:
800029b4:	00000513          	li	a0,0
800029b8:	00008067          	ret

800029bc <sll>:
800029bc:	00100f93          	li	t6,1
800029c0:	00000113          	li	sp,0
800029c4:	002f91b3          	sll	gp,t6,sp
800029c8:	00100e93          	li	t4,1
800029cc:	00200e13          	li	t3,2
800029d0:	55d19c63          	bne	gp,t4,80002f28 <fail>

800029d4 <test_3>:
800029d4:	00100f93          	li	t6,1
800029d8:	00100113          	li	sp,1
800029dc:	002f91b3          	sll	gp,t6,sp
800029e0:	00200e93          	li	t4,2
800029e4:	00300e13          	li	t3,3
800029e8:	55d19063          	bne	gp,t4,80002f28 <fail>

800029ec <test_4>:
800029ec:	00100f93          	li	t6,1
800029f0:	00700113          	li	sp,7
800029f4:	002f91b3          	sll	gp,t6,sp
800029f8:	08000e93          	li	t4,128
800029fc:	00400e13          	li	t3,4
80002a00:	53d19463          	bne	gp,t4,80002f28 <fail>

80002a04 <test_5>:
80002a04:	00100f93          	li	t6,1
80002a08:	00e00113          	li	sp,14
80002a0c:	002f91b3          	sll	gp,t6,sp
80002a10:	00004eb7          	lui	t4,0x4
80002a14:	00500e13          	li	t3,5
80002a18:	51d19863          	bne	gp,t4,80002f28 <fail>

80002a1c <test_6>:
80002a1c:	00100f93          	li	t6,1
80002a20:	01f00113          	li	sp,31
80002a24:	002f91b3          	sll	gp,t6,sp
80002a28:	80000eb7          	lui	t4,0x80000
80002a2c:	00600e13          	li	t3,6
80002a30:	4fd19c63          	bne	gp,t4,80002f28 <fail>

80002a34 <test_7>:
80002a34:	fff00f93          	li	t6,-1
80002a38:	00000113          	li	sp,0
80002a3c:	002f91b3          	sll	gp,t6,sp
80002a40:	fff00e93          	li	t4,-1
80002a44:	00700e13          	li	t3,7
80002a48:	4fd19063          	bne	gp,t4,80002f28 <fail>

80002a4c <test_8>:
80002a4c:	fff00f93          	li	t6,-1
80002a50:	00100113          	li	sp,1
80002a54:	002f91b3          	sll	gp,t6,sp
80002a58:	ffe00e93          	li	t4,-2
80002a5c:	00800e13          	li	t3,8
80002a60:	4dd19463          	bne	gp,t4,80002f28 <fail>

80002a64 <test_9>:
80002a64:	fff00f93          	li	t6,-1
80002a68:	00700113          	li	sp,7
80002a6c:	002f91b3          	sll	gp,t6,sp
80002a70:	f8000e93          	li	t4,-128
80002a74:	00900e13          	li	t3,9
80002a78:	4bd19863          	bne	gp,t4,80002f28 <fail>

80002a7c <test_10>:
80002a7c:	fff00f93          	li	t6,-1
80002a80:	00e00113          	li	sp,14
80002a84:	002f91b3          	sll	gp,t6,sp
80002a88:	ffffceb7          	lui	t4,0xffffc
80002a8c:	00a00e13          	li	t3,10
80002a90:	49d19c63          	bne	gp,t4,80002f28 <fail>

80002a94 <test_11>:
80002a94:	fff00f93          	li	t6,-1
80002a98:	01f00113          	li	sp,31
80002a9c:	002f91b3          	sll	gp,t6,sp
80002aa0:	80000eb7          	lui	t4,0x80000
80002aa4:	00b00e13          	li	t3,11
80002aa8:	49d19063          	bne	gp,t4,80002f28 <fail>

80002aac <test_12>:
80002aac:	21212fb7          	lui	t6,0x21212
80002ab0:	121f8f93          	add	t6,t6,289 # 21212121 <_entry_offset+0x21212121>
80002ab4:	00000113          	li	sp,0
80002ab8:	002f91b3          	sll	gp,t6,sp
80002abc:	21212eb7          	lui	t4,0x21212
80002ac0:	121e8e93          	add	t4,t4,289 # 21212121 <_entry_offset+0x21212121>
80002ac4:	00c00e13          	li	t3,12
80002ac8:	47d19063          	bne	gp,t4,80002f28 <fail>

80002acc <test_13>:
80002acc:	21212fb7          	lui	t6,0x21212
80002ad0:	121f8f93          	add	t6,t6,289 # 21212121 <_entry_offset+0x21212121>
80002ad4:	00100113          	li	sp,1
80002ad8:	002f91b3          	sll	gp,t6,sp
80002adc:	42424eb7          	lui	t4,0x42424
80002ae0:	242e8e93          	add	t4,t4,578 # 42424242 <_entry_offset+0x42424242>
80002ae4:	00d00e13          	li	t3,13
80002ae8:	45d19063          	bne	gp,t4,80002f28 <fail>

80002aec <test_14>:
80002aec:	21212fb7          	lui	t6,0x21212
80002af0:	121f8f93          	add	t6,t6,289 # 21212121 <_entry_offset+0x21212121>
80002af4:	00700113          	li	sp,7
80002af8:	002f91b3          	sll	gp,t6,sp
80002afc:	90909eb7          	lui	t4,0x90909
80002b00:	080e8e93          	add	t4,t4,128 # 90909080 <_end+0x108f8080>
80002b04:	00e00e13          	li	t3,14
80002b08:	43d19063          	bne	gp,t4,80002f28 <fail>

80002b0c <test_15>:
80002b0c:	21212fb7          	lui	t6,0x21212
80002b10:	121f8f93          	add	t6,t6,289 # 21212121 <_entry_offset+0x21212121>
80002b14:	00e00113          	li	sp,14
80002b18:	002f91b3          	sll	gp,t6,sp
80002b1c:	48484eb7          	lui	t4,0x48484
80002b20:	00f00e13          	li	t3,15
80002b24:	41d19263          	bne	gp,t4,80002f28 <fail>

80002b28 <test_16>:
80002b28:	21212fb7          	lui	t6,0x21212
80002b2c:	121f8f93          	add	t6,t6,289 # 21212121 <_entry_offset+0x21212121>
80002b30:	01f00113          	li	sp,31
80002b34:	002f91b3          	sll	gp,t6,sp
80002b38:	80000eb7          	lui	t4,0x80000
80002b3c:	01000e13          	li	t3,16
80002b40:	3fd19463          	bne	gp,t4,80002f28 <fail>

80002b44 <test_17>:
80002b44:	21212fb7          	lui	t6,0x21212
80002b48:	121f8f93          	add	t6,t6,289 # 21212121 <_entry_offset+0x21212121>
80002b4c:	fe000113          	li	sp,-32
80002b50:	002f91b3          	sll	gp,t6,sp
80002b54:	21212eb7          	lui	t4,0x21212
80002b58:	121e8e93          	add	t4,t4,289 # 21212121 <_entry_offset+0x21212121>
80002b5c:	01100e13          	li	t3,17
80002b60:	3dd19463          	bne	gp,t4,80002f28 <fail>

80002b64 <test_18>:
80002b64:	21212fb7          	lui	t6,0x21212
80002b68:	121f8f93          	add	t6,t6,289 # 21212121 <_entry_offset+0x21212121>
80002b6c:	fe100113          	li	sp,-31
80002b70:	002f91b3          	sll	gp,t6,sp
80002b74:	42424eb7          	lui	t4,0x42424
80002b78:	242e8e93          	add	t4,t4,578 # 42424242 <_entry_offset+0x42424242>
80002b7c:	01200e13          	li	t3,18
80002b80:	3bd19463          	bne	gp,t4,80002f28 <fail>

80002b84 <test_19>:
80002b84:	21212fb7          	lui	t6,0x21212
80002b88:	121f8f93          	add	t6,t6,289 # 21212121 <_entry_offset+0x21212121>
80002b8c:	fe700113          	li	sp,-25
80002b90:	002f91b3          	sll	gp,t6,sp
80002b94:	90909eb7          	lui	t4,0x90909
80002b98:	080e8e93          	add	t4,t4,128 # 90909080 <_end+0x108f8080>
80002b9c:	01300e13          	li	t3,19
80002ba0:	39d19463          	bne	gp,t4,80002f28 <fail>

80002ba4 <test_20>:
80002ba4:	21212fb7          	lui	t6,0x21212
80002ba8:	121f8f93          	add	t6,t6,289 # 21212121 <_entry_offset+0x21212121>
80002bac:	fee00113          	li	sp,-18
80002bb0:	002f91b3          	sll	gp,t6,sp
80002bb4:	48484eb7          	lui	t4,0x48484
80002bb8:	01400e13          	li	t3,20
80002bbc:	37d19663          	bne	gp,t4,80002f28 <fail>

80002bc0 <test_21>:
80002bc0:	21212fb7          	lui	t6,0x21212
80002bc4:	120f8f93          	add	t6,t6,288 # 21212120 <_entry_offset+0x21212120>
80002bc8:	fff00113          	li	sp,-1
80002bcc:	002f91b3          	sll	gp,t6,sp
80002bd0:	00000e93          	li	t4,0
80002bd4:	01500e13          	li	t3,21
80002bd8:	35d19863          	bne	gp,t4,80002f28 <fail>

80002bdc <test_22>:
80002bdc:	00100f93          	li	t6,1
80002be0:	00700113          	li	sp,7
80002be4:	002f9fb3          	sll	t6,t6,sp
80002be8:	08000e93          	li	t4,128
80002bec:	01600e13          	li	t3,22
80002bf0:	33df9c63          	bne	t6,t4,80002f28 <fail>

80002bf4 <test_23>:
80002bf4:	00100f93          	li	t6,1
80002bf8:	00e00113          	li	sp,14
80002bfc:	002f9133          	sll	sp,t6,sp
80002c00:	00004eb7          	lui	t4,0x4
80002c04:	01700e13          	li	t3,23
80002c08:	33d11063          	bne	sp,t4,80002f28 <fail>

80002c0c <test_24>:
80002c0c:	00300f93          	li	t6,3
80002c10:	01ff9fb3          	sll	t6,t6,t6
80002c14:	01800e93          	li	t4,24
80002c18:	01800e13          	li	t3,24
80002c1c:	31df9663          	bne	t6,t4,80002f28 <fail>

80002c20 <test_25>:
80002c20:	00000213          	li	tp,0
80002c24:	00100f93          	li	t6,1
80002c28:	00700113          	li	sp,7
80002c2c:	002f91b3          	sll	gp,t6,sp
80002c30:	00018313          	mv	t1,gp
80002c34:	00120213          	add	tp,tp,1 # 1 <_entry_offset+0x1>
80002c38:	00200293          	li	t0,2
80002c3c:	fe5214e3          	bne	tp,t0,80002c24 <test_25+0x4>
80002c40:	08000e93          	li	t4,128
80002c44:	01900e13          	li	t3,25
80002c48:	2fd31063          	bne	t1,t4,80002f28 <fail>

80002c4c <test_26>:
80002c4c:	00000213          	li	tp,0
80002c50:	00100f93          	li	t6,1
80002c54:	00e00113          	li	sp,14
80002c58:	002f91b3          	sll	gp,t6,sp
80002c5c:	00000013          	nop
80002c60:	00018313          	mv	t1,gp
80002c64:	00120213          	add	tp,tp,1 # 1 <_entry_offset+0x1>
80002c68:	00200293          	li	t0,2
80002c6c:	fe5212e3          	bne	tp,t0,80002c50 <test_26+0x4>
80002c70:	00004eb7          	lui	t4,0x4
80002c74:	01a00e13          	li	t3,26
80002c78:	2bd31863          	bne	t1,t4,80002f28 <fail>

80002c7c <test_27>:
80002c7c:	00000213          	li	tp,0
80002c80:	00100f93          	li	t6,1
80002c84:	01f00113          	li	sp,31
80002c88:	002f91b3          	sll	gp,t6,sp
80002c8c:	00000013          	nop
80002c90:	00000013          	nop
80002c94:	00018313          	mv	t1,gp
80002c98:	00120213          	add	tp,tp,1 # 1 <_entry_offset+0x1>
80002c9c:	00200293          	li	t0,2
80002ca0:	fe5210e3          	bne	tp,t0,80002c80 <test_27+0x4>
80002ca4:	80000eb7          	lui	t4,0x80000
80002ca8:	01b00e13          	li	t3,27
80002cac:	27d31e63          	bne	t1,t4,80002f28 <fail>

80002cb0 <test_28>:
80002cb0:	00000213          	li	tp,0
80002cb4:	00100f93          	li	t6,1
80002cb8:	00700113          	li	sp,7
80002cbc:	002f91b3          	sll	gp,t6,sp
80002cc0:	00120213          	add	tp,tp,1 # 1 <_entry_offset+0x1>
80002cc4:	00200293          	li	t0,2
80002cc8:	fe5216e3          	bne	tp,t0,80002cb4 <test_28+0x4>
80002ccc:	08000e93          	li	t4,128
80002cd0:	01c00e13          	li	t3,28
80002cd4:	25d19a63          	bne	gp,t4,80002f28 <fail>

80002cd8 <test_29>:
80002cd8:	00000213          	li	tp,0
80002cdc:	00100f93          	li	t6,1
80002ce0:	00e00113          	li	sp,14
80002ce4:	00000013          	nop
80002ce8:	002f91b3          	sll	gp,t6,sp
80002cec:	00120213          	add	tp,tp,1 # 1 <_entry_offset+0x1>
80002cf0:	00200293          	li	t0,2
80002cf4:	fe5214e3          	bne	tp,t0,80002cdc <test_29+0x4>
80002cf8:	00004eb7          	lui	t4,0x4
80002cfc:	01d00e13          	li	t3,29
80002d00:	23d19463          	bne	gp,t4,80002f28 <fail>

80002d04 <test_30>:
80002d04:	00000213          	li	tp,0
80002d08:	00100f93          	li	t6,1
80002d0c:	01f00113          	li	sp,31
80002d10:	00000013          	nop
80002d14:	00000013          	nop
80002d18:	002f91b3          	sll	gp,t6,sp
80002d1c:	00120213          	add	tp,tp,1 # 1 <_entry_offset+0x1>
80002d20:	00200293          	li	t0,2
80002d24:	fe5212e3          	bne	tp,t0,80002d08 <test_30+0x4>
80002d28:	80000eb7          	lui	t4,0x80000
80002d2c:	01e00e13          	li	t3,30
80002d30:	1fd19c63          	bne	gp,t4,80002f28 <fail>

80002d34 <test_31>:
80002d34:	00000213          	li	tp,0
80002d38:	00100f93          	li	t6,1
80002d3c:	00000013          	nop
80002d40:	00700113          	li	sp,7
80002d44:	002f91b3          	sll	gp,t6,sp
80002d48:	00120213          	add	tp,tp,1 # 1 <_entry_offset+0x1>
80002d4c:	00200293          	li	t0,2
80002d50:	fe5214e3          	bne	tp,t0,80002d38 <test_31+0x4>
80002d54:	08000e93          	li	t4,128
80002d58:	01f00e13          	li	t3,31
80002d5c:	1dd19663          	bne	gp,t4,80002f28 <fail>

80002d60 <test_32>:
80002d60:	00000213          	li	tp,0
80002d64:	00100f93          	li	t6,1
80002d68:	00000013          	nop
80002d6c:	00e00113          	li	sp,14
80002d70:	00000013          	nop
80002d74:	002f91b3          	sll	gp,t6,sp
80002d78:	00120213          	add	tp,tp,1 # 1 <_entry_offset+0x1>
80002d7c:	00200293          	li	t0,2
80002d80:	fe5212e3          	bne	tp,t0,80002d64 <test_32+0x4>
80002d84:	00004eb7          	lui	t4,0x4
80002d88:	02000e13          	li	t3,32
80002d8c:	19d19e63          	bne	gp,t4,80002f28 <fail>

80002d90 <test_33>:
80002d90:	00000213          	li	tp,0
80002d94:	00100f93          	li	t6,1
80002d98:	00000013          	nop
80002d9c:	00000013          	nop
80002da0:	01f00113          	li	sp,31
80002da4:	002f91b3          	sll	gp,t6,sp
80002da8:	00120213          	add	tp,tp,1 # 1 <_entry_offset+0x1>
80002dac:	00200293          	li	t0,2
80002db0:	fe5212e3          	bne	tp,t0,80002d94 <test_33+0x4>
80002db4:	80000eb7          	lui	t4,0x80000
80002db8:	02100e13          	li	t3,33
80002dbc:	17d19663          	bne	gp,t4,80002f28 <fail>

80002dc0 <test_34>:
80002dc0:	00000213          	li	tp,0
80002dc4:	00700113          	li	sp,7
80002dc8:	00100f93          	li	t6,1
80002dcc:	002f91b3          	sll	gp,t6,sp
80002dd0:	00120213          	add	tp,tp,1 # 1 <_entry_offset+0x1>
80002dd4:	00200293          	li	t0,2
80002dd8:	fe5216e3          	bne	tp,t0,80002dc4 <test_34+0x4>
80002ddc:	08000e93          	li	t4,128
80002de0:	02200e13          	li	t3,34
80002de4:	15d19263          	bne	gp,t4,80002f28 <fail>

80002de8 <test_35>:
80002de8:	00000213          	li	tp,0
80002dec:	00e00113          	li	sp,14
80002df0:	00100f93          	li	t6,1
80002df4:	00000013          	nop
80002df8:	002f91b3          	sll	gp,t6,sp
80002dfc:	00120213          	add	tp,tp,1 # 1 <_entry_offset+0x1>
80002e00:	00200293          	li	t0,2
80002e04:	fe5214e3          	bne	tp,t0,80002dec <test_35+0x4>
80002e08:	00004eb7          	lui	t4,0x4
80002e0c:	02300e13          	li	t3,35
80002e10:	11d19c63          	bne	gp,t4,80002f28 <fail>

80002e14 <test_36>:
80002e14:	00000213          	li	tp,0
80002e18:	01f00113          	li	sp,31
80002e1c:	00100f93          	li	t6,1
80002e20:	00000013          	nop
80002e24:	00000013          	nop
80002e28:	002f91b3          	sll	gp,t6,sp
80002e2c:	00120213          	add	tp,tp,1 # 1 <_entry_offset+0x1>
80002e30:	00200293          	li	t0,2
80002e34:	fe5212e3          	bne	tp,t0,80002e18 <test_36+0x4>
80002e38:	80000eb7          	lui	t4,0x80000
80002e3c:	02400e13          	li	t3,36
80002e40:	0fd19463          	bne	gp,t4,80002f28 <fail>

80002e44 <test_37>:
80002e44:	00000213          	li	tp,0
80002e48:	00700113          	li	sp,7
80002e4c:	00000013          	nop
80002e50:	00100f93          	li	t6,1
80002e54:	002f91b3          	sll	gp,t6,sp
80002e58:	00120213          	add	tp,tp,1 # 1 <_entry_offset+0x1>
80002e5c:	00200293          	li	t0,2
80002e60:	fe5214e3          	bne	tp,t0,80002e48 <test_37+0x4>
80002e64:	08000e93          	li	t4,128
80002e68:	02500e13          	li	t3,37
80002e6c:	0bd19e63          	bne	gp,t4,80002f28 <fail>

80002e70 <test_38>:
80002e70:	00000213          	li	tp,0
80002e74:	00e00113          	li	sp,14
80002e78:	00000013          	nop
80002e7c:	00100f93          	li	t6,1
80002e80:	00000013          	nop
80002e84:	002f91b3          	sll	gp,t6,sp
80002e88:	00120213          	add	tp,tp,1 # 1 <_entry_offset+0x1>
80002e8c:	00200293          	li	t0,2
80002e90:	fe5212e3          	bne	tp,t0,80002e74 <test_38+0x4>
80002e94:	00004eb7          	lui	t4,0x4
80002e98:	02600e13          	li	t3,38
80002e9c:	09d19663          	bne	gp,t4,80002f28 <fail>

80002ea0 <test_39>:
80002ea0:	00000213          	li	tp,0
80002ea4:	01f00113          	li	sp,31
80002ea8:	00000013          	nop
80002eac:	00000013          	nop
80002eb0:	00100f93          	li	t6,1
80002eb4:	002f91b3          	sll	gp,t6,sp
80002eb8:	00120213          	add	tp,tp,1 # 1 <_entry_offset+0x1>
80002ebc:	00200293          	li	t0,2
80002ec0:	fe5212e3          	bne	tp,t0,80002ea4 <test_39+0x4>
80002ec4:	80000eb7          	lui	t4,0x80000
80002ec8:	02700e13          	li	t3,39
80002ecc:	05d19e63          	bne	gp,t4,80002f28 <fail>

80002ed0 <test_40>:
80002ed0:	00f00f93          	li	t6,15
80002ed4:	01f01133          	sll	sp,zero,t6
80002ed8:	00000e93          	li	t4,0
80002edc:	02800e13          	li	t3,40
80002ee0:	05d11463          	bne	sp,t4,80002f28 <fail>

80002ee4 <test_41>:
80002ee4:	02000f93          	li	t6,32
80002ee8:	000f9133          	sll	sp,t6,zero
80002eec:	02000e93          	li	t4,32
80002ef0:	02900e13          	li	t3,41
80002ef4:	03d11a63          	bne	sp,t4,80002f28 <fail>

80002ef8 <test_42>:
80002ef8:	00001fb3          	sll	t6,zero,zero
80002efc:	00000e93          	li	t4,0
80002f00:	02a00e13          	li	t3,42
80002f04:	03df9263          	bne	t6,t4,80002f28 <fail>

80002f08 <test_43>:
80002f08:	40000f93          	li	t6,1024
80002f0c:	00001137          	lui	sp,0x1
80002f10:	80010113          	add	sp,sp,-2048 # 800 <_entry_offset+0x800>
80002f14:	002f9033          	sll	zero,t6,sp
80002f18:	00000e93          	li	t4,0
80002f1c:	02b00e13          	li	t3,43
80002f20:	01d01463          	bne	zero,t4,80002f28 <fail>
80002f24:	0100006f          	j	80002f34 <pass>

80002f28 <fail>:
80002f28:	fff00513          	li	a0,-1
80002f2c:	00100073          	ebreak
80002f30:	ff9ff06f          	j	80002f28 <fail>

80002f34 <pass>:
80002f34:	00000513          	li	a0,0
80002f38:	00008067          	ret

80002f3c <lh>:
80002f3c:	00006f97          	auipc	t6,0x6
80002f40:	8b0f8f93          	add	t6,t6,-1872 # 800087ec <tdat>
80002f44:	000f9183          	lh	gp,0(t6)
80002f48:	0ff00e93          	li	t4,255
80002f4c:	00200e13          	li	t3,2
80002f50:	25d19c63          	bne	gp,t4,800031a8 <fail>

80002f54 <test_3>:
80002f54:	00006f97          	auipc	t6,0x6
80002f58:	898f8f93          	add	t6,t6,-1896 # 800087ec <tdat>
80002f5c:	002f9183          	lh	gp,2(t6)
80002f60:	f0000e93          	li	t4,-256
80002f64:	00300e13          	li	t3,3
80002f68:	25d19063          	bne	gp,t4,800031a8 <fail>

80002f6c <test_4>:
80002f6c:	00006f97          	auipc	t6,0x6
80002f70:	880f8f93          	add	t6,t6,-1920 # 800087ec <tdat>
80002f74:	004f9183          	lh	gp,4(t6)
80002f78:	00001eb7          	lui	t4,0x1
80002f7c:	ff0e8e93          	add	t4,t4,-16 # ff0 <_entry_offset+0xff0>
80002f80:	00400e13          	li	t3,4
80002f84:	23d19263          	bne	gp,t4,800031a8 <fail>

80002f88 <test_5>:
80002f88:	00006f97          	auipc	t6,0x6
80002f8c:	864f8f93          	add	t6,t6,-1948 # 800087ec <tdat>
80002f90:	006f9183          	lh	gp,6(t6)
80002f94:	fffffeb7          	lui	t4,0xfffff
80002f98:	00fe8e93          	add	t4,t4,15 # fffff00f <_end+0x7ffee00f>
80002f9c:	00500e13          	li	t3,5
80002fa0:	21d19463          	bne	gp,t4,800031a8 <fail>

80002fa4 <test_6>:
80002fa4:	00006f97          	auipc	t6,0x6
80002fa8:	84ef8f93          	add	t6,t6,-1970 # 800087f2 <tdat4>
80002fac:	ffaf9183          	lh	gp,-6(t6)
80002fb0:	0ff00e93          	li	t4,255
80002fb4:	00600e13          	li	t3,6
80002fb8:	1fd19863          	bne	gp,t4,800031a8 <fail>

80002fbc <test_7>:
80002fbc:	00006f97          	auipc	t6,0x6
80002fc0:	836f8f93          	add	t6,t6,-1994 # 800087f2 <tdat4>
80002fc4:	ffcf9183          	lh	gp,-4(t6)
80002fc8:	f0000e93          	li	t4,-256
80002fcc:	00700e13          	li	t3,7
80002fd0:	1dd19c63          	bne	gp,t4,800031a8 <fail>

80002fd4 <test_8>:
80002fd4:	00006f97          	auipc	t6,0x6
80002fd8:	81ef8f93          	add	t6,t6,-2018 # 800087f2 <tdat4>
80002fdc:	ffef9183          	lh	gp,-2(t6)
80002fe0:	00001eb7          	lui	t4,0x1
80002fe4:	ff0e8e93          	add	t4,t4,-16 # ff0 <_entry_offset+0xff0>
80002fe8:	00800e13          	li	t3,8
80002fec:	1bd19e63          	bne	gp,t4,800031a8 <fail>

80002ff0 <test_9>:
80002ff0:	00006f97          	auipc	t6,0x6
80002ff4:	802f8f93          	add	t6,t6,-2046 # 800087f2 <tdat4>
80002ff8:	000f9183          	lh	gp,0(t6)
80002ffc:	fffffeb7          	lui	t4,0xfffff
80003000:	00fe8e93          	add	t4,t4,15 # fffff00f <_end+0x7ffee00f>
80003004:	00900e13          	li	t3,9
80003008:	1bd19063          	bne	gp,t4,800031a8 <fail>

8000300c <test_10>:
8000300c:	00005f97          	auipc	t6,0x5
80003010:	7e0f8f93          	add	t6,t6,2016 # 800087ec <tdat>
80003014:	fe0f8f93          	add	t6,t6,-32
80003018:	020f9183          	lh	gp,32(t6)
8000301c:	0ff00e93          	li	t4,255
80003020:	00a00e13          	li	t3,10
80003024:	19d19263          	bne	gp,t4,800031a8 <fail>

80003028 <test_11>:
80003028:	00005f97          	auipc	t6,0x5
8000302c:	7c4f8f93          	add	t6,t6,1988 # 800087ec <tdat>
80003030:	ffbf8f93          	add	t6,t6,-5
80003034:	007f9183          	lh	gp,7(t6)
80003038:	f0000e93          	li	t4,-256
8000303c:	00b00e13          	li	t3,11
80003040:	17d19463          	bne	gp,t4,800031a8 <fail>

80003044 <test_12>:
80003044:	00c00e13          	li	t3,12
80003048:	00000213          	li	tp,0
8000304c:	00005f97          	auipc	t6,0x5
80003050:	7a2f8f93          	add	t6,t6,1954 # 800087ee <tdat2>
80003054:	002f9183          	lh	gp,2(t6)
80003058:	00018313          	mv	t1,gp
8000305c:	00001eb7          	lui	t4,0x1
80003060:	ff0e8e93          	add	t4,t4,-16 # ff0 <_entry_offset+0xff0>
80003064:	15d31263          	bne	t1,t4,800031a8 <fail>
80003068:	00120213          	add	tp,tp,1 # 1 <_entry_offset+0x1>
8000306c:	00200293          	li	t0,2
80003070:	fc521ee3          	bne	tp,t0,8000304c <test_12+0x8>

80003074 <test_13>:
80003074:	00d00e13          	li	t3,13
80003078:	00000213          	li	tp,0
8000307c:	00005f97          	auipc	t6,0x5
80003080:	774f8f93          	add	t6,t6,1908 # 800087f0 <tdat3>
80003084:	002f9183          	lh	gp,2(t6)
80003088:	00000013          	nop
8000308c:	00018313          	mv	t1,gp
80003090:	fffffeb7          	lui	t4,0xfffff
80003094:	00fe8e93          	add	t4,t4,15 # fffff00f <_end+0x7ffee00f>
80003098:	11d31863          	bne	t1,t4,800031a8 <fail>
8000309c:	00120213          	add	tp,tp,1 # 1 <_entry_offset+0x1>
800030a0:	00200293          	li	t0,2
800030a4:	fc521ce3          	bne	tp,t0,8000307c <test_13+0x8>

800030a8 <test_14>:
800030a8:	00e00e13          	li	t3,14
800030ac:	00000213          	li	tp,0
800030b0:	00005f97          	auipc	t6,0x5
800030b4:	73cf8f93          	add	t6,t6,1852 # 800087ec <tdat>
800030b8:	002f9183          	lh	gp,2(t6)
800030bc:	00000013          	nop
800030c0:	00000013          	nop
800030c4:	00018313          	mv	t1,gp
800030c8:	f0000e93          	li	t4,-256
800030cc:	0dd31e63          	bne	t1,t4,800031a8 <fail>
800030d0:	00120213          	add	tp,tp,1 # 1 <_entry_offset+0x1>
800030d4:	00200293          	li	t0,2
800030d8:	fc521ce3          	bne	tp,t0,800030b0 <test_14+0x8>

800030dc <test_15>:
800030dc:	00f00e13          	li	t3,15
800030e0:	00000213          	li	tp,0
800030e4:	00005f97          	auipc	t6,0x5
800030e8:	70af8f93          	add	t6,t6,1802 # 800087ee <tdat2>
800030ec:	002f9183          	lh	gp,2(t6)
800030f0:	00001eb7          	lui	t4,0x1
800030f4:	ff0e8e93          	add	t4,t4,-16 # ff0 <_entry_offset+0xff0>
800030f8:	0bd19863          	bne	gp,t4,800031a8 <fail>
800030fc:	00120213          	add	tp,tp,1 # 1 <_entry_offset+0x1>
80003100:	00200293          	li	t0,2
80003104:	fe5210e3          	bne	tp,t0,800030e4 <test_15+0x8>

80003108 <test_16>:
80003108:	01000e13          	li	t3,16
8000310c:	00000213          	li	tp,0
80003110:	00005f97          	auipc	t6,0x5
80003114:	6e0f8f93          	add	t6,t6,1760 # 800087f0 <tdat3>
80003118:	00000013          	nop
8000311c:	002f9183          	lh	gp,2(t6)
80003120:	fffffeb7          	lui	t4,0xfffff
80003124:	00fe8e93          	add	t4,t4,15 # fffff00f <_end+0x7ffee00f>
80003128:	09d19063          	bne	gp,t4,800031a8 <fail>
8000312c:	00120213          	add	tp,tp,1 # 1 <_entry_offset+0x1>
80003130:	00200293          	li	t0,2
80003134:	fc521ee3          	bne	tp,t0,80003110 <test_16+0x8>

80003138 <test_17>:
80003138:	01100e13          	li	t3,17
8000313c:	00000213          	li	tp,0
80003140:	00005f97          	auipc	t6,0x5
80003144:	6acf8f93          	add	t6,t6,1708 # 800087ec <tdat>
80003148:	00000013          	nop
8000314c:	00000013          	nop
80003150:	002f9183          	lh	gp,2(t6)
80003154:	f0000e93          	li	t4,-256
80003158:	05d19863          	bne	gp,t4,800031a8 <fail>
8000315c:	00120213          	add	tp,tp,1 # 1 <_entry_offset+0x1>
80003160:	00200293          	li	t0,2
80003164:	fc521ee3          	bne	tp,t0,80003140 <test_17+0x8>

80003168 <test_18>:
80003168:	00005197          	auipc	gp,0x5
8000316c:	68418193          	add	gp,gp,1668 # 800087ec <tdat>
80003170:	00019103          	lh	sp,0(gp)
80003174:	00200113          	li	sp,2
80003178:	00200e93          	li	t4,2
8000317c:	01200e13          	li	t3,18
80003180:	03d11463          	bne	sp,t4,800031a8 <fail>

80003184 <test_19>:
80003184:	00005197          	auipc	gp,0x5
80003188:	66818193          	add	gp,gp,1640 # 800087ec <tdat>
8000318c:	00019103          	lh	sp,0(gp)
80003190:	00000013          	nop
80003194:	00200113          	li	sp,2
80003198:	00200e93          	li	t4,2
8000319c:	01300e13          	li	t3,19
800031a0:	01d11463          	bne	sp,t4,800031a8 <fail>
800031a4:	0100006f          	j	800031b4 <pass>

800031a8 <fail>:
800031a8:	fff00513          	li	a0,-1
800031ac:	00100073          	ebreak
800031b0:	ff9ff06f          	j	800031a8 <fail>

800031b4 <pass>:
800031b4:	00000513          	li	a0,0
800031b8:	00008067          	ret

800031bc <mulh>:
800031bc:	00000f93          	li	t6,0
800031c0:	00000113          	li	sp,0
800031c4:	022f91b3          	mulh	gp,t6,sp
800031c8:	00000e93          	li	t4,0
800031cc:	00200e13          	li	t3,2
800031d0:	4bd19a63          	bne	gp,t4,80003684 <fail>

800031d4 <test_3>:
800031d4:	00100f93          	li	t6,1
800031d8:	00100113          	li	sp,1
800031dc:	022f91b3          	mulh	gp,t6,sp
800031e0:	00000e93          	li	t4,0
800031e4:	00300e13          	li	t3,3
800031e8:	49d19e63          	bne	gp,t4,80003684 <fail>

800031ec <test_4>:
800031ec:	00300f93          	li	t6,3
800031f0:	00700113          	li	sp,7
800031f4:	022f91b3          	mulh	gp,t6,sp
800031f8:	00000e93          	li	t4,0
800031fc:	00400e13          	li	t3,4
80003200:	49d19263          	bne	gp,t4,80003684 <fail>

80003204 <test_5>:
80003204:	00000f93          	li	t6,0
80003208:	ffff8137          	lui	sp,0xffff8
8000320c:	022f91b3          	mulh	gp,t6,sp
80003210:	00000e93          	li	t4,0
80003214:	00500e13          	li	t3,5
80003218:	47d19663          	bne	gp,t4,80003684 <fail>

8000321c <test_6>:
8000321c:	80000fb7          	lui	t6,0x80000
80003220:	00000113          	li	sp,0
80003224:	022f91b3          	mulh	gp,t6,sp
80003228:	00000e93          	li	t4,0
8000322c:	00600e13          	li	t3,6
80003230:	45d19a63          	bne	gp,t4,80003684 <fail>

80003234 <test_7>:
80003234:	80000fb7          	lui	t6,0x80000
80003238:	00000113          	li	sp,0
8000323c:	022f91b3          	mulh	gp,t6,sp
80003240:	00000e93          	li	t4,0
80003244:	00700e13          	li	t3,7
80003248:	43d19e63          	bne	gp,t4,80003684 <fail>

8000324c <test_30>:
8000324c:	aaaabfb7          	lui	t6,0xaaaab
80003250:	aabf8f93          	add	t6,t6,-1365 # aaaaaaab <_end+0x2aa99aab>
80003254:	00030137          	lui	sp,0x30
80003258:	e7d10113          	add	sp,sp,-387 # 2fe7d <_entry_offset+0x2fe7d>
8000325c:	022f91b3          	mulh	gp,t6,sp
80003260:	ffff0eb7          	lui	t4,0xffff0
80003264:	081e8e93          	add	t4,t4,129 # ffff0081 <_end+0x7ffdf081>
80003268:	01e00e13          	li	t3,30
8000326c:	41d19c63          	bne	gp,t4,80003684 <fail>

80003270 <test_31>:
80003270:	00030fb7          	lui	t6,0x30
80003274:	e7df8f93          	add	t6,t6,-387 # 2fe7d <_entry_offset+0x2fe7d>
80003278:	aaaab137          	lui	sp,0xaaaab
8000327c:	aab10113          	add	sp,sp,-1365 # aaaaaaab <_end+0x2aa99aab>
80003280:	022f91b3          	mulh	gp,t6,sp
80003284:	ffff0eb7          	lui	t4,0xffff0
80003288:	081e8e93          	add	t4,t4,129 # ffff0081 <_end+0x7ffdf081>
8000328c:	01f00e13          	li	t3,31
80003290:	3fd19a63          	bne	gp,t4,80003684 <fail>

80003294 <test_32>:
80003294:	ff000fb7          	lui	t6,0xff000
80003298:	ff000137          	lui	sp,0xff000
8000329c:	022f91b3          	mulh	gp,t6,sp
800032a0:	00010eb7          	lui	t4,0x10
800032a4:	02000e13          	li	t3,32
800032a8:	3dd19e63          	bne	gp,t4,80003684 <fail>

800032ac <test_33>:
800032ac:	fff00f93          	li	t6,-1
800032b0:	fff00113          	li	sp,-1
800032b4:	022f91b3          	mulh	gp,t6,sp
800032b8:	00000e93          	li	t4,0
800032bc:	02100e13          	li	t3,33
800032c0:	3dd19263          	bne	gp,t4,80003684 <fail>

800032c4 <test_34>:
800032c4:	fff00f93          	li	t6,-1
800032c8:	00100113          	li	sp,1
800032cc:	022f91b3          	mulh	gp,t6,sp
800032d0:	fff00e93          	li	t4,-1
800032d4:	02200e13          	li	t3,34
800032d8:	3bd19663          	bne	gp,t4,80003684 <fail>

800032dc <test_35>:
800032dc:	00100f93          	li	t6,1
800032e0:	fff00113          	li	sp,-1
800032e4:	022f91b3          	mulh	gp,t6,sp
800032e8:	fff00e93          	li	t4,-1
800032ec:	02300e13          	li	t3,35
800032f0:	39d19a63          	bne	gp,t4,80003684 <fail>

800032f4 <test_8>:
800032f4:	00d00fb7          	lui	t6,0xd00
800032f8:	00b00137          	lui	sp,0xb00
800032fc:	022f9fb3          	mulh	t6,t6,sp
80003300:	00009eb7          	lui	t4,0x9
80003304:	f00e8e93          	add	t4,t4,-256 # 8f00 <_entry_offset+0x8f00>
80003308:	00800e13          	li	t3,8
8000330c:	37df9c63          	bne	t6,t4,80003684 <fail>

80003310 <test_9>:
80003310:	00e00fb7          	lui	t6,0xe00
80003314:	00b00137          	lui	sp,0xb00
80003318:	022f9133          	mulh	sp,t6,sp
8000331c:	0000aeb7          	lui	t4,0xa
80003320:	a00e8e93          	add	t4,t4,-1536 # 9a00 <_entry_offset+0x9a00>
80003324:	00900e13          	li	t3,9
80003328:	35d11e63          	bne	sp,t4,80003684 <fail>

8000332c <test_10>:
8000332c:	00d00fb7          	lui	t6,0xd00
80003330:	03ff9fb3          	mulh	t6,t6,t6
80003334:	0000beb7          	lui	t4,0xb
80003338:	900e8e93          	add	t4,t4,-1792 # a900 <_entry_offset+0xa900>
8000333c:	00a00e13          	li	t3,10
80003340:	35df9263          	bne	t6,t4,80003684 <fail>

80003344 <test_11>:
80003344:	00000213          	li	tp,0
80003348:	00d00fb7          	lui	t6,0xd00
8000334c:	00b00137          	lui	sp,0xb00
80003350:	022f91b3          	mulh	gp,t6,sp
80003354:	00018313          	mv	t1,gp
80003358:	00120213          	add	tp,tp,1 # 1 <_entry_offset+0x1>
8000335c:	00200293          	li	t0,2
80003360:	fe5214e3          	bne	tp,t0,80003348 <test_11+0x4>
80003364:	00009eb7          	lui	t4,0x9
80003368:	f00e8e93          	add	t4,t4,-256 # 8f00 <_entry_offset+0x8f00>
8000336c:	00b00e13          	li	t3,11
80003370:	31d31a63          	bne	t1,t4,80003684 <fail>

80003374 <test_12>:
80003374:	00000213          	li	tp,0
80003378:	00e00fb7          	lui	t6,0xe00
8000337c:	00b00137          	lui	sp,0xb00
80003380:	022f91b3          	mulh	gp,t6,sp
80003384:	00000013          	nop
80003388:	00018313          	mv	t1,gp
8000338c:	00120213          	add	tp,tp,1 # 1 <_entry_offset+0x1>
80003390:	00200293          	li	t0,2
80003394:	fe5212e3          	bne	tp,t0,80003378 <test_12+0x4>
80003398:	0000aeb7          	lui	t4,0xa
8000339c:	a00e8e93          	add	t4,t4,-1536 # 9a00 <_entry_offset+0x9a00>
800033a0:	00c00e13          	li	t3,12
800033a4:	2fd31063          	bne	t1,t4,80003684 <fail>

800033a8 <test_13>:
800033a8:	00000213          	li	tp,0
800033ac:	00f00fb7          	lui	t6,0xf00
800033b0:	00b00137          	lui	sp,0xb00
800033b4:	022f91b3          	mulh	gp,t6,sp
800033b8:	00000013          	nop
800033bc:	00000013          	nop
800033c0:	00018313          	mv	t1,gp
800033c4:	00120213          	add	tp,tp,1 # 1 <_entry_offset+0x1>
800033c8:	00200293          	li	t0,2
800033cc:	fe5210e3          	bne	tp,t0,800033ac <test_13+0x4>
800033d0:	0000aeb7          	lui	t4,0xa
800033d4:	500e8e93          	add	t4,t4,1280 # a500 <_entry_offset+0xa500>
800033d8:	00d00e13          	li	t3,13
800033dc:	2bd31463          	bne	t1,t4,80003684 <fail>

800033e0 <test_14>:
800033e0:	00000213          	li	tp,0
800033e4:	00d00fb7          	lui	t6,0xd00
800033e8:	00b00137          	lui	sp,0xb00
800033ec:	022f91b3          	mulh	gp,t6,sp
800033f0:	00120213          	add	tp,tp,1 # 1 <_entry_offset+0x1>
800033f4:	00200293          	li	t0,2
800033f8:	fe5216e3          	bne	tp,t0,800033e4 <test_14+0x4>
800033fc:	00009eb7          	lui	t4,0x9
80003400:	f00e8e93          	add	t4,t4,-256 # 8f00 <_entry_offset+0x8f00>
80003404:	00e00e13          	li	t3,14
80003408:	27d19e63          	bne	gp,t4,80003684 <fail>

8000340c <test_15>:
8000340c:	00000213          	li	tp,0
80003410:	00e00fb7          	lui	t6,0xe00
80003414:	00b00137          	lui	sp,0xb00
80003418:	00000013          	nop
8000341c:	022f91b3          	mulh	gp,t6,sp
80003420:	00120213          	add	tp,tp,1 # 1 <_entry_offset+0x1>
80003424:	00200293          	li	t0,2
80003428:	fe5214e3          	bne	tp,t0,80003410 <test_15+0x4>
8000342c:	0000aeb7          	lui	t4,0xa
80003430:	a00e8e93          	add	t4,t4,-1536 # 9a00 <_entry_offset+0x9a00>
80003434:	00f00e13          	li	t3,15
80003438:	25d19663          	bne	gp,t4,80003684 <fail>

8000343c <test_16>:
8000343c:	00000213          	li	tp,0
80003440:	00f00fb7          	lui	t6,0xf00
80003444:	00b00137          	lui	sp,0xb00
80003448:	00000013          	nop
8000344c:	00000013          	nop
80003450:	022f91b3          	mulh	gp,t6,sp
80003454:	00120213          	add	tp,tp,1 # 1 <_entry_offset+0x1>
80003458:	00200293          	li	t0,2
8000345c:	fe5212e3          	bne	tp,t0,80003440 <test_16+0x4>
80003460:	0000aeb7          	lui	t4,0xa
80003464:	500e8e93          	add	t4,t4,1280 # a500 <_entry_offset+0xa500>
80003468:	01000e13          	li	t3,16
8000346c:	21d19c63          	bne	gp,t4,80003684 <fail>

80003470 <test_17>:
80003470:	00000213          	li	tp,0
80003474:	00d00fb7          	lui	t6,0xd00
80003478:	00000013          	nop
8000347c:	00b00137          	lui	sp,0xb00
80003480:	022f91b3          	mulh	gp,t6,sp
80003484:	00120213          	add	tp,tp,1 # 1 <_entry_offset+0x1>
80003488:	00200293          	li	t0,2
8000348c:	fe5214e3          	bne	tp,t0,80003474 <test_17+0x4>
80003490:	00009eb7          	lui	t4,0x9
80003494:	f00e8e93          	add	t4,t4,-256 # 8f00 <_entry_offset+0x8f00>
80003498:	01100e13          	li	t3,17
8000349c:	1fd19463          	bne	gp,t4,80003684 <fail>

800034a0 <test_18>:
800034a0:	00000213          	li	tp,0
800034a4:	00e00fb7          	lui	t6,0xe00
800034a8:	00000013          	nop
800034ac:	00b00137          	lui	sp,0xb00
800034b0:	00000013          	nop
800034b4:	022f91b3          	mulh	gp,t6,sp
800034b8:	00120213          	add	tp,tp,1 # 1 <_entry_offset+0x1>
800034bc:	00200293          	li	t0,2
800034c0:	fe5212e3          	bne	tp,t0,800034a4 <test_18+0x4>
800034c4:	0000aeb7          	lui	t4,0xa
800034c8:	a00e8e93          	add	t4,t4,-1536 # 9a00 <_entry_offset+0x9a00>
800034cc:	01200e13          	li	t3,18
800034d0:	1bd19a63          	bne	gp,t4,80003684 <fail>

800034d4 <test_19>:
800034d4:	00000213          	li	tp,0
800034d8:	00f00fb7          	lui	t6,0xf00
800034dc:	00000013          	nop
800034e0:	00000013          	nop
800034e4:	00b00137          	lui	sp,0xb00
800034e8:	022f91b3          	mulh	gp,t6,sp
800034ec:	00120213          	add	tp,tp,1 # 1 <_entry_offset+0x1>
800034f0:	00200293          	li	t0,2
800034f4:	fe5212e3          	bne	tp,t0,800034d8 <test_19+0x4>
800034f8:	0000aeb7          	lui	t4,0xa
800034fc:	500e8e93          	add	t4,t4,1280 # a500 <_entry_offset+0xa500>
80003500:	01300e13          	li	t3,19
80003504:	19d19063          	bne	gp,t4,80003684 <fail>

80003508 <test_20>:
80003508:	00000213          	li	tp,0
8000350c:	00b00137          	lui	sp,0xb00
80003510:	00d00fb7          	lui	t6,0xd00
80003514:	022f91b3          	mulh	gp,t6,sp
80003518:	00120213          	add	tp,tp,1 # 1 <_entry_offset+0x1>
8000351c:	00200293          	li	t0,2
80003520:	fe5216e3          	bne	tp,t0,8000350c <test_20+0x4>
80003524:	00009eb7          	lui	t4,0x9
80003528:	f00e8e93          	add	t4,t4,-256 # 8f00 <_entry_offset+0x8f00>
8000352c:	01400e13          	li	t3,20
80003530:	15d19a63          	bne	gp,t4,80003684 <fail>

80003534 <test_21>:
80003534:	00000213          	li	tp,0
80003538:	00b00137          	lui	sp,0xb00
8000353c:	00e00fb7          	lui	t6,0xe00
80003540:	00000013          	nop
80003544:	022f91b3          	mulh	gp,t6,sp
80003548:	00120213          	add	tp,tp,1 # 1 <_entry_offset+0x1>
8000354c:	00200293          	li	t0,2
80003550:	fe5214e3          	bne	tp,t0,80003538 <test_21+0x4>
80003554:	0000aeb7          	lui	t4,0xa
80003558:	a00e8e93          	add	t4,t4,-1536 # 9a00 <_entry_offset+0x9a00>
8000355c:	01500e13          	li	t3,21
80003560:	13d19263          	bne	gp,t4,80003684 <fail>

80003564 <test_22>:
80003564:	00000213          	li	tp,0
80003568:	00b00137          	lui	sp,0xb00
8000356c:	00f00fb7          	lui	t6,0xf00
80003570:	00000013          	nop
80003574:	00000013          	nop
80003578:	022f91b3          	mulh	gp,t6,sp
8000357c:	00120213          	add	tp,tp,1 # 1 <_entry_offset+0x1>
80003580:	00200293          	li	t0,2
80003584:	fe5212e3          	bne	tp,t0,80003568 <test_22+0x4>
80003588:	0000aeb7          	lui	t4,0xa
8000358c:	500e8e93          	add	t4,t4,1280 # a500 <_entry_offset+0xa500>
80003590:	01600e13          	li	t3,22
80003594:	0fd19863          	bne	gp,t4,80003684 <fail>

80003598 <test_23>:
80003598:	00000213          	li	tp,0
8000359c:	00b00137          	lui	sp,0xb00
800035a0:	00000013          	nop
800035a4:	00d00fb7          	lui	t6,0xd00
800035a8:	022f91b3          	mulh	gp,t6,sp
800035ac:	00120213          	add	tp,tp,1 # 1 <_entry_offset+0x1>
800035b0:	00200293          	li	t0,2
800035b4:	fe5214e3          	bne	tp,t0,8000359c <test_23+0x4>
800035b8:	00009eb7          	lui	t4,0x9
800035bc:	f00e8e93          	add	t4,t4,-256 # 8f00 <_entry_offset+0x8f00>
800035c0:	01700e13          	li	t3,23
800035c4:	0dd19063          	bne	gp,t4,80003684 <fail>

800035c8 <test_24>:
800035c8:	00000213          	li	tp,0
800035cc:	00b00137          	lui	sp,0xb00
800035d0:	00000013          	nop
800035d4:	00e00fb7          	lui	t6,0xe00
800035d8:	00000013          	nop
800035dc:	022f91b3          	mulh	gp,t6,sp
800035e0:	00120213          	add	tp,tp,1 # 1 <_entry_offset+0x1>
800035e4:	00200293          	li	t0,2
800035e8:	fe5212e3          	bne	tp,t0,800035cc <test_24+0x4>
800035ec:	0000aeb7          	lui	t4,0xa
800035f0:	a00e8e93          	add	t4,t4,-1536 # 9a00 <_entry_offset+0x9a00>
800035f4:	01800e13          	li	t3,24
800035f8:	09d19663          	bne	gp,t4,80003684 <fail>

800035fc <test_25>:
800035fc:	00000213          	li	tp,0
80003600:	00b00137          	lui	sp,0xb00
80003604:	00000013          	nop
80003608:	00000013          	nop
8000360c:	00f00fb7          	lui	t6,0xf00
80003610:	022f91b3          	mulh	gp,t6,sp
80003614:	00120213          	add	tp,tp,1 # 1 <_entry_offset+0x1>
80003618:	00200293          	li	t0,2
8000361c:	fe5212e3          	bne	tp,t0,80003600 <test_25+0x4>
80003620:	0000aeb7          	lui	t4,0xa
80003624:	500e8e93          	add	t4,t4,1280 # a500 <_entry_offset+0xa500>
80003628:	01900e13          	li	t3,25
8000362c:	05d19c63          	bne	gp,t4,80003684 <fail>

80003630 <test_26>:
80003630:	7c000fb7          	lui	t6,0x7c000
80003634:	03f01133          	mulh	sp,zero,t6
80003638:	00000e93          	li	t4,0
8000363c:	01a00e13          	li	t3,26
80003640:	05d11263          	bne	sp,t4,80003684 <fail>

80003644 <test_27>:
80003644:	80000fb7          	lui	t6,0x80000
80003648:	020f9133          	mulh	sp,t6,zero
8000364c:	00000e93          	li	t4,0
80003650:	01b00e13          	li	t3,27
80003654:	03d11863          	bne	sp,t4,80003684 <fail>

80003658 <test_28>:
80003658:	02001fb3          	mulh	t6,zero,zero
8000365c:	00000e93          	li	t4,0
80003660:	01c00e13          	li	t3,28
80003664:	03df9063          	bne	t6,t4,80003684 <fail>

80003668 <test_29>:
80003668:	02100fb7          	lui	t6,0x2100
8000366c:	02200137          	lui	sp,0x2200
80003670:	022f9033          	mulh	zero,t6,sp
80003674:	00000e93          	li	t4,0
80003678:	01d00e13          	li	t3,29
8000367c:	01d01463          	bne	zero,t4,80003684 <fail>
80003680:	0100006f          	j	80003690 <pass>

80003684 <fail>:
80003684:	fff00513          	li	a0,-1
80003688:	00100073          	ebreak
8000368c:	ff9ff06f          	j	80003684 <fail>

80003690 <pass>:
80003690:	00000513          	li	a0,0
80003694:	00008067          	ret

80003698 <j>:
80003698:	00200e13          	li	t3,2
8000369c:	0080006f          	j	800036a4 <test_2>
800036a0:	0340006f          	j	800036d4 <fail>

800036a4 <test_2>:
800036a4:	00100f93          	li	t6,1
800036a8:	0140006f          	j	800036bc <test_2+0x18>
800036ac:	001f8f93          	add	t6,t6,1 # 2100001 <_entry_offset+0x2100001>
800036b0:	001f8f93          	add	t6,t6,1
800036b4:	001f8f93          	add	t6,t6,1
800036b8:	001f8f93          	add	t6,t6,1
800036bc:	001f8f93          	add	t6,t6,1
800036c0:	001f8f93          	add	t6,t6,1
800036c4:	00300e93          	li	t4,3
800036c8:	00300e13          	li	t3,3
800036cc:	01df9463          	bne	t6,t4,800036d4 <fail>
800036d0:	0100006f          	j	800036e0 <pass>

800036d4 <fail>:
800036d4:	fff00513          	li	a0,-1
800036d8:	00100073          	ebreak
800036dc:	ff9ff06f          	j	800036d4 <fail>

800036e0 <pass>:
800036e0:	00000513          	li	a0,0
800036e4:	00008067          	ret

800036e8 <lw>:
800036e8:	00005f97          	auipc	t6,0x5
800036ec:	10cf8f93          	add	t6,t6,268 # 800087f4 <tdat>
800036f0:	000fa183          	lw	gp,0(t6)
800036f4:	00ff0eb7          	lui	t4,0xff0
800036f8:	0ffe8e93          	add	t4,t4,255 # ff00ff <_entry_offset+0xff00ff>
800036fc:	00200e13          	li	t3,2
80003700:	27d19a63          	bne	gp,t4,80003974 <fail>

80003704 <test_3>:
80003704:	00005f97          	auipc	t6,0x5
80003708:	0f0f8f93          	add	t6,t6,240 # 800087f4 <tdat>
8000370c:	004fa183          	lw	gp,4(t6)
80003710:	ff010eb7          	lui	t4,0xff010
80003714:	f00e8e93          	add	t4,t4,-256 # ff00ff00 <_end+0x7effef00>
80003718:	00300e13          	li	t3,3
8000371c:	25d19c63          	bne	gp,t4,80003974 <fail>

80003720 <test_4>:
80003720:	00005f97          	auipc	t6,0x5
80003724:	0d4f8f93          	add	t6,t6,212 # 800087f4 <tdat>
80003728:	008fa183          	lw	gp,8(t6)
8000372c:	0ff01eb7          	lui	t4,0xff01
80003730:	ff0e8e93          	add	t4,t4,-16 # ff00ff0 <_entry_offset+0xff00ff0>
80003734:	00400e13          	li	t3,4
80003738:	23d19e63          	bne	gp,t4,80003974 <fail>

8000373c <test_5>:
8000373c:	00005f97          	auipc	t6,0x5
80003740:	0b8f8f93          	add	t6,t6,184 # 800087f4 <tdat>
80003744:	00cfa183          	lw	gp,12(t6)
80003748:	f00ffeb7          	lui	t4,0xf00ff
8000374c:	00fe8e93          	add	t4,t4,15 # f00ff00f <_end+0x700ee00f>
80003750:	00500e13          	li	t3,5
80003754:	23d19063          	bne	gp,t4,80003974 <fail>

80003758 <test_6>:
80003758:	00005f97          	auipc	t6,0x5
8000375c:	0a8f8f93          	add	t6,t6,168 # 80008800 <tdat4>
80003760:	ff4fa183          	lw	gp,-12(t6)
80003764:	00ff0eb7          	lui	t4,0xff0
80003768:	0ffe8e93          	add	t4,t4,255 # ff00ff <_entry_offset+0xff00ff>
8000376c:	00600e13          	li	t3,6
80003770:	21d19263          	bne	gp,t4,80003974 <fail>

80003774 <test_7>:
80003774:	00005f97          	auipc	t6,0x5
80003778:	08cf8f93          	add	t6,t6,140 # 80008800 <tdat4>
8000377c:	ff8fa183          	lw	gp,-8(t6)
80003780:	ff010eb7          	lui	t4,0xff010
80003784:	f00e8e93          	add	t4,t4,-256 # ff00ff00 <_end+0x7effef00>
80003788:	00700e13          	li	t3,7
8000378c:	1fd19463          	bne	gp,t4,80003974 <fail>

80003790 <test_8>:
80003790:	00005f97          	auipc	t6,0x5
80003794:	070f8f93          	add	t6,t6,112 # 80008800 <tdat4>
80003798:	ffcfa183          	lw	gp,-4(t6)
8000379c:	0ff01eb7          	lui	t4,0xff01
800037a0:	ff0e8e93          	add	t4,t4,-16 # ff00ff0 <_entry_offset+0xff00ff0>
800037a4:	00800e13          	li	t3,8
800037a8:	1dd19663          	bne	gp,t4,80003974 <fail>

800037ac <test_9>:
800037ac:	00005f97          	auipc	t6,0x5
800037b0:	054f8f93          	add	t6,t6,84 # 80008800 <tdat4>
800037b4:	000fa183          	lw	gp,0(t6)
800037b8:	f00ffeb7          	lui	t4,0xf00ff
800037bc:	00fe8e93          	add	t4,t4,15 # f00ff00f <_end+0x700ee00f>
800037c0:	00900e13          	li	t3,9
800037c4:	1bd19863          	bne	gp,t4,80003974 <fail>

800037c8 <test_10>:
800037c8:	00005f97          	auipc	t6,0x5
800037cc:	02cf8f93          	add	t6,t6,44 # 800087f4 <tdat>
800037d0:	fe0f8f93          	add	t6,t6,-32
800037d4:	020fa183          	lw	gp,32(t6)
800037d8:	00ff0eb7          	lui	t4,0xff0
800037dc:	0ffe8e93          	add	t4,t4,255 # ff00ff <_entry_offset+0xff00ff>
800037e0:	00a00e13          	li	t3,10
800037e4:	19d19863          	bne	gp,t4,80003974 <fail>

800037e8 <test_11>:
800037e8:	00005f97          	auipc	t6,0x5
800037ec:	00cf8f93          	add	t6,t6,12 # 800087f4 <tdat>
800037f0:	ffdf8f93          	add	t6,t6,-3
800037f4:	007fa183          	lw	gp,7(t6)
800037f8:	ff010eb7          	lui	t4,0xff010
800037fc:	f00e8e93          	add	t4,t4,-256 # ff00ff00 <_end+0x7effef00>
80003800:	00b00e13          	li	t3,11
80003804:	17d19863          	bne	gp,t4,80003974 <fail>

80003808 <test_12>:
80003808:	00c00e13          	li	t3,12
8000380c:	00000213          	li	tp,0
80003810:	00005f97          	auipc	t6,0x5
80003814:	fe8f8f93          	add	t6,t6,-24 # 800087f8 <tdat2>
80003818:	004fa183          	lw	gp,4(t6)
8000381c:	00018313          	mv	t1,gp
80003820:	0ff01eb7          	lui	t4,0xff01
80003824:	ff0e8e93          	add	t4,t4,-16 # ff00ff0 <_entry_offset+0xff00ff0>
80003828:	15d31663          	bne	t1,t4,80003974 <fail>
8000382c:	00120213          	add	tp,tp,1 # 1 <_entry_offset+0x1>
80003830:	00200293          	li	t0,2
80003834:	fc521ee3          	bne	tp,t0,80003810 <test_12+0x8>

80003838 <test_13>:
80003838:	00d00e13          	li	t3,13
8000383c:	00000213          	li	tp,0
80003840:	00005f97          	auipc	t6,0x5
80003844:	fbcf8f93          	add	t6,t6,-68 # 800087fc <tdat3>
80003848:	004fa183          	lw	gp,4(t6)
8000384c:	00000013          	nop
80003850:	00018313          	mv	t1,gp
80003854:	f00ffeb7          	lui	t4,0xf00ff
80003858:	00fe8e93          	add	t4,t4,15 # f00ff00f <_end+0x700ee00f>
8000385c:	11d31c63          	bne	t1,t4,80003974 <fail>
80003860:	00120213          	add	tp,tp,1 # 1 <_entry_offset+0x1>
80003864:	00200293          	li	t0,2
80003868:	fc521ce3          	bne	tp,t0,80003840 <test_13+0x8>

8000386c <test_14>:
8000386c:	00e00e13          	li	t3,14
80003870:	00000213          	li	tp,0
80003874:	00005f97          	auipc	t6,0x5
80003878:	f80f8f93          	add	t6,t6,-128 # 800087f4 <tdat>
8000387c:	004fa183          	lw	gp,4(t6)
80003880:	00000013          	nop
80003884:	00000013          	nop
80003888:	00018313          	mv	t1,gp
8000388c:	ff010eb7          	lui	t4,0xff010
80003890:	f00e8e93          	add	t4,t4,-256 # ff00ff00 <_end+0x7effef00>
80003894:	0fd31063          	bne	t1,t4,80003974 <fail>
80003898:	00120213          	add	tp,tp,1 # 1 <_entry_offset+0x1>
8000389c:	00200293          	li	t0,2
800038a0:	fc521ae3          	bne	tp,t0,80003874 <test_14+0x8>

800038a4 <test_15>:
800038a4:	00f00e13          	li	t3,15
800038a8:	00000213          	li	tp,0
800038ac:	00005f97          	auipc	t6,0x5
800038b0:	f4cf8f93          	add	t6,t6,-180 # 800087f8 <tdat2>
800038b4:	004fa183          	lw	gp,4(t6)
800038b8:	0ff01eb7          	lui	t4,0xff01
800038bc:	ff0e8e93          	add	t4,t4,-16 # ff00ff0 <_entry_offset+0xff00ff0>
800038c0:	0bd19a63          	bne	gp,t4,80003974 <fail>
800038c4:	00120213          	add	tp,tp,1 # 1 <_entry_offset+0x1>
800038c8:	00200293          	li	t0,2
800038cc:	fe5210e3          	bne	tp,t0,800038ac <test_15+0x8>

800038d0 <test_16>:
800038d0:	01000e13          	li	t3,16
800038d4:	00000213          	li	tp,0
800038d8:	00005f97          	auipc	t6,0x5
800038dc:	f24f8f93          	add	t6,t6,-220 # 800087fc <tdat3>
800038e0:	00000013          	nop
800038e4:	004fa183          	lw	gp,4(t6)
800038e8:	f00ffeb7          	lui	t4,0xf00ff
800038ec:	00fe8e93          	add	t4,t4,15 # f00ff00f <_end+0x700ee00f>
800038f0:	09d19263          	bne	gp,t4,80003974 <fail>
800038f4:	00120213          	add	tp,tp,1 # 1 <_entry_offset+0x1>
800038f8:	00200293          	li	t0,2
800038fc:	fc521ee3          	bne	tp,t0,800038d8 <test_16+0x8>

80003900 <test_17>:
80003900:	01100e13          	li	t3,17
80003904:	00000213          	li	tp,0
80003908:	00005f97          	auipc	t6,0x5
8000390c:	eecf8f93          	add	t6,t6,-276 # 800087f4 <tdat>
80003910:	00000013          	nop
80003914:	00000013          	nop
80003918:	004fa183          	lw	gp,4(t6)
8000391c:	ff010eb7          	lui	t4,0xff010
80003920:	f00e8e93          	add	t4,t4,-256 # ff00ff00 <_end+0x7effef00>
80003924:	05d19863          	bne	gp,t4,80003974 <fail>
80003928:	00120213          	add	tp,tp,1 # 1 <_entry_offset+0x1>
8000392c:	00200293          	li	t0,2
80003930:	fc521ce3          	bne	tp,t0,80003908 <test_17+0x8>

80003934 <test_18>:
80003934:	00005197          	auipc	gp,0x5
80003938:	ec018193          	add	gp,gp,-320 # 800087f4 <tdat>
8000393c:	0001a103          	lw	sp,0(gp)
80003940:	00200113          	li	sp,2
80003944:	00200e93          	li	t4,2
80003948:	01200e13          	li	t3,18
8000394c:	03d11463          	bne	sp,t4,80003974 <fail>

80003950 <test_19>:
80003950:	00005197          	auipc	gp,0x5
80003954:	ea418193          	add	gp,gp,-348 # 800087f4 <tdat>
80003958:	0001a103          	lw	sp,0(gp)
8000395c:	00000013          	nop
80003960:	00200113          	li	sp,2
80003964:	00200e93          	li	t4,2
80003968:	01300e13          	li	t3,19
8000396c:	01d11463          	bne	sp,t4,80003974 <fail>
80003970:	0100006f          	j	80003980 <pass>

80003974 <fail>:
80003974:	fff00513          	li	a0,-1
80003978:	00100073          	ebreak
8000397c:	ff9ff06f          	j	80003974 <fail>

80003980 <pass>:
80003980:	00000513          	li	a0,0
80003984:	00008067          	ret

80003988 <bge>:
80003988:	00200e13          	li	t3,2
8000398c:	00000f93          	li	t6,0
80003990:	00000113          	li	sp,0
80003994:	002fd663          	bge	t6,sp,800039a0 <bge+0x18>
80003998:	31c01863          	bne	zero,t3,80003ca8 <fail>
8000399c:	01c01663          	bne	zero,t3,800039a8 <test_3>
800039a0:	fe2fdee3          	bge	t6,sp,8000399c <bge+0x14>
800039a4:	31c01263          	bne	zero,t3,80003ca8 <fail>

800039a8 <test_3>:
800039a8:	00300e13          	li	t3,3
800039ac:	00100f93          	li	t6,1
800039b0:	00100113          	li	sp,1
800039b4:	002fd663          	bge	t6,sp,800039c0 <test_3+0x18>
800039b8:	2fc01863          	bne	zero,t3,80003ca8 <fail>
800039bc:	01c01663          	bne	zero,t3,800039c8 <test_4>
800039c0:	fe2fdee3          	bge	t6,sp,800039bc <test_3+0x14>
800039c4:	2fc01263          	bne	zero,t3,80003ca8 <fail>

800039c8 <test_4>:
800039c8:	00400e13          	li	t3,4
800039cc:	fff00f93          	li	t6,-1
800039d0:	fff00113          	li	sp,-1
800039d4:	002fd663          	bge	t6,sp,800039e0 <test_4+0x18>
800039d8:	2dc01863          	bne	zero,t3,80003ca8 <fail>
800039dc:	01c01663          	bne	zero,t3,800039e8 <test_5>
800039e0:	fe2fdee3          	bge	t6,sp,800039dc <test_4+0x14>
800039e4:	2dc01263          	bne	zero,t3,80003ca8 <fail>

800039e8 <test_5>:
800039e8:	00500e13          	li	t3,5
800039ec:	00100f93          	li	t6,1
800039f0:	00000113          	li	sp,0
800039f4:	002fd663          	bge	t6,sp,80003a00 <test_5+0x18>
800039f8:	2bc01863          	bne	zero,t3,80003ca8 <fail>
800039fc:	01c01663          	bne	zero,t3,80003a08 <test_6>
80003a00:	fe2fdee3          	bge	t6,sp,800039fc <test_5+0x14>
80003a04:	2bc01263          	bne	zero,t3,80003ca8 <fail>

80003a08 <test_6>:
80003a08:	00600e13          	li	t3,6
80003a0c:	00100f93          	li	t6,1
80003a10:	fff00113          	li	sp,-1
80003a14:	002fd663          	bge	t6,sp,80003a20 <test_6+0x18>
80003a18:	29c01863          	bne	zero,t3,80003ca8 <fail>
80003a1c:	01c01663          	bne	zero,t3,80003a28 <test_7>
80003a20:	fe2fdee3          	bge	t6,sp,80003a1c <test_6+0x14>
80003a24:	29c01263          	bne	zero,t3,80003ca8 <fail>

80003a28 <test_7>:
80003a28:	00700e13          	li	t3,7
80003a2c:	fff00f93          	li	t6,-1
80003a30:	ffe00113          	li	sp,-2
80003a34:	002fd663          	bge	t6,sp,80003a40 <test_7+0x18>
80003a38:	27c01863          	bne	zero,t3,80003ca8 <fail>
80003a3c:	01c01663          	bne	zero,t3,80003a48 <test_8>
80003a40:	fe2fdee3          	bge	t6,sp,80003a3c <test_7+0x14>
80003a44:	27c01263          	bne	zero,t3,80003ca8 <fail>

80003a48 <test_8>:
80003a48:	00800e13          	li	t3,8
80003a4c:	00000f93          	li	t6,0
80003a50:	00100113          	li	sp,1
80003a54:	002fd463          	bge	t6,sp,80003a5c <test_8+0x14>
80003a58:	01c01463          	bne	zero,t3,80003a60 <test_8+0x18>
80003a5c:	25c01663          	bne	zero,t3,80003ca8 <fail>
80003a60:	fe2fdee3          	bge	t6,sp,80003a5c <test_8+0x14>

80003a64 <test_9>:
80003a64:	00900e13          	li	t3,9
80003a68:	fff00f93          	li	t6,-1
80003a6c:	00100113          	li	sp,1
80003a70:	002fd463          	bge	t6,sp,80003a78 <test_9+0x14>
80003a74:	01c01463          	bne	zero,t3,80003a7c <test_9+0x18>
80003a78:	23c01863          	bne	zero,t3,80003ca8 <fail>
80003a7c:	fe2fdee3          	bge	t6,sp,80003a78 <test_9+0x14>

80003a80 <test_10>:
80003a80:	00a00e13          	li	t3,10
80003a84:	ffe00f93          	li	t6,-2
80003a88:	fff00113          	li	sp,-1
80003a8c:	002fd463          	bge	t6,sp,80003a94 <test_10+0x14>
80003a90:	01c01463          	bne	zero,t3,80003a98 <test_10+0x18>
80003a94:	21c01a63          	bne	zero,t3,80003ca8 <fail>
80003a98:	fe2fdee3          	bge	t6,sp,80003a94 <test_10+0x14>

80003a9c <test_11>:
80003a9c:	00b00e13          	li	t3,11
80003aa0:	ffe00f93          	li	t6,-2
80003aa4:	00100113          	li	sp,1
80003aa8:	002fd463          	bge	t6,sp,80003ab0 <test_11+0x14>
80003aac:	01c01463          	bne	zero,t3,80003ab4 <test_11+0x18>
80003ab0:	1fc01c63          	bne	zero,t3,80003ca8 <fail>
80003ab4:	fe2fdee3          	bge	t6,sp,80003ab0 <test_11+0x14>

80003ab8 <test_12>:
80003ab8:	00c00e13          	li	t3,12
80003abc:	00000213          	li	tp,0
80003ac0:	fff00f93          	li	t6,-1
80003ac4:	00000113          	li	sp,0
80003ac8:	1e2fd063          	bge	t6,sp,80003ca8 <fail>
80003acc:	00120213          	add	tp,tp,1 # 1 <_entry_offset+0x1>
80003ad0:	00200293          	li	t0,2
80003ad4:	fe5216e3          	bne	tp,t0,80003ac0 <test_12+0x8>

80003ad8 <test_13>:
80003ad8:	00d00e13          	li	t3,13
80003adc:	00000213          	li	tp,0
80003ae0:	fff00f93          	li	t6,-1
80003ae4:	00000113          	li	sp,0
80003ae8:	00000013          	nop
80003aec:	1a2fde63          	bge	t6,sp,80003ca8 <fail>
80003af0:	00120213          	add	tp,tp,1 # 1 <_entry_offset+0x1>
80003af4:	00200293          	li	t0,2
80003af8:	fe5214e3          	bne	tp,t0,80003ae0 <test_13+0x8>

80003afc <test_14>:
80003afc:	00e00e13          	li	t3,14
80003b00:	00000213          	li	tp,0
80003b04:	fff00f93          	li	t6,-1
80003b08:	00000113          	li	sp,0
80003b0c:	00000013          	nop
80003b10:	00000013          	nop
80003b14:	182fda63          	bge	t6,sp,80003ca8 <fail>
80003b18:	00120213          	add	tp,tp,1 # 1 <_entry_offset+0x1>
80003b1c:	00200293          	li	t0,2
80003b20:	fe5212e3          	bne	tp,t0,80003b04 <test_14+0x8>

80003b24 <test_15>:
80003b24:	00f00e13          	li	t3,15
80003b28:	00000213          	li	tp,0
80003b2c:	fff00f93          	li	t6,-1
80003b30:	00000013          	nop
80003b34:	00000113          	li	sp,0
80003b38:	162fd863          	bge	t6,sp,80003ca8 <fail>
80003b3c:	00120213          	add	tp,tp,1 # 1 <_entry_offset+0x1>
80003b40:	00200293          	li	t0,2
80003b44:	fe5214e3          	bne	tp,t0,80003b2c <test_15+0x8>

80003b48 <test_16>:
80003b48:	01000e13          	li	t3,16
80003b4c:	00000213          	li	tp,0
80003b50:	fff00f93          	li	t6,-1
80003b54:	00000013          	nop
80003b58:	00000113          	li	sp,0
80003b5c:	00000013          	nop
80003b60:	142fd463          	bge	t6,sp,80003ca8 <fail>
80003b64:	00120213          	add	tp,tp,1 # 1 <_entry_offset+0x1>
80003b68:	00200293          	li	t0,2
80003b6c:	fe5212e3          	bne	tp,t0,80003b50 <test_16+0x8>

80003b70 <test_17>:
80003b70:	01100e13          	li	t3,17
80003b74:	00000213          	li	tp,0
80003b78:	fff00f93          	li	t6,-1
80003b7c:	00000013          	nop
80003b80:	00000013          	nop
80003b84:	00000113          	li	sp,0
80003b88:	122fd063          	bge	t6,sp,80003ca8 <fail>
80003b8c:	00120213          	add	tp,tp,1 # 1 <_entry_offset+0x1>
80003b90:	00200293          	li	t0,2
80003b94:	fe5212e3          	bne	tp,t0,80003b78 <test_17+0x8>

80003b98 <test_18>:
80003b98:	01200e13          	li	t3,18
80003b9c:	00000213          	li	tp,0
80003ba0:	fff00f93          	li	t6,-1
80003ba4:	00000113          	li	sp,0
80003ba8:	102fd063          	bge	t6,sp,80003ca8 <fail>
80003bac:	00120213          	add	tp,tp,1 # 1 <_entry_offset+0x1>
80003bb0:	00200293          	li	t0,2
80003bb4:	fe5216e3          	bne	tp,t0,80003ba0 <test_18+0x8>

80003bb8 <test_19>:
80003bb8:	01300e13          	li	t3,19
80003bbc:	00000213          	li	tp,0
80003bc0:	fff00f93          	li	t6,-1
80003bc4:	00000113          	li	sp,0
80003bc8:	00000013          	nop
80003bcc:	0c2fde63          	bge	t6,sp,80003ca8 <fail>
80003bd0:	00120213          	add	tp,tp,1 # 1 <_entry_offset+0x1>
80003bd4:	00200293          	li	t0,2
80003bd8:	fe5214e3          	bne	tp,t0,80003bc0 <test_19+0x8>

80003bdc <test_20>:
80003bdc:	01400e13          	li	t3,20
80003be0:	00000213          	li	tp,0
80003be4:	fff00f93          	li	t6,-1
80003be8:	00000113          	li	sp,0
80003bec:	00000013          	nop
80003bf0:	00000013          	nop
80003bf4:	0a2fda63          	bge	t6,sp,80003ca8 <fail>
80003bf8:	00120213          	add	tp,tp,1 # 1 <_entry_offset+0x1>
80003bfc:	00200293          	li	t0,2
80003c00:	fe5212e3          	bne	tp,t0,80003be4 <test_20+0x8>

80003c04 <test_21>:
80003c04:	01500e13          	li	t3,21
80003c08:	00000213          	li	tp,0
80003c0c:	fff00f93          	li	t6,-1
80003c10:	00000013          	nop
80003c14:	00000113          	li	sp,0
80003c18:	082fd863          	bge	t6,sp,80003ca8 <fail>
80003c1c:	00120213          	add	tp,tp,1 # 1 <_entry_offset+0x1>
80003c20:	00200293          	li	t0,2
80003c24:	fe5214e3          	bne	tp,t0,80003c0c <test_21+0x8>

80003c28 <test_22>:
80003c28:	01600e13          	li	t3,22
80003c2c:	00000213          	li	tp,0
80003c30:	fff00f93          	li	t6,-1
80003c34:	00000013          	nop
80003c38:	00000113          	li	sp,0
80003c3c:	00000013          	nop
80003c40:	062fd463          	bge	t6,sp,80003ca8 <fail>
80003c44:	00120213          	add	tp,tp,1 # 1 <_entry_offset+0x1>
80003c48:	00200293          	li	t0,2
80003c4c:	fe5212e3          	bne	tp,t0,80003c30 <test_22+0x8>

80003c50 <test_23>:
80003c50:	01700e13          	li	t3,23
80003c54:	00000213          	li	tp,0
80003c58:	fff00f93          	li	t6,-1
80003c5c:	00000013          	nop
80003c60:	00000013          	nop
80003c64:	00000113          	li	sp,0
80003c68:	042fd063          	bge	t6,sp,80003ca8 <fail>
80003c6c:	00120213          	add	tp,tp,1 # 1 <_entry_offset+0x1>
80003c70:	00200293          	li	t0,2
80003c74:	fe5212e3          	bne	tp,t0,80003c58 <test_23+0x8>

80003c78 <test_24>:
80003c78:	00100f93          	li	t6,1
80003c7c:	000fda63          	bgez	t6,80003c90 <test_24+0x18>
80003c80:	001f8f93          	add	t6,t6,1
80003c84:	001f8f93          	add	t6,t6,1
80003c88:	001f8f93          	add	t6,t6,1
80003c8c:	001f8f93          	add	t6,t6,1
80003c90:	001f8f93          	add	t6,t6,1
80003c94:	001f8f93          	add	t6,t6,1
80003c98:	00300e93          	li	t4,3
80003c9c:	01800e13          	li	t3,24
80003ca0:	01df9463          	bne	t6,t4,80003ca8 <fail>
80003ca4:	0100006f          	j	80003cb4 <pass>

80003ca8 <fail>:
80003ca8:	fff00513          	li	a0,-1
80003cac:	00100073          	ebreak
80003cb0:	ff9ff06f          	j	80003ca8 <fail>

80003cb4 <pass>:
80003cb4:	00000513          	li	a0,0
80003cb8:	00008067          	ret

80003cbc <simple>:
80003cbc:	00000513          	li	a0,0
80003cc0:	00008067          	ret

80003cc4 <or>:
80003cc4:	ff010fb7          	lui	t6,0xff010
80003cc8:	f00f8f93          	add	t6,t6,-256 # ff00ff00 <_end+0x7effef00>
80003ccc:	0f0f1137          	lui	sp,0xf0f1
80003cd0:	f0f10113          	add	sp,sp,-241 # f0f0f0f <_entry_offset+0xf0f0f0f>
80003cd4:	002fe1b3          	or	gp,t6,sp
80003cd8:	ff100eb7          	lui	t4,0xff100
80003cdc:	f0fe8e93          	add	t4,t4,-241 # ff0fff0f <_end+0x7f0eef0f>
80003ce0:	00200e13          	li	t3,2
80003ce4:	4bd19263          	bne	gp,t4,80004188 <fail>

80003ce8 <test_3>:
80003ce8:	0ff01fb7          	lui	t6,0xff01
80003cec:	ff0f8f93          	add	t6,t6,-16 # ff00ff0 <_entry_offset+0xff00ff0>
80003cf0:	f0f0f137          	lui	sp,0xf0f0f
80003cf4:	0f010113          	add	sp,sp,240 # f0f0f0f0 <_end+0x70efe0f0>
80003cf8:	002fe1b3          	or	gp,t6,sp
80003cfc:	fff10eb7          	lui	t4,0xfff10
80003d00:	ff0e8e93          	add	t4,t4,-16 # fff0fff0 <_end+0x7fefeff0>
80003d04:	00300e13          	li	t3,3
80003d08:	49d19063          	bne	gp,t4,80004188 <fail>

80003d0c <test_4>:
80003d0c:	00ff0fb7          	lui	t6,0xff0
80003d10:	0fff8f93          	add	t6,t6,255 # ff00ff <_entry_offset+0xff00ff>
80003d14:	0f0f1137          	lui	sp,0xf0f1
80003d18:	f0f10113          	add	sp,sp,-241 # f0f0f0f <_entry_offset+0xf0f0f0f>
80003d1c:	002fe1b3          	or	gp,t6,sp
80003d20:	0fff1eb7          	lui	t4,0xfff1
80003d24:	fffe8e93          	add	t4,t4,-1 # fff0fff <_entry_offset+0xfff0fff>
80003d28:	00400e13          	li	t3,4
80003d2c:	45d19e63          	bne	gp,t4,80004188 <fail>

80003d30 <test_5>:
80003d30:	f00fffb7          	lui	t6,0xf00ff
80003d34:	00ff8f93          	add	t6,t6,15 # f00ff00f <_end+0x700ee00f>
80003d38:	f0f0f137          	lui	sp,0xf0f0f
80003d3c:	0f010113          	add	sp,sp,240 # f0f0f0f0 <_end+0x70efe0f0>
80003d40:	002fe1b3          	or	gp,t6,sp
80003d44:	f0fffeb7          	lui	t4,0xf0fff
80003d48:	0ffe8e93          	add	t4,t4,255 # f0fff0ff <_end+0x70fee0ff>
80003d4c:	00500e13          	li	t3,5
80003d50:	43d19c63          	bne	gp,t4,80004188 <fail>

80003d54 <test_6>:
80003d54:	ff010fb7          	lui	t6,0xff010
80003d58:	f00f8f93          	add	t6,t6,-256 # ff00ff00 <_end+0x7effef00>
80003d5c:	0f0f1137          	lui	sp,0xf0f1
80003d60:	f0f10113          	add	sp,sp,-241 # f0f0f0f <_entry_offset+0xf0f0f0f>
80003d64:	002fefb3          	or	t6,t6,sp
80003d68:	ff100eb7          	lui	t4,0xff100
80003d6c:	f0fe8e93          	add	t4,t4,-241 # ff0fff0f <_end+0x7f0eef0f>
80003d70:	00600e13          	li	t3,6
80003d74:	41df9a63          	bne	t6,t4,80004188 <fail>

80003d78 <test_7>:
80003d78:	ff010fb7          	lui	t6,0xff010
80003d7c:	f00f8f93          	add	t6,t6,-256 # ff00ff00 <_end+0x7effef00>
80003d80:	0f0f1137          	lui	sp,0xf0f1
80003d84:	f0f10113          	add	sp,sp,-241 # f0f0f0f <_entry_offset+0xf0f0f0f>
80003d88:	002fe133          	or	sp,t6,sp
80003d8c:	ff100eb7          	lui	t4,0xff100
80003d90:	f0fe8e93          	add	t4,t4,-241 # ff0fff0f <_end+0x7f0eef0f>
80003d94:	00700e13          	li	t3,7
80003d98:	3fd11863          	bne	sp,t4,80004188 <fail>

80003d9c <test_8>:
80003d9c:	ff010fb7          	lui	t6,0xff010
80003da0:	f00f8f93          	add	t6,t6,-256 # ff00ff00 <_end+0x7effef00>
80003da4:	01ffefb3          	or	t6,t6,t6
80003da8:	ff010eb7          	lui	t4,0xff010
80003dac:	f00e8e93          	add	t4,t4,-256 # ff00ff00 <_end+0x7effef00>
80003db0:	00800e13          	li	t3,8
80003db4:	3ddf9a63          	bne	t6,t4,80004188 <fail>

80003db8 <test_9>:
80003db8:	00000213          	li	tp,0
80003dbc:	ff010fb7          	lui	t6,0xff010
80003dc0:	f00f8f93          	add	t6,t6,-256 # ff00ff00 <_end+0x7effef00>
80003dc4:	0f0f1137          	lui	sp,0xf0f1
80003dc8:	f0f10113          	add	sp,sp,-241 # f0f0f0f <_entry_offset+0xf0f0f0f>
80003dcc:	002fe1b3          	or	gp,t6,sp
80003dd0:	00018313          	mv	t1,gp
80003dd4:	00120213          	add	tp,tp,1 # 1 <_entry_offset+0x1>
80003dd8:	00200293          	li	t0,2
80003ddc:	fe5210e3          	bne	tp,t0,80003dbc <test_9+0x4>
80003de0:	ff100eb7          	lui	t4,0xff100
80003de4:	f0fe8e93          	add	t4,t4,-241 # ff0fff0f <_end+0x7f0eef0f>
80003de8:	00900e13          	li	t3,9
80003dec:	39d31e63          	bne	t1,t4,80004188 <fail>

80003df0 <test_10>:
80003df0:	00000213          	li	tp,0
80003df4:	0ff01fb7          	lui	t6,0xff01
80003df8:	ff0f8f93          	add	t6,t6,-16 # ff00ff0 <_entry_offset+0xff00ff0>
80003dfc:	f0f0f137          	lui	sp,0xf0f0f
80003e00:	0f010113          	add	sp,sp,240 # f0f0f0f0 <_end+0x70efe0f0>
80003e04:	002fe1b3          	or	gp,t6,sp
80003e08:	00000013          	nop
80003e0c:	00018313          	mv	t1,gp
80003e10:	00120213          	add	tp,tp,1 # 1 <_entry_offset+0x1>
80003e14:	00200293          	li	t0,2
80003e18:	fc521ee3          	bne	tp,t0,80003df4 <test_10+0x4>
80003e1c:	fff10eb7          	lui	t4,0xfff10
80003e20:	ff0e8e93          	add	t4,t4,-16 # fff0fff0 <_end+0x7fefeff0>
80003e24:	00a00e13          	li	t3,10
80003e28:	37d31063          	bne	t1,t4,80004188 <fail>

80003e2c <test_11>:
80003e2c:	00000213          	li	tp,0
80003e30:	00ff0fb7          	lui	t6,0xff0
80003e34:	0fff8f93          	add	t6,t6,255 # ff00ff <_entry_offset+0xff00ff>
80003e38:	0f0f1137          	lui	sp,0xf0f1
80003e3c:	f0f10113          	add	sp,sp,-241 # f0f0f0f <_entry_offset+0xf0f0f0f>
80003e40:	002fe1b3          	or	gp,t6,sp
80003e44:	00000013          	nop
80003e48:	00000013          	nop
80003e4c:	00018313          	mv	t1,gp
80003e50:	00120213          	add	tp,tp,1 # 1 <_entry_offset+0x1>
80003e54:	00200293          	li	t0,2
80003e58:	fc521ce3          	bne	tp,t0,80003e30 <test_11+0x4>
80003e5c:	0fff1eb7          	lui	t4,0xfff1
80003e60:	fffe8e93          	add	t4,t4,-1 # fff0fff <_entry_offset+0xfff0fff>
80003e64:	00b00e13          	li	t3,11
80003e68:	33d31063          	bne	t1,t4,80004188 <fail>

80003e6c <test_12>:
80003e6c:	00000213          	li	tp,0
80003e70:	ff010fb7          	lui	t6,0xff010
80003e74:	f00f8f93          	add	t6,t6,-256 # ff00ff00 <_end+0x7effef00>
80003e78:	0f0f1137          	lui	sp,0xf0f1
80003e7c:	f0f10113          	add	sp,sp,-241 # f0f0f0f <_entry_offset+0xf0f0f0f>
80003e80:	002fe1b3          	or	gp,t6,sp
80003e84:	00120213          	add	tp,tp,1 # 1 <_entry_offset+0x1>
80003e88:	00200293          	li	t0,2
80003e8c:	fe5212e3          	bne	tp,t0,80003e70 <test_12+0x4>
80003e90:	ff100eb7          	lui	t4,0xff100
80003e94:	f0fe8e93          	add	t4,t4,-241 # ff0fff0f <_end+0x7f0eef0f>
80003e98:	00c00e13          	li	t3,12
80003e9c:	2fd19663          	bne	gp,t4,80004188 <fail>

80003ea0 <test_13>:
80003ea0:	00000213          	li	tp,0
80003ea4:	0ff01fb7          	lui	t6,0xff01
80003ea8:	ff0f8f93          	add	t6,t6,-16 # ff00ff0 <_entry_offset+0xff00ff0>
80003eac:	f0f0f137          	lui	sp,0xf0f0f
80003eb0:	0f010113          	add	sp,sp,240 # f0f0f0f0 <_end+0x70efe0f0>
80003eb4:	00000013          	nop
80003eb8:	002fe1b3          	or	gp,t6,sp
80003ebc:	00120213          	add	tp,tp,1 # 1 <_entry_offset+0x1>
80003ec0:	00200293          	li	t0,2
80003ec4:	fe5210e3          	bne	tp,t0,80003ea4 <test_13+0x4>
80003ec8:	fff10eb7          	lui	t4,0xfff10
80003ecc:	ff0e8e93          	add	t4,t4,-16 # fff0fff0 <_end+0x7fefeff0>
80003ed0:	00d00e13          	li	t3,13
80003ed4:	2bd19a63          	bne	gp,t4,80004188 <fail>

80003ed8 <test_14>:
80003ed8:	00000213          	li	tp,0
80003edc:	00ff0fb7          	lui	t6,0xff0
80003ee0:	0fff8f93          	add	t6,t6,255 # ff00ff <_entry_offset+0xff00ff>
80003ee4:	0f0f1137          	lui	sp,0xf0f1
80003ee8:	f0f10113          	add	sp,sp,-241 # f0f0f0f <_entry_offset+0xf0f0f0f>
80003eec:	00000013          	nop
80003ef0:	00000013          	nop
80003ef4:	002fe1b3          	or	gp,t6,sp
80003ef8:	00120213          	add	tp,tp,1 # 1 <_entry_offset+0x1>
80003efc:	00200293          	li	t0,2
80003f00:	fc521ee3          	bne	tp,t0,80003edc <test_14+0x4>
80003f04:	0fff1eb7          	lui	t4,0xfff1
80003f08:	fffe8e93          	add	t4,t4,-1 # fff0fff <_entry_offset+0xfff0fff>
80003f0c:	00e00e13          	li	t3,14
80003f10:	27d19c63          	bne	gp,t4,80004188 <fail>

80003f14 <test_15>:
80003f14:	00000213          	li	tp,0
80003f18:	ff010fb7          	lui	t6,0xff010
80003f1c:	f00f8f93          	add	t6,t6,-256 # ff00ff00 <_end+0x7effef00>
80003f20:	00000013          	nop
80003f24:	0f0f1137          	lui	sp,0xf0f1
80003f28:	f0f10113          	add	sp,sp,-241 # f0f0f0f <_entry_offset+0xf0f0f0f>
80003f2c:	002fe1b3          	or	gp,t6,sp
80003f30:	00120213          	add	tp,tp,1 # 1 <_entry_offset+0x1>
80003f34:	00200293          	li	t0,2
80003f38:	fe5210e3          	bne	tp,t0,80003f18 <test_15+0x4>
80003f3c:	ff100eb7          	lui	t4,0xff100
80003f40:	f0fe8e93          	add	t4,t4,-241 # ff0fff0f <_end+0x7f0eef0f>
80003f44:	00f00e13          	li	t3,15
80003f48:	25d19063          	bne	gp,t4,80004188 <fail>

80003f4c <test_16>:
80003f4c:	00000213          	li	tp,0
80003f50:	0ff01fb7          	lui	t6,0xff01
80003f54:	ff0f8f93          	add	t6,t6,-16 # ff00ff0 <_entry_offset+0xff00ff0>
80003f58:	00000013          	nop
80003f5c:	f0f0f137          	lui	sp,0xf0f0f
80003f60:	0f010113          	add	sp,sp,240 # f0f0f0f0 <_end+0x70efe0f0>
80003f64:	00000013          	nop
80003f68:	002fe1b3          	or	gp,t6,sp
80003f6c:	00120213          	add	tp,tp,1 # 1 <_entry_offset+0x1>
80003f70:	00200293          	li	t0,2
80003f74:	fc521ee3          	bne	tp,t0,80003f50 <test_16+0x4>
80003f78:	fff10eb7          	lui	t4,0xfff10
80003f7c:	ff0e8e93          	add	t4,t4,-16 # fff0fff0 <_end+0x7fefeff0>
80003f80:	01000e13          	li	t3,16
80003f84:	21d19263          	bne	gp,t4,80004188 <fail>

80003f88 <test_17>:
80003f88:	00000213          	li	tp,0
80003f8c:	00ff0fb7          	lui	t6,0xff0
80003f90:	0fff8f93          	add	t6,t6,255 # ff00ff <_entry_offset+0xff00ff>
80003f94:	00000013          	nop
80003f98:	00000013          	nop
80003f9c:	0f0f1137          	lui	sp,0xf0f1
80003fa0:	f0f10113          	add	sp,sp,-241 # f0f0f0f <_entry_offset+0xf0f0f0f>
80003fa4:	002fe1b3          	or	gp,t6,sp
80003fa8:	00120213          	add	tp,tp,1 # 1 <_entry_offset+0x1>
80003fac:	00200293          	li	t0,2
80003fb0:	fc521ee3          	bne	tp,t0,80003f8c <test_17+0x4>
80003fb4:	0fff1eb7          	lui	t4,0xfff1
80003fb8:	fffe8e93          	add	t4,t4,-1 # fff0fff <_entry_offset+0xfff0fff>
80003fbc:	01100e13          	li	t3,17
80003fc0:	1dd19463          	bne	gp,t4,80004188 <fail>

80003fc4 <test_18>:
80003fc4:	00000213          	li	tp,0
80003fc8:	0f0f1137          	lui	sp,0xf0f1
80003fcc:	f0f10113          	add	sp,sp,-241 # f0f0f0f <_entry_offset+0xf0f0f0f>
80003fd0:	ff010fb7          	lui	t6,0xff010
80003fd4:	f00f8f93          	add	t6,t6,-256 # ff00ff00 <_end+0x7effef00>
80003fd8:	002fe1b3          	or	gp,t6,sp
80003fdc:	00120213          	add	tp,tp,1 # 1 <_entry_offset+0x1>
80003fe0:	00200293          	li	t0,2
80003fe4:	fe5212e3          	bne	tp,t0,80003fc8 <test_18+0x4>
80003fe8:	ff100eb7          	lui	t4,0xff100
80003fec:	f0fe8e93          	add	t4,t4,-241 # ff0fff0f <_end+0x7f0eef0f>
80003ff0:	01200e13          	li	t3,18
80003ff4:	19d19a63          	bne	gp,t4,80004188 <fail>

80003ff8 <test_19>:
80003ff8:	00000213          	li	tp,0
80003ffc:	f0f0f137          	lui	sp,0xf0f0f
80004000:	0f010113          	add	sp,sp,240 # f0f0f0f0 <_end+0x70efe0f0>
80004004:	0ff01fb7          	lui	t6,0xff01
80004008:	ff0f8f93          	add	t6,t6,-16 # ff00ff0 <_entry_offset+0xff00ff0>
8000400c:	00000013          	nop
80004010:	002fe1b3          	or	gp,t6,sp
80004014:	00120213          	add	tp,tp,1 # 1 <_entry_offset+0x1>
80004018:	00200293          	li	t0,2
8000401c:	fe5210e3          	bne	tp,t0,80003ffc <test_19+0x4>
80004020:	fff10eb7          	lui	t4,0xfff10
80004024:	ff0e8e93          	add	t4,t4,-16 # fff0fff0 <_end+0x7fefeff0>
80004028:	01300e13          	li	t3,19
8000402c:	15d19e63          	bne	gp,t4,80004188 <fail>

80004030 <test_20>:
80004030:	00000213          	li	tp,0
80004034:	0f0f1137          	lui	sp,0xf0f1
80004038:	f0f10113          	add	sp,sp,-241 # f0f0f0f <_entry_offset+0xf0f0f0f>
8000403c:	00ff0fb7          	lui	t6,0xff0
80004040:	0fff8f93          	add	t6,t6,255 # ff00ff <_entry_offset+0xff00ff>
80004044:	00000013          	nop
80004048:	00000013          	nop
8000404c:	002fe1b3          	or	gp,t6,sp
80004050:	00120213          	add	tp,tp,1 # 1 <_entry_offset+0x1>
80004054:	00200293          	li	t0,2
80004058:	fc521ee3          	bne	tp,t0,80004034 <test_20+0x4>
8000405c:	0fff1eb7          	lui	t4,0xfff1
80004060:	fffe8e93          	add	t4,t4,-1 # fff0fff <_entry_offset+0xfff0fff>
80004064:	01400e13          	li	t3,20
80004068:	13d19063          	bne	gp,t4,80004188 <fail>

8000406c <test_21>:
8000406c:	00000213          	li	tp,0
80004070:	0f0f1137          	lui	sp,0xf0f1
80004074:	f0f10113          	add	sp,sp,-241 # f0f0f0f <_entry_offset+0xf0f0f0f>
80004078:	00000013          	nop
8000407c:	ff010fb7          	lui	t6,0xff010
80004080:	f00f8f93          	add	t6,t6,-256 # ff00ff00 <_end+0x7effef00>
80004084:	002fe1b3          	or	gp,t6,sp
80004088:	00120213          	add	tp,tp,1 # 1 <_entry_offset+0x1>
8000408c:	00200293          	li	t0,2
80004090:	fe5210e3          	bne	tp,t0,80004070 <test_21+0x4>
80004094:	ff100eb7          	lui	t4,0xff100
80004098:	f0fe8e93          	add	t4,t4,-241 # ff0fff0f <_end+0x7f0eef0f>
8000409c:	01500e13          	li	t3,21
800040a0:	0fd19463          	bne	gp,t4,80004188 <fail>

800040a4 <test_22>:
800040a4:	00000213          	li	tp,0
800040a8:	f0f0f137          	lui	sp,0xf0f0f
800040ac:	0f010113          	add	sp,sp,240 # f0f0f0f0 <_end+0x70efe0f0>
800040b0:	00000013          	nop
800040b4:	0ff01fb7          	lui	t6,0xff01
800040b8:	ff0f8f93          	add	t6,t6,-16 # ff00ff0 <_entry_offset+0xff00ff0>
800040bc:	00000013          	nop
800040c0:	002fe1b3          	or	gp,t6,sp
800040c4:	00120213          	add	tp,tp,1 # 1 <_entry_offset+0x1>
800040c8:	00200293          	li	t0,2
800040cc:	fc521ee3          	bne	tp,t0,800040a8 <test_22+0x4>
800040d0:	fff10eb7          	lui	t4,0xfff10
800040d4:	ff0e8e93          	add	t4,t4,-16 # fff0fff0 <_end+0x7fefeff0>
800040d8:	01600e13          	li	t3,22
800040dc:	0bd19663          	bne	gp,t4,80004188 <fail>

800040e0 <test_23>:
800040e0:	00000213          	li	tp,0
800040e4:	0f0f1137          	lui	sp,0xf0f1
800040e8:	f0f10113          	add	sp,sp,-241 # f0f0f0f <_entry_offset+0xf0f0f0f>
800040ec:	00000013          	nop
800040f0:	00000013          	nop
800040f4:	00ff0fb7          	lui	t6,0xff0
800040f8:	0fff8f93          	add	t6,t6,255 # ff00ff <_entry_offset+0xff00ff>
800040fc:	002fe1b3          	or	gp,t6,sp
80004100:	00120213          	add	tp,tp,1 # 1 <_entry_offset+0x1>
80004104:	00200293          	li	t0,2
80004108:	fc521ee3          	bne	tp,t0,800040e4 <test_23+0x4>
8000410c:	0fff1eb7          	lui	t4,0xfff1
80004110:	fffe8e93          	add	t4,t4,-1 # fff0fff <_entry_offset+0xfff0fff>
80004114:	01700e13          	li	t3,23
80004118:	07d19863          	bne	gp,t4,80004188 <fail>

8000411c <test_24>:
8000411c:	ff010fb7          	lui	t6,0xff010
80004120:	f00f8f93          	add	t6,t6,-256 # ff00ff00 <_end+0x7effef00>
80004124:	01f06133          	or	sp,zero,t6
80004128:	ff010eb7          	lui	t4,0xff010
8000412c:	f00e8e93          	add	t4,t4,-256 # ff00ff00 <_end+0x7effef00>
80004130:	01800e13          	li	t3,24
80004134:	05d11a63          	bne	sp,t4,80004188 <fail>

80004138 <test_25>:
80004138:	00ff0fb7          	lui	t6,0xff0
8000413c:	0fff8f93          	add	t6,t6,255 # ff00ff <_entry_offset+0xff00ff>
80004140:	000fe133          	or	sp,t6,zero
80004144:	00ff0eb7          	lui	t4,0xff0
80004148:	0ffe8e93          	add	t4,t4,255 # ff00ff <_entry_offset+0xff00ff>
8000414c:	01900e13          	li	t3,25
80004150:	03d11c63          	bne	sp,t4,80004188 <fail>

80004154 <test_26>:
80004154:	00006fb3          	or	t6,zero,zero
80004158:	00000e93          	li	t4,0
8000415c:	01a00e13          	li	t3,26
80004160:	03df9463          	bne	t6,t4,80004188 <fail>

80004164 <test_27>:
80004164:	11111fb7          	lui	t6,0x11111
80004168:	111f8f93          	add	t6,t6,273 # 11111111 <_entry_offset+0x11111111>
8000416c:	22222137          	lui	sp,0x22222
80004170:	22210113          	add	sp,sp,546 # 22222222 <_entry_offset+0x22222222>
80004174:	002fe033          	or	zero,t6,sp
80004178:	00000e93          	li	t4,0
8000417c:	01b00e13          	li	t3,27
80004180:	01d01463          	bne	zero,t4,80004188 <fail>
80004184:	0100006f          	j	80004194 <pass>

80004188 <fail>:
80004188:	fff00513          	li	a0,-1
8000418c:	00100073          	ebreak
80004190:	ff9ff06f          	j	80004188 <fail>

80004194 <pass>:
80004194:	00000513          	li	a0,0
80004198:	00008067          	ret

8000419c <slli>:
8000419c:	00100f93          	li	t6,1
800041a0:	000f9193          	sll	gp,t6,0x0
800041a4:	00100e93          	li	t4,1
800041a8:	00200e13          	li	t3,2
800041ac:	27d19a63          	bne	gp,t4,80004420 <fail>

800041b0 <test_3>:
800041b0:	00100f93          	li	t6,1
800041b4:	001f9193          	sll	gp,t6,0x1
800041b8:	00200e93          	li	t4,2
800041bc:	00300e13          	li	t3,3
800041c0:	27d19063          	bne	gp,t4,80004420 <fail>

800041c4 <test_4>:
800041c4:	00100f93          	li	t6,1
800041c8:	007f9193          	sll	gp,t6,0x7
800041cc:	08000e93          	li	t4,128
800041d0:	00400e13          	li	t3,4
800041d4:	25d19663          	bne	gp,t4,80004420 <fail>

800041d8 <test_5>:
800041d8:	00100f93          	li	t6,1
800041dc:	00ef9193          	sll	gp,t6,0xe
800041e0:	00004eb7          	lui	t4,0x4
800041e4:	00500e13          	li	t3,5
800041e8:	23d19c63          	bne	gp,t4,80004420 <fail>

800041ec <test_6>:
800041ec:	00100f93          	li	t6,1
800041f0:	01ff9193          	sll	gp,t6,0x1f
800041f4:	80000eb7          	lui	t4,0x80000
800041f8:	00600e13          	li	t3,6
800041fc:	23d19263          	bne	gp,t4,80004420 <fail>

80004200 <test_7>:
80004200:	fff00f93          	li	t6,-1
80004204:	000f9193          	sll	gp,t6,0x0
80004208:	fff00e93          	li	t4,-1
8000420c:	00700e13          	li	t3,7
80004210:	21d19863          	bne	gp,t4,80004420 <fail>

80004214 <test_8>:
80004214:	fff00f93          	li	t6,-1
80004218:	001f9193          	sll	gp,t6,0x1
8000421c:	ffe00e93          	li	t4,-2
80004220:	00800e13          	li	t3,8
80004224:	1fd19e63          	bne	gp,t4,80004420 <fail>

80004228 <test_9>:
80004228:	fff00f93          	li	t6,-1
8000422c:	007f9193          	sll	gp,t6,0x7
80004230:	f8000e93          	li	t4,-128
80004234:	00900e13          	li	t3,9
80004238:	1fd19463          	bne	gp,t4,80004420 <fail>

8000423c <test_10>:
8000423c:	fff00f93          	li	t6,-1
80004240:	00ef9193          	sll	gp,t6,0xe
80004244:	ffffceb7          	lui	t4,0xffffc
80004248:	00a00e13          	li	t3,10
8000424c:	1dd19a63          	bne	gp,t4,80004420 <fail>

80004250 <test_11>:
80004250:	fff00f93          	li	t6,-1
80004254:	01ff9193          	sll	gp,t6,0x1f
80004258:	80000eb7          	lui	t4,0x80000
8000425c:	00b00e13          	li	t3,11
80004260:	1dd19063          	bne	gp,t4,80004420 <fail>

80004264 <test_12>:
80004264:	21212fb7          	lui	t6,0x21212
80004268:	121f8f93          	add	t6,t6,289 # 21212121 <_entry_offset+0x21212121>
8000426c:	000f9193          	sll	gp,t6,0x0
80004270:	21212eb7          	lui	t4,0x21212
80004274:	121e8e93          	add	t4,t4,289 # 21212121 <_entry_offset+0x21212121>
80004278:	00c00e13          	li	t3,12
8000427c:	1bd19263          	bne	gp,t4,80004420 <fail>

80004280 <test_13>:
80004280:	21212fb7          	lui	t6,0x21212
80004284:	121f8f93          	add	t6,t6,289 # 21212121 <_entry_offset+0x21212121>
80004288:	001f9193          	sll	gp,t6,0x1
8000428c:	42424eb7          	lui	t4,0x42424
80004290:	242e8e93          	add	t4,t4,578 # 42424242 <_entry_offset+0x42424242>
80004294:	00d00e13          	li	t3,13
80004298:	19d19463          	bne	gp,t4,80004420 <fail>

8000429c <test_14>:
8000429c:	21212fb7          	lui	t6,0x21212
800042a0:	121f8f93          	add	t6,t6,289 # 21212121 <_entry_offset+0x21212121>
800042a4:	007f9193          	sll	gp,t6,0x7
800042a8:	90909eb7          	lui	t4,0x90909
800042ac:	080e8e93          	add	t4,t4,128 # 90909080 <_end+0x108f8080>
800042b0:	00e00e13          	li	t3,14
800042b4:	17d19663          	bne	gp,t4,80004420 <fail>

800042b8 <test_15>:
800042b8:	21212fb7          	lui	t6,0x21212
800042bc:	121f8f93          	add	t6,t6,289 # 21212121 <_entry_offset+0x21212121>
800042c0:	00ef9193          	sll	gp,t6,0xe
800042c4:	48484eb7          	lui	t4,0x48484
800042c8:	00f00e13          	li	t3,15
800042cc:	15d19a63          	bne	gp,t4,80004420 <fail>

800042d0 <test_16>:
800042d0:	21212fb7          	lui	t6,0x21212
800042d4:	121f8f93          	add	t6,t6,289 # 21212121 <_entry_offset+0x21212121>
800042d8:	01ff9193          	sll	gp,t6,0x1f
800042dc:	80000eb7          	lui	t4,0x80000
800042e0:	01000e13          	li	t3,16
800042e4:	13d19e63          	bne	gp,t4,80004420 <fail>

800042e8 <test_17>:
800042e8:	00100f93          	li	t6,1
800042ec:	007f9f93          	sll	t6,t6,0x7
800042f0:	08000e93          	li	t4,128
800042f4:	01100e13          	li	t3,17
800042f8:	13df9463          	bne	t6,t4,80004420 <fail>

800042fc <test_18>:
800042fc:	00000213          	li	tp,0
80004300:	00100f93          	li	t6,1
80004304:	007f9193          	sll	gp,t6,0x7
80004308:	00018313          	mv	t1,gp
8000430c:	00120213          	add	tp,tp,1 # 1 <_entry_offset+0x1>
80004310:	00200293          	li	t0,2
80004314:	fe5216e3          	bne	tp,t0,80004300 <test_18+0x4>
80004318:	08000e93          	li	t4,128
8000431c:	01200e13          	li	t3,18
80004320:	11d31063          	bne	t1,t4,80004420 <fail>

80004324 <test_19>:
80004324:	00000213          	li	tp,0
80004328:	00100f93          	li	t6,1
8000432c:	00ef9193          	sll	gp,t6,0xe
80004330:	00000013          	nop
80004334:	00018313          	mv	t1,gp
80004338:	00120213          	add	tp,tp,1 # 1 <_entry_offset+0x1>
8000433c:	00200293          	li	t0,2
80004340:	fe5214e3          	bne	tp,t0,80004328 <test_19+0x4>
80004344:	00004eb7          	lui	t4,0x4
80004348:	01300e13          	li	t3,19
8000434c:	0dd31a63          	bne	t1,t4,80004420 <fail>

80004350 <test_20>:
80004350:	00000213          	li	tp,0
80004354:	00100f93          	li	t6,1
80004358:	01ff9193          	sll	gp,t6,0x1f
8000435c:	00000013          	nop
80004360:	00000013          	nop
80004364:	00018313          	mv	t1,gp
80004368:	00120213          	add	tp,tp,1 # 1 <_entry_offset+0x1>
8000436c:	00200293          	li	t0,2
80004370:	fe5212e3          	bne	tp,t0,80004354 <test_20+0x4>
80004374:	80000eb7          	lui	t4,0x80000
80004378:	01400e13          	li	t3,20
8000437c:	0bd31263          	bne	t1,t4,80004420 <fail>

80004380 <test_21>:
80004380:	00000213          	li	tp,0
80004384:	00100f93          	li	t6,1
80004388:	007f9193          	sll	gp,t6,0x7
8000438c:	00120213          	add	tp,tp,1 # 1 <_entry_offset+0x1>
80004390:	00200293          	li	t0,2
80004394:	fe5218e3          	bne	tp,t0,80004384 <test_21+0x4>
80004398:	08000e93          	li	t4,128
8000439c:	01500e13          	li	t3,21
800043a0:	09d19063          	bne	gp,t4,80004420 <fail>

800043a4 <test_22>:
800043a4:	00000213          	li	tp,0
800043a8:	00100f93          	li	t6,1
800043ac:	00000013          	nop
800043b0:	00ef9193          	sll	gp,t6,0xe
800043b4:	00120213          	add	tp,tp,1 # 1 <_entry_offset+0x1>
800043b8:	00200293          	li	t0,2
800043bc:	fe5216e3          	bne	tp,t0,800043a8 <test_22+0x4>
800043c0:	00004eb7          	lui	t4,0x4
800043c4:	01600e13          	li	t3,22
800043c8:	05d19c63          	bne	gp,t4,80004420 <fail>

800043cc <test_23>:
800043cc:	00000213          	li	tp,0
800043d0:	00100f93          	li	t6,1
800043d4:	00000013          	nop
800043d8:	00000013          	nop
800043dc:	01ff9193          	sll	gp,t6,0x1f
800043e0:	00120213          	add	tp,tp,1 # 1 <_entry_offset+0x1>
800043e4:	00200293          	li	t0,2
800043e8:	fe5214e3          	bne	tp,t0,800043d0 <test_23+0x4>
800043ec:	80000eb7          	lui	t4,0x80000
800043f0:	01700e13          	li	t3,23
800043f4:	03d19663          	bne	gp,t4,80004420 <fail>

800043f8 <test_24>:
800043f8:	01f01f93          	sll	t6,zero,0x1f
800043fc:	00000e93          	li	t4,0
80004400:	01800e13          	li	t3,24
80004404:	01df9e63          	bne	t6,t4,80004420 <fail>

80004408 <test_25>:
80004408:	02100f93          	li	t6,33
8000440c:	014f9013          	sll	zero,t6,0x14
80004410:	00000e93          	li	t4,0
80004414:	01900e13          	li	t3,25
80004418:	01d01463          	bne	zero,t4,80004420 <fail>
8000441c:	0100006f          	j	8000442c <pass>

80004420 <fail>:
80004420:	fff00513          	li	a0,-1
80004424:	00100073          	ebreak
80004428:	ff9ff06f          	j	80004420 <fail>

8000442c <pass>:
8000442c:	00000513          	li	a0,0
80004430:	00008067          	ret

80004434 <lhu>:
80004434:	00004f97          	auipc	t6,0x4
80004438:	3d0f8f93          	add	t6,t6,976 # 80008804 <tdat>
8000443c:	000fd183          	lhu	gp,0(t6)
80004440:	0ff00e93          	li	t4,255
80004444:	00200e13          	li	t3,2
80004448:	27d19663          	bne	gp,t4,800046b4 <fail>

8000444c <test_3>:
8000444c:	00004f97          	auipc	t6,0x4
80004450:	3b8f8f93          	add	t6,t6,952 # 80008804 <tdat>
80004454:	002fd183          	lhu	gp,2(t6)
80004458:	00010eb7          	lui	t4,0x10
8000445c:	f00e8e93          	add	t4,t4,-256 # ff00 <_entry_offset+0xff00>
80004460:	00300e13          	li	t3,3
80004464:	25d19863          	bne	gp,t4,800046b4 <fail>

80004468 <test_4>:
80004468:	00004f97          	auipc	t6,0x4
8000446c:	39cf8f93          	add	t6,t6,924 # 80008804 <tdat>
80004470:	004fd183          	lhu	gp,4(t6)
80004474:	00001eb7          	lui	t4,0x1
80004478:	ff0e8e93          	add	t4,t4,-16 # ff0 <_entry_offset+0xff0>
8000447c:	00400e13          	li	t3,4
80004480:	23d19a63          	bne	gp,t4,800046b4 <fail>

80004484 <test_5>:
80004484:	00004f97          	auipc	t6,0x4
80004488:	380f8f93          	add	t6,t6,896 # 80008804 <tdat>
8000448c:	006fd183          	lhu	gp,6(t6)
80004490:	0000feb7          	lui	t4,0xf
80004494:	00fe8e93          	add	t4,t4,15 # f00f <_entry_offset+0xf00f>
80004498:	00500e13          	li	t3,5
8000449c:	21d19c63          	bne	gp,t4,800046b4 <fail>

800044a0 <test_6>:
800044a0:	00004f97          	auipc	t6,0x4
800044a4:	36af8f93          	add	t6,t6,874 # 8000880a <tdat4>
800044a8:	ffafd183          	lhu	gp,-6(t6)
800044ac:	0ff00e93          	li	t4,255
800044b0:	00600e13          	li	t3,6
800044b4:	21d19063          	bne	gp,t4,800046b4 <fail>

800044b8 <test_7>:
800044b8:	00004f97          	auipc	t6,0x4
800044bc:	352f8f93          	add	t6,t6,850 # 8000880a <tdat4>
800044c0:	ffcfd183          	lhu	gp,-4(t6)
800044c4:	00010eb7          	lui	t4,0x10
800044c8:	f00e8e93          	add	t4,t4,-256 # ff00 <_entry_offset+0xff00>
800044cc:	00700e13          	li	t3,7
800044d0:	1fd19263          	bne	gp,t4,800046b4 <fail>

800044d4 <test_8>:
800044d4:	00004f97          	auipc	t6,0x4
800044d8:	336f8f93          	add	t6,t6,822 # 8000880a <tdat4>
800044dc:	ffefd183          	lhu	gp,-2(t6)
800044e0:	00001eb7          	lui	t4,0x1
800044e4:	ff0e8e93          	add	t4,t4,-16 # ff0 <_entry_offset+0xff0>
800044e8:	00800e13          	li	t3,8
800044ec:	1dd19463          	bne	gp,t4,800046b4 <fail>

800044f0 <test_9>:
800044f0:	00004f97          	auipc	t6,0x4
800044f4:	31af8f93          	add	t6,t6,794 # 8000880a <tdat4>
800044f8:	000fd183          	lhu	gp,0(t6)
800044fc:	0000feb7          	lui	t4,0xf
80004500:	00fe8e93          	add	t4,t4,15 # f00f <_entry_offset+0xf00f>
80004504:	00900e13          	li	t3,9
80004508:	1bd19663          	bne	gp,t4,800046b4 <fail>

8000450c <test_10>:
8000450c:	00004f97          	auipc	t6,0x4
80004510:	2f8f8f93          	add	t6,t6,760 # 80008804 <tdat>
80004514:	fe0f8f93          	add	t6,t6,-32
80004518:	020fd183          	lhu	gp,32(t6)
8000451c:	0ff00e93          	li	t4,255
80004520:	00a00e13          	li	t3,10
80004524:	19d19863          	bne	gp,t4,800046b4 <fail>

80004528 <test_11>:
80004528:	00004f97          	auipc	t6,0x4
8000452c:	2dcf8f93          	add	t6,t6,732 # 80008804 <tdat>
80004530:	ffbf8f93          	add	t6,t6,-5
80004534:	007fd183          	lhu	gp,7(t6)
80004538:	00010eb7          	lui	t4,0x10
8000453c:	f00e8e93          	add	t4,t4,-256 # ff00 <_entry_offset+0xff00>
80004540:	00b00e13          	li	t3,11
80004544:	17d19863          	bne	gp,t4,800046b4 <fail>

80004548 <test_12>:
80004548:	00c00e13          	li	t3,12
8000454c:	00000213          	li	tp,0
80004550:	00004f97          	auipc	t6,0x4
80004554:	2b6f8f93          	add	t6,t6,694 # 80008806 <tdat2>
80004558:	002fd183          	lhu	gp,2(t6)
8000455c:	00018313          	mv	t1,gp
80004560:	00001eb7          	lui	t4,0x1
80004564:	ff0e8e93          	add	t4,t4,-16 # ff0 <_entry_offset+0xff0>
80004568:	15d31663          	bne	t1,t4,800046b4 <fail>
8000456c:	00120213          	add	tp,tp,1 # 1 <_entry_offset+0x1>
80004570:	00200293          	li	t0,2
80004574:	fc521ee3          	bne	tp,t0,80004550 <test_12+0x8>

80004578 <test_13>:
80004578:	00d00e13          	li	t3,13
8000457c:	00000213          	li	tp,0
80004580:	00004f97          	auipc	t6,0x4
80004584:	288f8f93          	add	t6,t6,648 # 80008808 <tdat3>
80004588:	002fd183          	lhu	gp,2(t6)
8000458c:	00000013          	nop
80004590:	00018313          	mv	t1,gp
80004594:	0000feb7          	lui	t4,0xf
80004598:	00fe8e93          	add	t4,t4,15 # f00f <_entry_offset+0xf00f>
8000459c:	11d31c63          	bne	t1,t4,800046b4 <fail>
800045a0:	00120213          	add	tp,tp,1 # 1 <_entry_offset+0x1>
800045a4:	00200293          	li	t0,2
800045a8:	fc521ce3          	bne	tp,t0,80004580 <test_13+0x8>

800045ac <test_14>:
800045ac:	00e00e13          	li	t3,14
800045b0:	00000213          	li	tp,0
800045b4:	00004f97          	auipc	t6,0x4
800045b8:	250f8f93          	add	t6,t6,592 # 80008804 <tdat>
800045bc:	002fd183          	lhu	gp,2(t6)
800045c0:	00000013          	nop
800045c4:	00000013          	nop
800045c8:	00018313          	mv	t1,gp
800045cc:	00010eb7          	lui	t4,0x10
800045d0:	f00e8e93          	add	t4,t4,-256 # ff00 <_entry_offset+0xff00>
800045d4:	0fd31063          	bne	t1,t4,800046b4 <fail>
800045d8:	00120213          	add	tp,tp,1 # 1 <_entry_offset+0x1>
800045dc:	00200293          	li	t0,2
800045e0:	fc521ae3          	bne	tp,t0,800045b4 <test_14+0x8>

800045e4 <test_15>:
800045e4:	00f00e13          	li	t3,15
800045e8:	00000213          	li	tp,0
800045ec:	00004f97          	auipc	t6,0x4
800045f0:	21af8f93          	add	t6,t6,538 # 80008806 <tdat2>
800045f4:	002fd183          	lhu	gp,2(t6)
800045f8:	00001eb7          	lui	t4,0x1
800045fc:	ff0e8e93          	add	t4,t4,-16 # ff0 <_entry_offset+0xff0>
80004600:	0bd19a63          	bne	gp,t4,800046b4 <fail>
80004604:	00120213          	add	tp,tp,1 # 1 <_entry_offset+0x1>
80004608:	00200293          	li	t0,2
8000460c:	fe5210e3          	bne	tp,t0,800045ec <test_15+0x8>

80004610 <test_16>:
80004610:	01000e13          	li	t3,16
80004614:	00000213          	li	tp,0
80004618:	00004f97          	auipc	t6,0x4
8000461c:	1f0f8f93          	add	t6,t6,496 # 80008808 <tdat3>
80004620:	00000013          	nop
80004624:	002fd183          	lhu	gp,2(t6)
80004628:	0000feb7          	lui	t4,0xf
8000462c:	00fe8e93          	add	t4,t4,15 # f00f <_entry_offset+0xf00f>
80004630:	09d19263          	bne	gp,t4,800046b4 <fail>
80004634:	00120213          	add	tp,tp,1 # 1 <_entry_offset+0x1>
80004638:	00200293          	li	t0,2
8000463c:	fc521ee3          	bne	tp,t0,80004618 <test_16+0x8>

80004640 <test_17>:
80004640:	01100e13          	li	t3,17
80004644:	00000213          	li	tp,0
80004648:	00004f97          	auipc	t6,0x4
8000464c:	1bcf8f93          	add	t6,t6,444 # 80008804 <tdat>
80004650:	00000013          	nop
80004654:	00000013          	nop
80004658:	002fd183          	lhu	gp,2(t6)
8000465c:	00010eb7          	lui	t4,0x10
80004660:	f00e8e93          	add	t4,t4,-256 # ff00 <_entry_offset+0xff00>
80004664:	05d19863          	bne	gp,t4,800046b4 <fail>
80004668:	00120213          	add	tp,tp,1 # 1 <_entry_offset+0x1>
8000466c:	00200293          	li	t0,2
80004670:	fc521ce3          	bne	tp,t0,80004648 <test_17+0x8>

80004674 <test_18>:
80004674:	00004197          	auipc	gp,0x4
80004678:	19018193          	add	gp,gp,400 # 80008804 <tdat>
8000467c:	0001d103          	lhu	sp,0(gp)
80004680:	00200113          	li	sp,2
80004684:	00200e93          	li	t4,2
80004688:	01200e13          	li	t3,18
8000468c:	03d11463          	bne	sp,t4,800046b4 <fail>

80004690 <test_19>:
80004690:	00004197          	auipc	gp,0x4
80004694:	17418193          	add	gp,gp,372 # 80008804 <tdat>
80004698:	0001d103          	lhu	sp,0(gp)
8000469c:	00000013          	nop
800046a0:	00200113          	li	sp,2
800046a4:	00200e93          	li	t4,2
800046a8:	01300e13          	li	t3,19
800046ac:	01d11463          	bne	sp,t4,800046b4 <fail>
800046b0:	0100006f          	j	800046c0 <pass>

800046b4 <fail>:
800046b4:	fff00513          	li	a0,-1
800046b8:	00100073          	ebreak
800046bc:	ff9ff06f          	j	800046b4 <fail>

800046c0 <pass>:
800046c0:	00000513          	li	a0,0
800046c4:	00008067          	ret

800046c8 <beq>:
800046c8:	00200e13          	li	t3,2
800046cc:	00000f93          	li	t6,0
800046d0:	00000113          	li	sp,0
800046d4:	002f8663          	beq	t6,sp,800046e0 <beq+0x18>
800046d8:	2bc01863          	bne	zero,t3,80004988 <fail>
800046dc:	01c01663          	bne	zero,t3,800046e8 <test_3>
800046e0:	fe2f8ee3          	beq	t6,sp,800046dc <beq+0x14>
800046e4:	2bc01263          	bne	zero,t3,80004988 <fail>

800046e8 <test_3>:
800046e8:	00300e13          	li	t3,3
800046ec:	00100f93          	li	t6,1
800046f0:	00100113          	li	sp,1
800046f4:	002f8663          	beq	t6,sp,80004700 <test_3+0x18>
800046f8:	29c01863          	bne	zero,t3,80004988 <fail>
800046fc:	01c01663          	bne	zero,t3,80004708 <test_4>
80004700:	fe2f8ee3          	beq	t6,sp,800046fc <test_3+0x14>
80004704:	29c01263          	bne	zero,t3,80004988 <fail>

80004708 <test_4>:
80004708:	00400e13          	li	t3,4
8000470c:	fff00f93          	li	t6,-1
80004710:	fff00113          	li	sp,-1
80004714:	002f8663          	beq	t6,sp,80004720 <test_4+0x18>
80004718:	27c01863          	bne	zero,t3,80004988 <fail>
8000471c:	01c01663          	bne	zero,t3,80004728 <test_5>
80004720:	fe2f8ee3          	beq	t6,sp,8000471c <test_4+0x14>
80004724:	27c01263          	bne	zero,t3,80004988 <fail>

80004728 <test_5>:
80004728:	00500e13          	li	t3,5
8000472c:	00000f93          	li	t6,0
80004730:	00100113          	li	sp,1
80004734:	002f8463          	beq	t6,sp,8000473c <test_5+0x14>
80004738:	01c01463          	bne	zero,t3,80004740 <test_5+0x18>
8000473c:	25c01663          	bne	zero,t3,80004988 <fail>
80004740:	fe2f8ee3          	beq	t6,sp,8000473c <test_5+0x14>

80004744 <test_6>:
80004744:	00600e13          	li	t3,6
80004748:	00100f93          	li	t6,1
8000474c:	00000113          	li	sp,0
80004750:	002f8463          	beq	t6,sp,80004758 <test_6+0x14>
80004754:	01c01463          	bne	zero,t3,8000475c <test_6+0x18>
80004758:	23c01863          	bne	zero,t3,80004988 <fail>
8000475c:	fe2f8ee3          	beq	t6,sp,80004758 <test_6+0x14>

80004760 <test_7>:
80004760:	00700e13          	li	t3,7
80004764:	fff00f93          	li	t6,-1
80004768:	00100113          	li	sp,1
8000476c:	002f8463          	beq	t6,sp,80004774 <test_7+0x14>
80004770:	01c01463          	bne	zero,t3,80004778 <test_7+0x18>
80004774:	21c01a63          	bne	zero,t3,80004988 <fail>
80004778:	fe2f8ee3          	beq	t6,sp,80004774 <test_7+0x14>

8000477c <test_8>:
8000477c:	00800e13          	li	t3,8
80004780:	00100f93          	li	t6,1
80004784:	fff00113          	li	sp,-1
80004788:	002f8463          	beq	t6,sp,80004790 <test_8+0x14>
8000478c:	01c01463          	bne	zero,t3,80004794 <test_8+0x18>
80004790:	1fc01c63          	bne	zero,t3,80004988 <fail>
80004794:	fe2f8ee3          	beq	t6,sp,80004790 <test_8+0x14>

80004798 <test_9>:
80004798:	00900e13          	li	t3,9
8000479c:	00000213          	li	tp,0
800047a0:	00000f93          	li	t6,0
800047a4:	fff00113          	li	sp,-1
800047a8:	1e2f8063          	beq	t6,sp,80004988 <fail>
800047ac:	00120213          	add	tp,tp,1 # 1 <_entry_offset+0x1>
800047b0:	00200293          	li	t0,2
800047b4:	fe5216e3          	bne	tp,t0,800047a0 <test_9+0x8>

800047b8 <test_10>:
800047b8:	00a00e13          	li	t3,10
800047bc:	00000213          	li	tp,0
800047c0:	00000f93          	li	t6,0
800047c4:	fff00113          	li	sp,-1
800047c8:	00000013          	nop
800047cc:	1a2f8e63          	beq	t6,sp,80004988 <fail>
800047d0:	00120213          	add	tp,tp,1 # 1 <_entry_offset+0x1>
800047d4:	00200293          	li	t0,2
800047d8:	fe5214e3          	bne	tp,t0,800047c0 <test_10+0x8>

800047dc <test_11>:
800047dc:	00b00e13          	li	t3,11
800047e0:	00000213          	li	tp,0
800047e4:	00000f93          	li	t6,0
800047e8:	fff00113          	li	sp,-1
800047ec:	00000013          	nop
800047f0:	00000013          	nop
800047f4:	182f8a63          	beq	t6,sp,80004988 <fail>
800047f8:	00120213          	add	tp,tp,1 # 1 <_entry_offset+0x1>
800047fc:	00200293          	li	t0,2
80004800:	fe5212e3          	bne	tp,t0,800047e4 <test_11+0x8>

80004804 <test_12>:
80004804:	00c00e13          	li	t3,12
80004808:	00000213          	li	tp,0
8000480c:	00000f93          	li	t6,0
80004810:	00000013          	nop
80004814:	fff00113          	li	sp,-1
80004818:	162f8863          	beq	t6,sp,80004988 <fail>
8000481c:	00120213          	add	tp,tp,1 # 1 <_entry_offset+0x1>
80004820:	00200293          	li	t0,2
80004824:	fe5214e3          	bne	tp,t0,8000480c <test_12+0x8>

80004828 <test_13>:
80004828:	00d00e13          	li	t3,13
8000482c:	00000213          	li	tp,0
80004830:	00000f93          	li	t6,0
80004834:	00000013          	nop
80004838:	fff00113          	li	sp,-1
8000483c:	00000013          	nop
80004840:	142f8463          	beq	t6,sp,80004988 <fail>
80004844:	00120213          	add	tp,tp,1 # 1 <_entry_offset+0x1>
80004848:	00200293          	li	t0,2
8000484c:	fe5212e3          	bne	tp,t0,80004830 <test_13+0x8>

80004850 <test_14>:
80004850:	00e00e13          	li	t3,14
80004854:	00000213          	li	tp,0
80004858:	00000f93          	li	t6,0
8000485c:	00000013          	nop
80004860:	00000013          	nop
80004864:	fff00113          	li	sp,-1
80004868:	122f8063          	beq	t6,sp,80004988 <fail>
8000486c:	00120213          	add	tp,tp,1 # 1 <_entry_offset+0x1>
80004870:	00200293          	li	t0,2
80004874:	fe5212e3          	bne	tp,t0,80004858 <test_14+0x8>

80004878 <test_15>:
80004878:	00f00e13          	li	t3,15
8000487c:	00000213          	li	tp,0
80004880:	00000f93          	li	t6,0
80004884:	fff00113          	li	sp,-1
80004888:	102f8063          	beq	t6,sp,80004988 <fail>
8000488c:	00120213          	add	tp,tp,1 # 1 <_entry_offset+0x1>
80004890:	00200293          	li	t0,2
80004894:	fe5216e3          	bne	tp,t0,80004880 <test_15+0x8>

80004898 <test_16>:
80004898:	01000e13          	li	t3,16
8000489c:	00000213          	li	tp,0
800048a0:	00000f93          	li	t6,0
800048a4:	fff00113          	li	sp,-1
800048a8:	00000013          	nop
800048ac:	0c2f8e63          	beq	t6,sp,80004988 <fail>
800048b0:	00120213          	add	tp,tp,1 # 1 <_entry_offset+0x1>
800048b4:	00200293          	li	t0,2
800048b8:	fe5214e3          	bne	tp,t0,800048a0 <test_16+0x8>

800048bc <test_17>:
800048bc:	01100e13          	li	t3,17
800048c0:	00000213          	li	tp,0
800048c4:	00000f93          	li	t6,0
800048c8:	fff00113          	li	sp,-1
800048cc:	00000013          	nop
800048d0:	00000013          	nop
800048d4:	0a2f8a63          	beq	t6,sp,80004988 <fail>
800048d8:	00120213          	add	tp,tp,1 # 1 <_entry_offset+0x1>
800048dc:	00200293          	li	t0,2
800048e0:	fe5212e3          	bne	tp,t0,800048c4 <test_17+0x8>

800048e4 <test_18>:
800048e4:	01200e13          	li	t3,18
800048e8:	00000213          	li	tp,0
800048ec:	00000f93          	li	t6,0
800048f0:	00000013          	nop
800048f4:	fff00113          	li	sp,-1
800048f8:	082f8863          	beq	t6,sp,80004988 <fail>
800048fc:	00120213          	add	tp,tp,1 # 1 <_entry_offset+0x1>
80004900:	00200293          	li	t0,2
80004904:	fe5214e3          	bne	tp,t0,800048ec <test_18+0x8>

80004908 <test_19>:
80004908:	01300e13          	li	t3,19
8000490c:	00000213          	li	tp,0
80004910:	00000f93          	li	t6,0
80004914:	00000013          	nop
80004918:	fff00113          	li	sp,-1
8000491c:	00000013          	nop
80004920:	062f8463          	beq	t6,sp,80004988 <fail>
80004924:	00120213          	add	tp,tp,1 # 1 <_entry_offset+0x1>
80004928:	00200293          	li	t0,2
8000492c:	fe5212e3          	bne	tp,t0,80004910 <test_19+0x8>

80004930 <test_20>:
80004930:	01400e13          	li	t3,20
80004934:	00000213          	li	tp,0
80004938:	00000f93          	li	t6,0
8000493c:	00000013          	nop
80004940:	00000013          	nop
80004944:	fff00113          	li	sp,-1
80004948:	042f8063          	beq	t6,sp,80004988 <fail>
8000494c:	00120213          	add	tp,tp,1 # 1 <_entry_offset+0x1>
80004950:	00200293          	li	t0,2
80004954:	fe5212e3          	bne	tp,t0,80004938 <test_20+0x8>

80004958 <test_21>:
80004958:	00100f93          	li	t6,1
8000495c:	00000a63          	beqz	zero,80004970 <test_21+0x18>
80004960:	001f8f93          	add	t6,t6,1
80004964:	001f8f93          	add	t6,t6,1
80004968:	001f8f93          	add	t6,t6,1
8000496c:	001f8f93          	add	t6,t6,1
80004970:	001f8f93          	add	t6,t6,1
80004974:	001f8f93          	add	t6,t6,1
80004978:	00300e93          	li	t4,3
8000497c:	01500e13          	li	t3,21
80004980:	01df9463          	bne	t6,t4,80004988 <fail>
80004984:	0100006f          	j	80004994 <pass>

80004988 <fail>:
80004988:	fff00513          	li	a0,-1
8000498c:	00100073          	ebreak
80004990:	ff9ff06f          	j	80004988 <fail>

80004994 <pass>:
80004994:	00000513          	li	a0,0
80004998:	00008067          	ret

8000499c <lbu>:
8000499c:	00004f97          	auipc	t6,0x4
800049a0:	e70f8f93          	add	t6,t6,-400 # 8000880c <tdat>
800049a4:	000fc183          	lbu	gp,0(t6)
800049a8:	0ff00e93          	li	t4,255
800049ac:	00200e13          	li	t3,2
800049b0:	23d19c63          	bne	gp,t4,80004be8 <fail>

800049b4 <test_3>:
800049b4:	00004f97          	auipc	t6,0x4
800049b8:	e58f8f93          	add	t6,t6,-424 # 8000880c <tdat>
800049bc:	001fc183          	lbu	gp,1(t6)
800049c0:	00000e93          	li	t4,0
800049c4:	00300e13          	li	t3,3
800049c8:	23d19063          	bne	gp,t4,80004be8 <fail>

800049cc <test_4>:
800049cc:	00004f97          	auipc	t6,0x4
800049d0:	e40f8f93          	add	t6,t6,-448 # 8000880c <tdat>
800049d4:	002fc183          	lbu	gp,2(t6)
800049d8:	0f000e93          	li	t4,240
800049dc:	00400e13          	li	t3,4
800049e0:	21d19463          	bne	gp,t4,80004be8 <fail>

800049e4 <test_5>:
800049e4:	00004f97          	auipc	t6,0x4
800049e8:	e28f8f93          	add	t6,t6,-472 # 8000880c <tdat>
800049ec:	003fc183          	lbu	gp,3(t6)
800049f0:	00f00e93          	li	t4,15
800049f4:	00500e13          	li	t3,5
800049f8:	1fd19863          	bne	gp,t4,80004be8 <fail>

800049fc <test_6>:
800049fc:	00004f97          	auipc	t6,0x4
80004a00:	e13f8f93          	add	t6,t6,-493 # 8000880f <tdat4>
80004a04:	ffdfc183          	lbu	gp,-3(t6)
80004a08:	0ff00e93          	li	t4,255
80004a0c:	00600e13          	li	t3,6
80004a10:	1dd19c63          	bne	gp,t4,80004be8 <fail>

80004a14 <test_7>:
80004a14:	00004f97          	auipc	t6,0x4
80004a18:	dfbf8f93          	add	t6,t6,-517 # 8000880f <tdat4>
80004a1c:	ffefc183          	lbu	gp,-2(t6)
80004a20:	00000e93          	li	t4,0
80004a24:	00700e13          	li	t3,7
80004a28:	1dd19063          	bne	gp,t4,80004be8 <fail>

80004a2c <test_8>:
80004a2c:	00004f97          	auipc	t6,0x4
80004a30:	de3f8f93          	add	t6,t6,-541 # 8000880f <tdat4>
80004a34:	ffffc183          	lbu	gp,-1(t6)
80004a38:	0f000e93          	li	t4,240
80004a3c:	00800e13          	li	t3,8
80004a40:	1bd19463          	bne	gp,t4,80004be8 <fail>

80004a44 <test_9>:
80004a44:	00004f97          	auipc	t6,0x4
80004a48:	dcbf8f93          	add	t6,t6,-565 # 8000880f <tdat4>
80004a4c:	000fc183          	lbu	gp,0(t6)
80004a50:	00f00e93          	li	t4,15
80004a54:	00900e13          	li	t3,9
80004a58:	19d19863          	bne	gp,t4,80004be8 <fail>

80004a5c <test_10>:
80004a5c:	00004f97          	auipc	t6,0x4
80004a60:	db0f8f93          	add	t6,t6,-592 # 8000880c <tdat>
80004a64:	fe0f8f93          	add	t6,t6,-32
80004a68:	020fc183          	lbu	gp,32(t6)
80004a6c:	0ff00e93          	li	t4,255
80004a70:	00a00e13          	li	t3,10
80004a74:	17d19a63          	bne	gp,t4,80004be8 <fail>

80004a78 <test_11>:
80004a78:	00004f97          	auipc	t6,0x4
80004a7c:	d94f8f93          	add	t6,t6,-620 # 8000880c <tdat>
80004a80:	ffaf8f93          	add	t6,t6,-6
80004a84:	007fc183          	lbu	gp,7(t6)
80004a88:	00000e93          	li	t4,0
80004a8c:	00b00e13          	li	t3,11
80004a90:	15d19c63          	bne	gp,t4,80004be8 <fail>

80004a94 <test_12>:
80004a94:	00c00e13          	li	t3,12
80004a98:	00000213          	li	tp,0
80004a9c:	00004f97          	auipc	t6,0x4
80004aa0:	d71f8f93          	add	t6,t6,-655 # 8000880d <tdat2>
80004aa4:	001fc183          	lbu	gp,1(t6)
80004aa8:	00018313          	mv	t1,gp
80004aac:	0f000e93          	li	t4,240
80004ab0:	13d31c63          	bne	t1,t4,80004be8 <fail>
80004ab4:	00120213          	add	tp,tp,1 # 1 <_entry_offset+0x1>
80004ab8:	00200293          	li	t0,2
80004abc:	fe5210e3          	bne	tp,t0,80004a9c <test_12+0x8>

80004ac0 <test_13>:
80004ac0:	00d00e13          	li	t3,13
80004ac4:	00000213          	li	tp,0
80004ac8:	00004f97          	auipc	t6,0x4
80004acc:	d46f8f93          	add	t6,t6,-698 # 8000880e <tdat3>
80004ad0:	001fc183          	lbu	gp,1(t6)
80004ad4:	00000013          	nop
80004ad8:	00018313          	mv	t1,gp
80004adc:	00f00e93          	li	t4,15
80004ae0:	11d31463          	bne	t1,t4,80004be8 <fail>
80004ae4:	00120213          	add	tp,tp,1 # 1 <_entry_offset+0x1>
80004ae8:	00200293          	li	t0,2
80004aec:	fc521ee3          	bne	tp,t0,80004ac8 <test_13+0x8>

80004af0 <test_14>:
80004af0:	00e00e13          	li	t3,14
80004af4:	00000213          	li	tp,0
80004af8:	00004f97          	auipc	t6,0x4
80004afc:	d14f8f93          	add	t6,t6,-748 # 8000880c <tdat>
80004b00:	001fc183          	lbu	gp,1(t6)
80004b04:	00000013          	nop
80004b08:	00000013          	nop
80004b0c:	00018313          	mv	t1,gp
80004b10:	00000e93          	li	t4,0
80004b14:	0dd31a63          	bne	t1,t4,80004be8 <fail>
80004b18:	00120213          	add	tp,tp,1 # 1 <_entry_offset+0x1>
80004b1c:	00200293          	li	t0,2
80004b20:	fc521ce3          	bne	tp,t0,80004af8 <test_14+0x8>

80004b24 <test_15>:
80004b24:	00f00e13          	li	t3,15
80004b28:	00000213          	li	tp,0
80004b2c:	00004f97          	auipc	t6,0x4
80004b30:	ce1f8f93          	add	t6,t6,-799 # 8000880d <tdat2>
80004b34:	001fc183          	lbu	gp,1(t6)
80004b38:	0f000e93          	li	t4,240
80004b3c:	0bd19663          	bne	gp,t4,80004be8 <fail>
80004b40:	00120213          	add	tp,tp,1 # 1 <_entry_offset+0x1>
80004b44:	00200293          	li	t0,2
80004b48:	fe5212e3          	bne	tp,t0,80004b2c <test_15+0x8>

80004b4c <test_16>:
80004b4c:	01000e13          	li	t3,16
80004b50:	00000213          	li	tp,0
80004b54:	00004f97          	auipc	t6,0x4
80004b58:	cbaf8f93          	add	t6,t6,-838 # 8000880e <tdat3>
80004b5c:	00000013          	nop
80004b60:	001fc183          	lbu	gp,1(t6)
80004b64:	00f00e93          	li	t4,15
80004b68:	09d19063          	bne	gp,t4,80004be8 <fail>
80004b6c:	00120213          	add	tp,tp,1 # 1 <_entry_offset+0x1>
80004b70:	00200293          	li	t0,2
80004b74:	fe5210e3          	bne	tp,t0,80004b54 <test_16+0x8>

80004b78 <test_17>:
80004b78:	01100e13          	li	t3,17
80004b7c:	00000213          	li	tp,0
80004b80:	00004f97          	auipc	t6,0x4
80004b84:	c8cf8f93          	add	t6,t6,-884 # 8000880c <tdat>
80004b88:	00000013          	nop
80004b8c:	00000013          	nop
80004b90:	001fc183          	lbu	gp,1(t6)
80004b94:	00000e93          	li	t4,0
80004b98:	05d19863          	bne	gp,t4,80004be8 <fail>
80004b9c:	00120213          	add	tp,tp,1 # 1 <_entry_offset+0x1>
80004ba0:	00200293          	li	t0,2
80004ba4:	fc521ee3          	bne	tp,t0,80004b80 <test_17+0x8>

80004ba8 <test_18>:
80004ba8:	00004197          	auipc	gp,0x4
80004bac:	c6418193          	add	gp,gp,-924 # 8000880c <tdat>
80004bb0:	0001c103          	lbu	sp,0(gp)
80004bb4:	00200113          	li	sp,2
80004bb8:	00200e93          	li	t4,2
80004bbc:	01200e13          	li	t3,18
80004bc0:	03d11463          	bne	sp,t4,80004be8 <fail>

80004bc4 <test_19>:
80004bc4:	00004197          	auipc	gp,0x4
80004bc8:	c4818193          	add	gp,gp,-952 # 8000880c <tdat>
80004bcc:	0001c103          	lbu	sp,0(gp)
80004bd0:	00000013          	nop
80004bd4:	00200113          	li	sp,2
80004bd8:	00200e93          	li	t4,2
80004bdc:	01300e13          	li	t3,19
80004be0:	01d11463          	bne	sp,t4,80004be8 <fail>
80004be4:	0100006f          	j	80004bf4 <pass>

80004be8 <fail>:
80004be8:	fff00513          	li	a0,-1
80004bec:	00100073          	ebreak
80004bf0:	ff9ff06f          	j	80004be8 <fail>

80004bf4 <pass>:
80004bf4:	00000513          	li	a0,0
80004bf8:	00008067          	ret

80004bfc <jal>:
80004bfc:	00200e13          	li	t3,2
80004c00:	00000f93          	li	t6,0

80004c04 <linkaddr_2>:
80004c04:	01000fef          	jal	t6,80004c14 <target_2>
80004c08:	00000013          	nop
80004c0c:	00000013          	nop
80004c10:	0440006f          	j	80004c54 <fail>

80004c14 <target_2>:
80004c14:	00000117          	auipc	sp,0x0
80004c18:	ff010113          	add	sp,sp,-16 # 80004c04 <linkaddr_2>
80004c1c:	00410113          	add	sp,sp,4
80004c20:	03f11a63          	bne	sp,t6,80004c54 <fail>

80004c24 <test_3>:
80004c24:	00100113          	li	sp,1
80004c28:	01400fef          	jal	t6,80004c3c <test_3+0x18>
80004c2c:	00110113          	add	sp,sp,1
80004c30:	00110113          	add	sp,sp,1
80004c34:	00110113          	add	sp,sp,1
80004c38:	00110113          	add	sp,sp,1
80004c3c:	00110113          	add	sp,sp,1
80004c40:	00110113          	add	sp,sp,1
80004c44:	00300e93          	li	t4,3
80004c48:	00300e13          	li	t3,3
80004c4c:	01d11463          	bne	sp,t4,80004c54 <fail>
80004c50:	0100006f          	j	80004c60 <pass>

80004c54 <fail>:
80004c54:	fff00513          	li	a0,-1
80004c58:	00100073          	ebreak
80004c5c:	ff9ff06f          	j	80004c54 <fail>

80004c60 <pass>:
80004c60:	00000513          	li	a0,0
80004c64:	00008067          	ret

80004c68 <xori>:
80004c68:	00ff1fb7          	lui	t6,0xff1
80004c6c:	f00f8f93          	add	t6,t6,-256 # ff0f00 <_entry_offset+0xff0f00>
80004c70:	f0ffc193          	xor	gp,t6,-241
80004c74:	ff00feb7          	lui	t4,0xff00f
80004c78:	00fe8e93          	add	t4,t4,15 # ff00f00f <_end+0x7effe00f>
80004c7c:	00200e13          	li	t3,2
80004c80:	1dd19663          	bne	gp,t4,80004e4c <fail>

80004c84 <test_3>:
80004c84:	0ff01fb7          	lui	t6,0xff01
80004c88:	ff0f8f93          	add	t6,t6,-16 # ff00ff0 <_entry_offset+0xff00ff0>
80004c8c:	0f0fc193          	xor	gp,t6,240
80004c90:	0ff01eb7          	lui	t4,0xff01
80004c94:	f00e8e93          	add	t4,t4,-256 # ff00f00 <_entry_offset+0xff00f00>
80004c98:	00300e13          	li	t3,3
80004c9c:	1bd19863          	bne	gp,t4,80004e4c <fail>

80004ca0 <test_4>:
80004ca0:	00ff1fb7          	lui	t6,0xff1
80004ca4:	8fff8f93          	add	t6,t6,-1793 # ff08ff <_entry_offset+0xff08ff>
80004ca8:	70ffc193          	xor	gp,t6,1807
80004cac:	00ff1eb7          	lui	t4,0xff1
80004cb0:	ff0e8e93          	add	t4,t4,-16 # ff0ff0 <_entry_offset+0xff0ff0>
80004cb4:	00400e13          	li	t3,4
80004cb8:	19d19a63          	bne	gp,t4,80004e4c <fail>

80004cbc <test_5>:
80004cbc:	f00fffb7          	lui	t6,0xf00ff
80004cc0:	00ff8f93          	add	t6,t6,15 # f00ff00f <_end+0x700ee00f>
80004cc4:	0f0fc193          	xor	gp,t6,240
80004cc8:	f00ffeb7          	lui	t4,0xf00ff
80004ccc:	0ffe8e93          	add	t4,t4,255 # f00ff0ff <_end+0x700ee0ff>
80004cd0:	00500e13          	li	t3,5
80004cd4:	17d19c63          	bne	gp,t4,80004e4c <fail>

80004cd8 <test_6>:
80004cd8:	ff00ffb7          	lui	t6,0xff00f
80004cdc:	700f8f93          	add	t6,t6,1792 # ff00f700 <_end+0x7effe700>
80004ce0:	70ffcf93          	xor	t6,t6,1807
80004ce4:	ff00feb7          	lui	t4,0xff00f
80004ce8:	00fe8e93          	add	t4,t4,15 # ff00f00f <_end+0x7effe00f>
80004cec:	00600e13          	li	t3,6
80004cf0:	15df9e63          	bne	t6,t4,80004e4c <fail>

80004cf4 <test_7>:
80004cf4:	00000213          	li	tp,0
80004cf8:	0ff01fb7          	lui	t6,0xff01
80004cfc:	ff0f8f93          	add	t6,t6,-16 # ff00ff0 <_entry_offset+0xff00ff0>
80004d00:	0f0fc193          	xor	gp,t6,240
80004d04:	00018313          	mv	t1,gp
80004d08:	00120213          	add	tp,tp,1 # 1 <_entry_offset+0x1>
80004d0c:	00200293          	li	t0,2
80004d10:	fe5214e3          	bne	tp,t0,80004cf8 <test_7+0x4>
80004d14:	0ff01eb7          	lui	t4,0xff01
80004d18:	f00e8e93          	add	t4,t4,-256 # ff00f00 <_entry_offset+0xff00f00>
80004d1c:	00700e13          	li	t3,7
80004d20:	13d31663          	bne	t1,t4,80004e4c <fail>

80004d24 <test_8>:
80004d24:	00000213          	li	tp,0
80004d28:	00ff1fb7          	lui	t6,0xff1
80004d2c:	8fff8f93          	add	t6,t6,-1793 # ff08ff <_entry_offset+0xff08ff>
80004d30:	70ffc193          	xor	gp,t6,1807
80004d34:	00000013          	nop
80004d38:	00018313          	mv	t1,gp
80004d3c:	00120213          	add	tp,tp,1 # 1 <_entry_offset+0x1>
80004d40:	00200293          	li	t0,2
80004d44:	fe5212e3          	bne	tp,t0,80004d28 <test_8+0x4>
80004d48:	00ff1eb7          	lui	t4,0xff1
80004d4c:	ff0e8e93          	add	t4,t4,-16 # ff0ff0 <_entry_offset+0xff0ff0>
80004d50:	00800e13          	li	t3,8
80004d54:	0fd31c63          	bne	t1,t4,80004e4c <fail>

80004d58 <test_9>:
80004d58:	00000213          	li	tp,0
80004d5c:	f00fffb7          	lui	t6,0xf00ff
80004d60:	00ff8f93          	add	t6,t6,15 # f00ff00f <_end+0x700ee00f>
80004d64:	0f0fc193          	xor	gp,t6,240
80004d68:	00000013          	nop
80004d6c:	00000013          	nop
80004d70:	00018313          	mv	t1,gp
80004d74:	00120213          	add	tp,tp,1 # 1 <_entry_offset+0x1>
80004d78:	00200293          	li	t0,2
80004d7c:	fe5210e3          	bne	tp,t0,80004d5c <test_9+0x4>
80004d80:	f00ffeb7          	lui	t4,0xf00ff
80004d84:	0ffe8e93          	add	t4,t4,255 # f00ff0ff <_end+0x700ee0ff>
80004d88:	00900e13          	li	t3,9
80004d8c:	0dd31063          	bne	t1,t4,80004e4c <fail>

80004d90 <test_10>:
80004d90:	00000213          	li	tp,0
80004d94:	0ff01fb7          	lui	t6,0xff01
80004d98:	ff0f8f93          	add	t6,t6,-16 # ff00ff0 <_entry_offset+0xff00ff0>
80004d9c:	0f0fc193          	xor	gp,t6,240
80004da0:	00120213          	add	tp,tp,1 # 1 <_entry_offset+0x1>
80004da4:	00200293          	li	t0,2
80004da8:	fe5216e3          	bne	tp,t0,80004d94 <test_10+0x4>
80004dac:	0ff01eb7          	lui	t4,0xff01
80004db0:	f00e8e93          	add	t4,t4,-256 # ff00f00 <_entry_offset+0xff00f00>
80004db4:	00a00e13          	li	t3,10
80004db8:	09d19a63          	bne	gp,t4,80004e4c <fail>

80004dbc <test_11>:
80004dbc:	00000213          	li	tp,0
80004dc0:	00ff1fb7          	lui	t6,0xff1
80004dc4:	ffff8f93          	add	t6,t6,-1 # ff0fff <_entry_offset+0xff0fff>
80004dc8:	00000013          	nop
80004dcc:	00ffc193          	xor	gp,t6,15
80004dd0:	00120213          	add	tp,tp,1 # 1 <_entry_offset+0x1>
80004dd4:	00200293          	li	t0,2
80004dd8:	fe5214e3          	bne	tp,t0,80004dc0 <test_11+0x4>
80004ddc:	00ff1eb7          	lui	t4,0xff1
80004de0:	ff0e8e93          	add	t4,t4,-16 # ff0ff0 <_entry_offset+0xff0ff0>
80004de4:	00b00e13          	li	t3,11
80004de8:	07d19263          	bne	gp,t4,80004e4c <fail>

80004dec <test_12>:
80004dec:	00000213          	li	tp,0
80004df0:	f00fffb7          	lui	t6,0xf00ff
80004df4:	00ff8f93          	add	t6,t6,15 # f00ff00f <_end+0x700ee00f>
80004df8:	00000013          	nop
80004dfc:	00000013          	nop
80004e00:	0f0fc193          	xor	gp,t6,240
80004e04:	00120213          	add	tp,tp,1 # 1 <_entry_offset+0x1>
80004e08:	00200293          	li	t0,2
80004e0c:	fe5212e3          	bne	tp,t0,80004df0 <test_12+0x4>
80004e10:	f00ffeb7          	lui	t4,0xf00ff
80004e14:	0ffe8e93          	add	t4,t4,255 # f00ff0ff <_end+0x700ee0ff>
80004e18:	00c00e13          	li	t3,12
80004e1c:	03d19863          	bne	gp,t4,80004e4c <fail>

80004e20 <test_13>:
80004e20:	0f004f93          	xor	t6,zero,240
80004e24:	0f000e93          	li	t4,240
80004e28:	00d00e13          	li	t3,13
80004e2c:	03df9063          	bne	t6,t4,80004e4c <fail>

80004e30 <test_14>:
80004e30:	00ff0fb7          	lui	t6,0xff0
80004e34:	0fff8f93          	add	t6,t6,255 # ff00ff <_entry_offset+0xff00ff>
80004e38:	70ffc013          	xor	zero,t6,1807
80004e3c:	00000e93          	li	t4,0
80004e40:	00e00e13          	li	t3,14
80004e44:	01d01463          	bne	zero,t4,80004e4c <fail>
80004e48:	0100006f          	j	80004e58 <pass>

80004e4c <fail>:
80004e4c:	fff00513          	li	a0,-1
80004e50:	00100073          	ebreak
80004e54:	ff9ff06f          	j	80004e4c <fail>

80004e58 <pass>:
80004e58:	00000513          	li	a0,0
80004e5c:	00008067          	ret

80004e60 <sh>:
80004e60:	00004f97          	auipc	t6,0x4
80004e64:	9b0f8f93          	add	t6,t6,-1616 # 80008810 <tdat>
80004e68:	0aa00113          	li	sp,170
80004e6c:	002f9023          	sh	sp,0(t6)
80004e70:	000f9183          	lh	gp,0(t6)
80004e74:	0aa00e93          	li	t4,170
80004e78:	00200e13          	li	t3,2
80004e7c:	45d19e63          	bne	gp,t4,800052d8 <fail>

80004e80 <test_3>:
80004e80:	00004f97          	auipc	t6,0x4
80004e84:	990f8f93          	add	t6,t6,-1648 # 80008810 <tdat>
80004e88:	ffffb137          	lui	sp,0xffffb
80004e8c:	a0010113          	add	sp,sp,-1536 # ffffaa00 <_end+0x7ffe9a00>
80004e90:	002f9123          	sh	sp,2(t6)
80004e94:	002f9183          	lh	gp,2(t6)
80004e98:	ffffbeb7          	lui	t4,0xffffb
80004e9c:	a00e8e93          	add	t4,t4,-1536 # ffffaa00 <_end+0x7ffe9a00>
80004ea0:	00300e13          	li	t3,3
80004ea4:	43d19a63          	bne	gp,t4,800052d8 <fail>

80004ea8 <test_4>:
80004ea8:	00004f97          	auipc	t6,0x4
80004eac:	968f8f93          	add	t6,t6,-1688 # 80008810 <tdat>
80004eb0:	beef1137          	lui	sp,0xbeef1
80004eb4:	aa010113          	add	sp,sp,-1376 # beef0aa0 <_end+0x3eedfaa0>
80004eb8:	002f9223          	sh	sp,4(t6)
80004ebc:	004fa183          	lw	gp,4(t6)
80004ec0:	beef1eb7          	lui	t4,0xbeef1
80004ec4:	aa0e8e93          	add	t4,t4,-1376 # beef0aa0 <_end+0x3eedfaa0>
80004ec8:	00400e13          	li	t3,4
80004ecc:	41d19663          	bne	gp,t4,800052d8 <fail>

80004ed0 <test_5>:
80004ed0:	00004f97          	auipc	t6,0x4
80004ed4:	940f8f93          	add	t6,t6,-1728 # 80008810 <tdat>
80004ed8:	ffffa137          	lui	sp,0xffffa
80004edc:	00a10113          	add	sp,sp,10 # ffffa00a <_end+0x7ffe900a>
80004ee0:	002f9323          	sh	sp,6(t6)
80004ee4:	006f9183          	lh	gp,6(t6)
80004ee8:	ffffaeb7          	lui	t4,0xffffa
80004eec:	00ae8e93          	add	t4,t4,10 # ffffa00a <_end+0x7ffe900a>
80004ef0:	00500e13          	li	t3,5
80004ef4:	3fd19263          	bne	gp,t4,800052d8 <fail>

80004ef8 <test_6>:
80004ef8:	00004f97          	auipc	t6,0x4
80004efc:	926f8f93          	add	t6,t6,-1754 # 8000881e <tdat8>
80004f00:	0aa00113          	li	sp,170
80004f04:	fe2f9d23          	sh	sp,-6(t6)
80004f08:	ffaf9183          	lh	gp,-6(t6)
80004f0c:	0aa00e93          	li	t4,170
80004f10:	00600e13          	li	t3,6
80004f14:	3dd19263          	bne	gp,t4,800052d8 <fail>

80004f18 <test_7>:
80004f18:	00004f97          	auipc	t6,0x4
80004f1c:	906f8f93          	add	t6,t6,-1786 # 8000881e <tdat8>
80004f20:	ffffb137          	lui	sp,0xffffb
80004f24:	a0010113          	add	sp,sp,-1536 # ffffaa00 <_end+0x7ffe9a00>
80004f28:	fe2f9e23          	sh	sp,-4(t6)
80004f2c:	ffcf9183          	lh	gp,-4(t6)
80004f30:	ffffbeb7          	lui	t4,0xffffb
80004f34:	a00e8e93          	add	t4,t4,-1536 # ffffaa00 <_end+0x7ffe9a00>
80004f38:	00700e13          	li	t3,7
80004f3c:	39d19e63          	bne	gp,t4,800052d8 <fail>

80004f40 <test_8>:
80004f40:	00004f97          	auipc	t6,0x4
80004f44:	8def8f93          	add	t6,t6,-1826 # 8000881e <tdat8>
80004f48:	00001137          	lui	sp,0x1
80004f4c:	aa010113          	add	sp,sp,-1376 # aa0 <_entry_offset+0xaa0>
80004f50:	fe2f9f23          	sh	sp,-2(t6)
80004f54:	ffef9183          	lh	gp,-2(t6)
80004f58:	00001eb7          	lui	t4,0x1
80004f5c:	aa0e8e93          	add	t4,t4,-1376 # aa0 <_entry_offset+0xaa0>
80004f60:	00800e13          	li	t3,8
80004f64:	37d19a63          	bne	gp,t4,800052d8 <fail>

80004f68 <test_9>:
80004f68:	00004f97          	auipc	t6,0x4
80004f6c:	8b6f8f93          	add	t6,t6,-1866 # 8000881e <tdat8>
80004f70:	ffffa137          	lui	sp,0xffffa
80004f74:	00a10113          	add	sp,sp,10 # ffffa00a <_end+0x7ffe900a>
80004f78:	002f9023          	sh	sp,0(t6)
80004f7c:	000f9183          	lh	gp,0(t6)
80004f80:	ffffaeb7          	lui	t4,0xffffa
80004f84:	00ae8e93          	add	t4,t4,10 # ffffa00a <_end+0x7ffe900a>
80004f88:	00900e13          	li	t3,9
80004f8c:	35d19663          	bne	gp,t4,800052d8 <fail>

80004f90 <test_10>:
80004f90:	00004f97          	auipc	t6,0x4
80004f94:	890f8f93          	add	t6,t6,-1904 # 80008820 <tdat9>
80004f98:	12345137          	lui	sp,0x12345
80004f9c:	67810113          	add	sp,sp,1656 # 12345678 <_entry_offset+0x12345678>
80004fa0:	fe0f8213          	add	tp,t6,-32
80004fa4:	02221023          	sh	sp,32(tp) # 20 <_entry_offset+0x20>
80004fa8:	000f9183          	lh	gp,0(t6)
80004fac:	00005eb7          	lui	t4,0x5
80004fb0:	678e8e93          	add	t4,t4,1656 # 5678 <_entry_offset+0x5678>
80004fb4:	00a00e13          	li	t3,10
80004fb8:	33d19063          	bne	gp,t4,800052d8 <fail>

80004fbc <test_11>:
80004fbc:	00004f97          	auipc	t6,0x4
80004fc0:	864f8f93          	add	t6,t6,-1948 # 80008820 <tdat9>
80004fc4:	00003137          	lui	sp,0x3
80004fc8:	09810113          	add	sp,sp,152 # 3098 <_entry_offset+0x3098>
80004fcc:	ffbf8f93          	add	t6,t6,-5
80004fd0:	002f93a3          	sh	sp,7(t6)
80004fd4:	00004217          	auipc	tp,0x4
80004fd8:	84e20213          	add	tp,tp,-1970 # 80008822 <tdat10>
80004fdc:	00021183          	lh	gp,0(tp) # 0 <_entry_offset>
80004fe0:	00003eb7          	lui	t4,0x3
80004fe4:	098e8e93          	add	t4,t4,152 # 3098 <_entry_offset+0x3098>
80004fe8:	00b00e13          	li	t3,11
80004fec:	2fd19663          	bne	gp,t4,800052d8 <fail>

80004ff0 <test_12>:
80004ff0:	00c00e13          	li	t3,12
80004ff4:	00000213          	li	tp,0
80004ff8:	ffffdfb7          	lui	t6,0xffffd
80004ffc:	cddf8f93          	add	t6,t6,-803 # ffffccdd <_end+0x7ffebcdd>
80005000:	00004117          	auipc	sp,0x4
80005004:	81010113          	add	sp,sp,-2032 # 80008810 <tdat>
80005008:	01f11023          	sh	t6,0(sp)
8000500c:	00011183          	lh	gp,0(sp)
80005010:	ffffdeb7          	lui	t4,0xffffd
80005014:	cdde8e93          	add	t4,t4,-803 # ffffccdd <_end+0x7ffebcdd>
80005018:	2dd19063          	bne	gp,t4,800052d8 <fail>
8000501c:	00120213          	add	tp,tp,1 # 1 <_entry_offset+0x1>
80005020:	00200293          	li	t0,2
80005024:	fc521ae3          	bne	tp,t0,80004ff8 <test_12+0x8>

80005028 <test_13>:
80005028:	00d00e13          	li	t3,13
8000502c:	00000213          	li	tp,0
80005030:	ffffcfb7          	lui	t6,0xffffc
80005034:	ccdf8f93          	add	t6,t6,-819 # ffffbccd <_end+0x7ffeaccd>
80005038:	00003117          	auipc	sp,0x3
8000503c:	7d810113          	add	sp,sp,2008 # 80008810 <tdat>
80005040:	00000013          	nop
80005044:	01f11123          	sh	t6,2(sp)
80005048:	00211183          	lh	gp,2(sp)
8000504c:	ffffceb7          	lui	t4,0xffffc
80005050:	ccde8e93          	add	t4,t4,-819 # ffffbccd <_end+0x7ffeaccd>
80005054:	29d19263          	bne	gp,t4,800052d8 <fail>
80005058:	00120213          	add	tp,tp,1 # 1 <_entry_offset+0x1>
8000505c:	00200293          	li	t0,2
80005060:	fc5218e3          	bne	tp,t0,80005030 <test_13+0x8>

80005064 <test_14>:
80005064:	00e00e13          	li	t3,14
80005068:	00000213          	li	tp,0
8000506c:	ffffcfb7          	lui	t6,0xffffc
80005070:	bccf8f93          	add	t6,t6,-1076 # ffffbbcc <_end+0x7ffeabcc>
80005074:	00003117          	auipc	sp,0x3
80005078:	79c10113          	add	sp,sp,1948 # 80008810 <tdat>
8000507c:	00000013          	nop
80005080:	00000013          	nop
80005084:	01f11223          	sh	t6,4(sp)
80005088:	00411183          	lh	gp,4(sp)
8000508c:	ffffceb7          	lui	t4,0xffffc
80005090:	bcce8e93          	add	t4,t4,-1076 # ffffbbcc <_end+0x7ffeabcc>
80005094:	25d19263          	bne	gp,t4,800052d8 <fail>
80005098:	00120213          	add	tp,tp,1 # 1 <_entry_offset+0x1>
8000509c:	00200293          	li	t0,2
800050a0:	fc5216e3          	bne	tp,t0,8000506c <test_14+0x8>

800050a4 <test_15>:
800050a4:	00f00e13          	li	t3,15
800050a8:	00000213          	li	tp,0
800050ac:	ffffbfb7          	lui	t6,0xffffb
800050b0:	bbcf8f93          	add	t6,t6,-1092 # ffffabbc <_end+0x7ffe9bbc>
800050b4:	00000013          	nop
800050b8:	00003117          	auipc	sp,0x3
800050bc:	75810113          	add	sp,sp,1880 # 80008810 <tdat>
800050c0:	01f11323          	sh	t6,6(sp)
800050c4:	00611183          	lh	gp,6(sp)
800050c8:	ffffbeb7          	lui	t4,0xffffb
800050cc:	bbce8e93          	add	t4,t4,-1092 # ffffabbc <_end+0x7ffe9bbc>
800050d0:	21d19463          	bne	gp,t4,800052d8 <fail>
800050d4:	00120213          	add	tp,tp,1 # 1 <_entry_offset+0x1>
800050d8:	00200293          	li	t0,2
800050dc:	fc5218e3          	bne	tp,t0,800050ac <test_15+0x8>

800050e0 <test_16>:
800050e0:	01000e13          	li	t3,16
800050e4:	00000213          	li	tp,0
800050e8:	ffffbfb7          	lui	t6,0xffffb
800050ec:	abbf8f93          	add	t6,t6,-1349 # ffffaabb <_end+0x7ffe9abb>
800050f0:	00000013          	nop
800050f4:	00003117          	auipc	sp,0x3
800050f8:	71c10113          	add	sp,sp,1820 # 80008810 <tdat>
800050fc:	00000013          	nop
80005100:	01f11423          	sh	t6,8(sp)
80005104:	00811183          	lh	gp,8(sp)
80005108:	ffffbeb7          	lui	t4,0xffffb
8000510c:	abbe8e93          	add	t4,t4,-1349 # ffffaabb <_end+0x7ffe9abb>
80005110:	1dd19463          	bne	gp,t4,800052d8 <fail>
80005114:	00120213          	add	tp,tp,1 # 1 <_entry_offset+0x1>
80005118:	00200293          	li	t0,2
8000511c:	fc5216e3          	bne	tp,t0,800050e8 <test_16+0x8>

80005120 <test_17>:
80005120:	01100e13          	li	t3,17
80005124:	00000213          	li	tp,0
80005128:	ffffefb7          	lui	t6,0xffffe
8000512c:	aabf8f93          	add	t6,t6,-1365 # ffffdaab <_end+0x7ffecaab>
80005130:	00000013          	nop
80005134:	00000013          	nop
80005138:	00003117          	auipc	sp,0x3
8000513c:	6d810113          	add	sp,sp,1752 # 80008810 <tdat>
80005140:	01f11523          	sh	t6,10(sp)
80005144:	00a11183          	lh	gp,10(sp)
80005148:	ffffeeb7          	lui	t4,0xffffe
8000514c:	aabe8e93          	add	t4,t4,-1365 # ffffdaab <_end+0x7ffecaab>
80005150:	19d19463          	bne	gp,t4,800052d8 <fail>
80005154:	00120213          	add	tp,tp,1 # 1 <_entry_offset+0x1>
80005158:	00200293          	li	t0,2
8000515c:	fc5216e3          	bne	tp,t0,80005128 <test_17+0x8>

80005160 <test_18>:
80005160:	01200e13          	li	t3,18
80005164:	00000213          	li	tp,0
80005168:	00003117          	auipc	sp,0x3
8000516c:	6a810113          	add	sp,sp,1704 # 80008810 <tdat>
80005170:	00002fb7          	lui	t6,0x2
80005174:	233f8f93          	add	t6,t6,563 # 2233 <_entry_offset+0x2233>
80005178:	01f11023          	sh	t6,0(sp)
8000517c:	00011183          	lh	gp,0(sp)
80005180:	00002eb7          	lui	t4,0x2
80005184:	233e8e93          	add	t4,t4,563 # 2233 <_entry_offset+0x2233>
80005188:	15d19863          	bne	gp,t4,800052d8 <fail>
8000518c:	00120213          	add	tp,tp,1 # 1 <_entry_offset+0x1>
80005190:	00200293          	li	t0,2
80005194:	fc521ae3          	bne	tp,t0,80005168 <test_18+0x8>

80005198 <test_19>:
80005198:	01300e13          	li	t3,19
8000519c:	00000213          	li	tp,0
800051a0:	00003117          	auipc	sp,0x3
800051a4:	67010113          	add	sp,sp,1648 # 80008810 <tdat>
800051a8:	00001fb7          	lui	t6,0x1
800051ac:	223f8f93          	add	t6,t6,547 # 1223 <_entry_offset+0x1223>
800051b0:	00000013          	nop
800051b4:	01f11123          	sh	t6,2(sp)
800051b8:	00211183          	lh	gp,2(sp)
800051bc:	00001eb7          	lui	t4,0x1
800051c0:	223e8e93          	add	t4,t4,547 # 1223 <_entry_offset+0x1223>
800051c4:	11d19a63          	bne	gp,t4,800052d8 <fail>
800051c8:	00120213          	add	tp,tp,1 # 1 <_entry_offset+0x1>
800051cc:	00200293          	li	t0,2
800051d0:	fc5218e3          	bne	tp,t0,800051a0 <test_19+0x8>

800051d4 <test_20>:
800051d4:	01400e13          	li	t3,20
800051d8:	00000213          	li	tp,0
800051dc:	00003117          	auipc	sp,0x3
800051e0:	63410113          	add	sp,sp,1588 # 80008810 <tdat>
800051e4:	00001fb7          	lui	t6,0x1
800051e8:	122f8f93          	add	t6,t6,290 # 1122 <_entry_offset+0x1122>
800051ec:	00000013          	nop
800051f0:	00000013          	nop
800051f4:	01f11223          	sh	t6,4(sp)
800051f8:	00411183          	lh	gp,4(sp)
800051fc:	00001eb7          	lui	t4,0x1
80005200:	122e8e93          	add	t4,t4,290 # 1122 <_entry_offset+0x1122>
80005204:	0dd19a63          	bne	gp,t4,800052d8 <fail>
80005208:	00120213          	add	tp,tp,1 # 1 <_entry_offset+0x1>
8000520c:	00200293          	li	t0,2
80005210:	fc5216e3          	bne	tp,t0,800051dc <test_20+0x8>

80005214 <test_21>:
80005214:	01500e13          	li	t3,21
80005218:	00000213          	li	tp,0
8000521c:	00003117          	auipc	sp,0x3
80005220:	5f410113          	add	sp,sp,1524 # 80008810 <tdat>
80005224:	00000013          	nop
80005228:	11200f93          	li	t6,274
8000522c:	01f11323          	sh	t6,6(sp)
80005230:	00611183          	lh	gp,6(sp)
80005234:	11200e93          	li	t4,274
80005238:	0bd19063          	bne	gp,t4,800052d8 <fail>
8000523c:	00120213          	add	tp,tp,1 # 1 <_entry_offset+0x1>
80005240:	00200293          	li	t0,2
80005244:	fc521ce3          	bne	tp,t0,8000521c <test_21+0x8>

80005248 <test_22>:
80005248:	01600e13          	li	t3,22
8000524c:	00000213          	li	tp,0
80005250:	00003117          	auipc	sp,0x3
80005254:	5c010113          	add	sp,sp,1472 # 80008810 <tdat>
80005258:	00000013          	nop
8000525c:	01100f93          	li	t6,17
80005260:	00000013          	nop
80005264:	01f11423          	sh	t6,8(sp)
80005268:	00811183          	lh	gp,8(sp)
8000526c:	01100e93          	li	t4,17
80005270:	07d19463          	bne	gp,t4,800052d8 <fail>
80005274:	00120213          	add	tp,tp,1 # 1 <_entry_offset+0x1>
80005278:	00200293          	li	t0,2
8000527c:	fc521ae3          	bne	tp,t0,80005250 <test_22+0x8>

80005280 <test_23>:
80005280:	01700e13          	li	t3,23
80005284:	00000213          	li	tp,0
80005288:	00003117          	auipc	sp,0x3
8000528c:	58810113          	add	sp,sp,1416 # 80008810 <tdat>
80005290:	00000013          	nop
80005294:	00000013          	nop
80005298:	00003fb7          	lui	t6,0x3
8000529c:	001f8f93          	add	t6,t6,1 # 3001 <_entry_offset+0x3001>
800052a0:	01f11523          	sh	t6,10(sp)
800052a4:	00a11183          	lh	gp,10(sp)
800052a8:	00003eb7          	lui	t4,0x3
800052ac:	001e8e93          	add	t4,t4,1 # 3001 <_entry_offset+0x3001>
800052b0:	03d19463          	bne	gp,t4,800052d8 <fail>
800052b4:	00120213          	add	tp,tp,1 # 1 <_entry_offset+0x1>
800052b8:	00200293          	li	t0,2
800052bc:	fc5216e3          	bne	tp,t0,80005288 <test_23+0x8>
800052c0:	0000c537          	lui	a0,0xc
800052c4:	eef50513          	add	a0,a0,-273 # beef <_entry_offset+0xbeef>
800052c8:	00003597          	auipc	a1,0x3
800052cc:	54858593          	add	a1,a1,1352 # 80008810 <tdat>
800052d0:	00a59323          	sh	a0,6(a1)
800052d4:	0100006f          	j	800052e4 <pass>

800052d8 <fail>:
800052d8:	fff00513          	li	a0,-1
800052dc:	00100073          	ebreak
800052e0:	ff9ff06f          	j	800052d8 <fail>

800052e4 <pass>:
800052e4:	00000513          	li	a0,0
800052e8:	00008067          	ret

800052ec <and>:
800052ec:	ff010fb7          	lui	t6,0xff010
800052f0:	f00f8f93          	add	t6,t6,-256 # ff00ff00 <_end+0x7effef00>
800052f4:	0f0f1137          	lui	sp,0xf0f1
800052f8:	f0f10113          	add	sp,sp,-241 # f0f0f0f <_entry_offset+0xf0f0f0f>
800052fc:	002ff1b3          	and	gp,t6,sp
80005300:	0f001eb7          	lui	t4,0xf001
80005304:	f00e8e93          	add	t4,t4,-256 # f000f00 <_entry_offset+0xf000f00>
80005308:	00200e13          	li	t3,2
8000530c:	49d19c63          	bne	gp,t4,800057a4 <fail>

80005310 <test_3>:
80005310:	0ff01fb7          	lui	t6,0xff01
80005314:	ff0f8f93          	add	t6,t6,-16 # ff00ff0 <_entry_offset+0xff00ff0>
80005318:	f0f0f137          	lui	sp,0xf0f0f
8000531c:	0f010113          	add	sp,sp,240 # f0f0f0f0 <_end+0x70efe0f0>
80005320:	002ff1b3          	and	gp,t6,sp
80005324:	00f00eb7          	lui	t4,0xf00
80005328:	0f0e8e93          	add	t4,t4,240 # f000f0 <_entry_offset+0xf000f0>
8000532c:	00300e13          	li	t3,3
80005330:	47d19a63          	bne	gp,t4,800057a4 <fail>

80005334 <test_4>:
80005334:	00ff0fb7          	lui	t6,0xff0
80005338:	0fff8f93          	add	t6,t6,255 # ff00ff <_entry_offset+0xff00ff>
8000533c:	0f0f1137          	lui	sp,0xf0f1
80005340:	f0f10113          	add	sp,sp,-241 # f0f0f0f <_entry_offset+0xf0f0f0f>
80005344:	002ff1b3          	and	gp,t6,sp
80005348:	000f0eb7          	lui	t4,0xf0
8000534c:	00fe8e93          	add	t4,t4,15 # f000f <_entry_offset+0xf000f>
80005350:	00400e13          	li	t3,4
80005354:	45d19863          	bne	gp,t4,800057a4 <fail>

80005358 <test_5>:
80005358:	f00fffb7          	lui	t6,0xf00ff
8000535c:	00ff8f93          	add	t6,t6,15 # f00ff00f <_end+0x700ee00f>
80005360:	f0f0f137          	lui	sp,0xf0f0f
80005364:	0f010113          	add	sp,sp,240 # f0f0f0f0 <_end+0x70efe0f0>
80005368:	002ff1b3          	and	gp,t6,sp
8000536c:	f000feb7          	lui	t4,0xf000f
80005370:	00500e13          	li	t3,5
80005374:	43d19863          	bne	gp,t4,800057a4 <fail>

80005378 <test_6>:
80005378:	ff010fb7          	lui	t6,0xff010
8000537c:	f00f8f93          	add	t6,t6,-256 # ff00ff00 <_end+0x7effef00>
80005380:	0f0f1137          	lui	sp,0xf0f1
80005384:	f0f10113          	add	sp,sp,-241 # f0f0f0f <_entry_offset+0xf0f0f0f>
80005388:	002fffb3          	and	t6,t6,sp
8000538c:	0f001eb7          	lui	t4,0xf001
80005390:	f00e8e93          	add	t4,t4,-256 # f000f00 <_entry_offset+0xf000f00>
80005394:	00600e13          	li	t3,6
80005398:	41df9663          	bne	t6,t4,800057a4 <fail>

8000539c <test_7>:
8000539c:	0ff01fb7          	lui	t6,0xff01
800053a0:	ff0f8f93          	add	t6,t6,-16 # ff00ff0 <_entry_offset+0xff00ff0>
800053a4:	f0f0f137          	lui	sp,0xf0f0f
800053a8:	0f010113          	add	sp,sp,240 # f0f0f0f0 <_end+0x70efe0f0>
800053ac:	002ff133          	and	sp,t6,sp
800053b0:	00f00eb7          	lui	t4,0xf00
800053b4:	0f0e8e93          	add	t4,t4,240 # f000f0 <_entry_offset+0xf000f0>
800053b8:	00700e13          	li	t3,7
800053bc:	3fd11463          	bne	sp,t4,800057a4 <fail>

800053c0 <test_8>:
800053c0:	ff010fb7          	lui	t6,0xff010
800053c4:	f00f8f93          	add	t6,t6,-256 # ff00ff00 <_end+0x7effef00>
800053c8:	01ffffb3          	and	t6,t6,t6
800053cc:	ff010eb7          	lui	t4,0xff010
800053d0:	f00e8e93          	add	t4,t4,-256 # ff00ff00 <_end+0x7effef00>
800053d4:	00800e13          	li	t3,8
800053d8:	3ddf9663          	bne	t6,t4,800057a4 <fail>

800053dc <test_9>:
800053dc:	00000213          	li	tp,0
800053e0:	ff010fb7          	lui	t6,0xff010
800053e4:	f00f8f93          	add	t6,t6,-256 # ff00ff00 <_end+0x7effef00>
800053e8:	0f0f1137          	lui	sp,0xf0f1
800053ec:	f0f10113          	add	sp,sp,-241 # f0f0f0f <_entry_offset+0xf0f0f0f>
800053f0:	002ff1b3          	and	gp,t6,sp
800053f4:	00018313          	mv	t1,gp
800053f8:	00120213          	add	tp,tp,1 # 1 <_entry_offset+0x1>
800053fc:	00200293          	li	t0,2
80005400:	fe5210e3          	bne	tp,t0,800053e0 <test_9+0x4>
80005404:	0f001eb7          	lui	t4,0xf001
80005408:	f00e8e93          	add	t4,t4,-256 # f000f00 <_entry_offset+0xf000f00>
8000540c:	00900e13          	li	t3,9
80005410:	39d31a63          	bne	t1,t4,800057a4 <fail>

80005414 <test_10>:
80005414:	00000213          	li	tp,0
80005418:	0ff01fb7          	lui	t6,0xff01
8000541c:	ff0f8f93          	add	t6,t6,-16 # ff00ff0 <_entry_offset+0xff00ff0>
80005420:	f0f0f137          	lui	sp,0xf0f0f
80005424:	0f010113          	add	sp,sp,240 # f0f0f0f0 <_end+0x70efe0f0>
80005428:	002ff1b3          	and	gp,t6,sp
8000542c:	00000013          	nop
80005430:	00018313          	mv	t1,gp
80005434:	00120213          	add	tp,tp,1 # 1 <_entry_offset+0x1>
80005438:	00200293          	li	t0,2
8000543c:	fc521ee3          	bne	tp,t0,80005418 <test_10+0x4>
80005440:	00f00eb7          	lui	t4,0xf00
80005444:	0f0e8e93          	add	t4,t4,240 # f000f0 <_entry_offset+0xf000f0>
80005448:	00a00e13          	li	t3,10
8000544c:	35d31c63          	bne	t1,t4,800057a4 <fail>

80005450 <test_11>:
80005450:	00000213          	li	tp,0
80005454:	00ff0fb7          	lui	t6,0xff0
80005458:	0fff8f93          	add	t6,t6,255 # ff00ff <_entry_offset+0xff00ff>
8000545c:	0f0f1137          	lui	sp,0xf0f1
80005460:	f0f10113          	add	sp,sp,-241 # f0f0f0f <_entry_offset+0xf0f0f0f>
80005464:	002ff1b3          	and	gp,t6,sp
80005468:	00000013          	nop
8000546c:	00000013          	nop
80005470:	00018313          	mv	t1,gp
80005474:	00120213          	add	tp,tp,1 # 1 <_entry_offset+0x1>
80005478:	00200293          	li	t0,2
8000547c:	fc521ce3          	bne	tp,t0,80005454 <test_11+0x4>
80005480:	000f0eb7          	lui	t4,0xf0
80005484:	00fe8e93          	add	t4,t4,15 # f000f <_entry_offset+0xf000f>
80005488:	00b00e13          	li	t3,11
8000548c:	31d31c63          	bne	t1,t4,800057a4 <fail>

80005490 <test_12>:
80005490:	00000213          	li	tp,0
80005494:	ff010fb7          	lui	t6,0xff010
80005498:	f00f8f93          	add	t6,t6,-256 # ff00ff00 <_end+0x7effef00>
8000549c:	0f0f1137          	lui	sp,0xf0f1
800054a0:	f0f10113          	add	sp,sp,-241 # f0f0f0f <_entry_offset+0xf0f0f0f>
800054a4:	002ff1b3          	and	gp,t6,sp
800054a8:	00120213          	add	tp,tp,1 # 1 <_entry_offset+0x1>
800054ac:	00200293          	li	t0,2
800054b0:	fe5212e3          	bne	tp,t0,80005494 <test_12+0x4>
800054b4:	0f001eb7          	lui	t4,0xf001
800054b8:	f00e8e93          	add	t4,t4,-256 # f000f00 <_entry_offset+0xf000f00>
800054bc:	00c00e13          	li	t3,12
800054c0:	2fd19263          	bne	gp,t4,800057a4 <fail>

800054c4 <test_13>:
800054c4:	00000213          	li	tp,0
800054c8:	0ff01fb7          	lui	t6,0xff01
800054cc:	ff0f8f93          	add	t6,t6,-16 # ff00ff0 <_entry_offset+0xff00ff0>
800054d0:	f0f0f137          	lui	sp,0xf0f0f
800054d4:	0f010113          	add	sp,sp,240 # f0f0f0f0 <_end+0x70efe0f0>
800054d8:	00000013          	nop
800054dc:	002ff1b3          	and	gp,t6,sp
800054e0:	00120213          	add	tp,tp,1 # 1 <_entry_offset+0x1>
800054e4:	00200293          	li	t0,2
800054e8:	fe5210e3          	bne	tp,t0,800054c8 <test_13+0x4>
800054ec:	00f00eb7          	lui	t4,0xf00
800054f0:	0f0e8e93          	add	t4,t4,240 # f000f0 <_entry_offset+0xf000f0>
800054f4:	00d00e13          	li	t3,13
800054f8:	2bd19663          	bne	gp,t4,800057a4 <fail>

800054fc <test_14>:
800054fc:	00000213          	li	tp,0
80005500:	00ff0fb7          	lui	t6,0xff0
80005504:	0fff8f93          	add	t6,t6,255 # ff00ff <_entry_offset+0xff00ff>
80005508:	0f0f1137          	lui	sp,0xf0f1
8000550c:	f0f10113          	add	sp,sp,-241 # f0f0f0f <_entry_offset+0xf0f0f0f>
80005510:	00000013          	nop
80005514:	00000013          	nop
80005518:	002ff1b3          	and	gp,t6,sp
8000551c:	00120213          	add	tp,tp,1 # 1 <_entry_offset+0x1>
80005520:	00200293          	li	t0,2
80005524:	fc521ee3          	bne	tp,t0,80005500 <test_14+0x4>
80005528:	000f0eb7          	lui	t4,0xf0
8000552c:	00fe8e93          	add	t4,t4,15 # f000f <_entry_offset+0xf000f>
80005530:	00e00e13          	li	t3,14
80005534:	27d19863          	bne	gp,t4,800057a4 <fail>

80005538 <test_15>:
80005538:	00000213          	li	tp,0
8000553c:	ff010fb7          	lui	t6,0xff010
80005540:	f00f8f93          	add	t6,t6,-256 # ff00ff00 <_end+0x7effef00>
80005544:	00000013          	nop
80005548:	0f0f1137          	lui	sp,0xf0f1
8000554c:	f0f10113          	add	sp,sp,-241 # f0f0f0f <_entry_offset+0xf0f0f0f>
80005550:	002ff1b3          	and	gp,t6,sp
80005554:	00120213          	add	tp,tp,1 # 1 <_entry_offset+0x1>
80005558:	00200293          	li	t0,2
8000555c:	fe5210e3          	bne	tp,t0,8000553c <test_15+0x4>
80005560:	0f001eb7          	lui	t4,0xf001
80005564:	f00e8e93          	add	t4,t4,-256 # f000f00 <_entry_offset+0xf000f00>
80005568:	00f00e13          	li	t3,15
8000556c:	23d19c63          	bne	gp,t4,800057a4 <fail>

80005570 <test_16>:
80005570:	00000213          	li	tp,0
80005574:	0ff01fb7          	lui	t6,0xff01
80005578:	ff0f8f93          	add	t6,t6,-16 # ff00ff0 <_entry_offset+0xff00ff0>
8000557c:	00000013          	nop
80005580:	f0f0f137          	lui	sp,0xf0f0f
80005584:	0f010113          	add	sp,sp,240 # f0f0f0f0 <_end+0x70efe0f0>
80005588:	00000013          	nop
8000558c:	002ff1b3          	and	gp,t6,sp
80005590:	00120213          	add	tp,tp,1 # 1 <_entry_offset+0x1>
80005594:	00200293          	li	t0,2
80005598:	fc521ee3          	bne	tp,t0,80005574 <test_16+0x4>
8000559c:	00f00eb7          	lui	t4,0xf00
800055a0:	0f0e8e93          	add	t4,t4,240 # f000f0 <_entry_offset+0xf000f0>
800055a4:	01000e13          	li	t3,16
800055a8:	1fd19e63          	bne	gp,t4,800057a4 <fail>

800055ac <test_17>:
800055ac:	00000213          	li	tp,0
800055b0:	00ff0fb7          	lui	t6,0xff0
800055b4:	0fff8f93          	add	t6,t6,255 # ff00ff <_entry_offset+0xff00ff>
800055b8:	00000013          	nop
800055bc:	00000013          	nop
800055c0:	0f0f1137          	lui	sp,0xf0f1
800055c4:	f0f10113          	add	sp,sp,-241 # f0f0f0f <_entry_offset+0xf0f0f0f>
800055c8:	002ff1b3          	and	gp,t6,sp
800055cc:	00120213          	add	tp,tp,1 # 1 <_entry_offset+0x1>
800055d0:	00200293          	li	t0,2
800055d4:	fc521ee3          	bne	tp,t0,800055b0 <test_17+0x4>
800055d8:	000f0eb7          	lui	t4,0xf0
800055dc:	00fe8e93          	add	t4,t4,15 # f000f <_entry_offset+0xf000f>
800055e0:	01100e13          	li	t3,17
800055e4:	1dd19063          	bne	gp,t4,800057a4 <fail>

800055e8 <test_18>:
800055e8:	00000213          	li	tp,0
800055ec:	0f0f1137          	lui	sp,0xf0f1
800055f0:	f0f10113          	add	sp,sp,-241 # f0f0f0f <_entry_offset+0xf0f0f0f>
800055f4:	ff010fb7          	lui	t6,0xff010
800055f8:	f00f8f93          	add	t6,t6,-256 # ff00ff00 <_end+0x7effef00>
800055fc:	002ff1b3          	and	gp,t6,sp
80005600:	00120213          	add	tp,tp,1 # 1 <_entry_offset+0x1>
80005604:	00200293          	li	t0,2
80005608:	fe5212e3          	bne	tp,t0,800055ec <test_18+0x4>
8000560c:	0f001eb7          	lui	t4,0xf001
80005610:	f00e8e93          	add	t4,t4,-256 # f000f00 <_entry_offset+0xf000f00>
80005614:	01200e13          	li	t3,18
80005618:	19d19663          	bne	gp,t4,800057a4 <fail>

8000561c <test_19>:
8000561c:	00000213          	li	tp,0
80005620:	f0f0f137          	lui	sp,0xf0f0f
80005624:	0f010113          	add	sp,sp,240 # f0f0f0f0 <_end+0x70efe0f0>
80005628:	0ff01fb7          	lui	t6,0xff01
8000562c:	ff0f8f93          	add	t6,t6,-16 # ff00ff0 <_entry_offset+0xff00ff0>
80005630:	00000013          	nop
80005634:	002ff1b3          	and	gp,t6,sp
80005638:	00120213          	add	tp,tp,1 # 1 <_entry_offset+0x1>
8000563c:	00200293          	li	t0,2
80005640:	fe5210e3          	bne	tp,t0,80005620 <test_19+0x4>
80005644:	00f00eb7          	lui	t4,0xf00
80005648:	0f0e8e93          	add	t4,t4,240 # f000f0 <_entry_offset+0xf000f0>
8000564c:	01300e13          	li	t3,19
80005650:	15d19a63          	bne	gp,t4,800057a4 <fail>

80005654 <test_20>:
80005654:	00000213          	li	tp,0
80005658:	0f0f1137          	lui	sp,0xf0f1
8000565c:	f0f10113          	add	sp,sp,-241 # f0f0f0f <_entry_offset+0xf0f0f0f>
80005660:	00ff0fb7          	lui	t6,0xff0
80005664:	0fff8f93          	add	t6,t6,255 # ff00ff <_entry_offset+0xff00ff>
80005668:	00000013          	nop
8000566c:	00000013          	nop
80005670:	002ff1b3          	and	gp,t6,sp
80005674:	00120213          	add	tp,tp,1 # 1 <_entry_offset+0x1>
80005678:	00200293          	li	t0,2
8000567c:	fc521ee3          	bne	tp,t0,80005658 <test_20+0x4>
80005680:	000f0eb7          	lui	t4,0xf0
80005684:	00fe8e93          	add	t4,t4,15 # f000f <_entry_offset+0xf000f>
80005688:	01400e13          	li	t3,20
8000568c:	11d19c63          	bne	gp,t4,800057a4 <fail>

80005690 <test_21>:
80005690:	00000213          	li	tp,0
80005694:	0f0f1137          	lui	sp,0xf0f1
80005698:	f0f10113          	add	sp,sp,-241 # f0f0f0f <_entry_offset+0xf0f0f0f>
8000569c:	00000013          	nop
800056a0:	ff010fb7          	lui	t6,0xff010
800056a4:	f00f8f93          	add	t6,t6,-256 # ff00ff00 <_end+0x7effef00>
800056a8:	002ff1b3          	and	gp,t6,sp
800056ac:	00120213          	add	tp,tp,1 # 1 <_entry_offset+0x1>
800056b0:	00200293          	li	t0,2
800056b4:	fe5210e3          	bne	tp,t0,80005694 <test_21+0x4>
800056b8:	0f001eb7          	lui	t4,0xf001
800056bc:	f00e8e93          	add	t4,t4,-256 # f000f00 <_entry_offset+0xf000f00>
800056c0:	01500e13          	li	t3,21
800056c4:	0fd19063          	bne	gp,t4,800057a4 <fail>

800056c8 <test_22>:
800056c8:	00000213          	li	tp,0
800056cc:	f0f0f137          	lui	sp,0xf0f0f
800056d0:	0f010113          	add	sp,sp,240 # f0f0f0f0 <_end+0x70efe0f0>
800056d4:	00000013          	nop
800056d8:	0ff01fb7          	lui	t6,0xff01
800056dc:	ff0f8f93          	add	t6,t6,-16 # ff00ff0 <_entry_offset+0xff00ff0>
800056e0:	00000013          	nop
800056e4:	002ff1b3          	and	gp,t6,sp
800056e8:	00120213          	add	tp,tp,1 # 1 <_entry_offset+0x1>
800056ec:	00200293          	li	t0,2
800056f0:	fc521ee3          	bne	tp,t0,800056cc <test_22+0x4>
800056f4:	00f00eb7          	lui	t4,0xf00
800056f8:	0f0e8e93          	add	t4,t4,240 # f000f0 <_entry_offset+0xf000f0>
800056fc:	01600e13          	li	t3,22
80005700:	0bd19263          	bne	gp,t4,800057a4 <fail>

80005704 <test_23>:
80005704:	00000213          	li	tp,0
80005708:	0f0f1137          	lui	sp,0xf0f1
8000570c:	f0f10113          	add	sp,sp,-241 # f0f0f0f <_entry_offset+0xf0f0f0f>
80005710:	00000013          	nop
80005714:	00000013          	nop
80005718:	00ff0fb7          	lui	t6,0xff0
8000571c:	0fff8f93          	add	t6,t6,255 # ff00ff <_entry_offset+0xff00ff>
80005720:	002ff1b3          	and	gp,t6,sp
80005724:	00120213          	add	tp,tp,1 # 1 <_entry_offset+0x1>
80005728:	00200293          	li	t0,2
8000572c:	fc521ee3          	bne	tp,t0,80005708 <test_23+0x4>
80005730:	000f0eb7          	lui	t4,0xf0
80005734:	00fe8e93          	add	t4,t4,15 # f000f <_entry_offset+0xf000f>
80005738:	01700e13          	li	t3,23
8000573c:	07d19463          	bne	gp,t4,800057a4 <fail>

80005740 <test_24>:
80005740:	ff010fb7          	lui	t6,0xff010
80005744:	f00f8f93          	add	t6,t6,-256 # ff00ff00 <_end+0x7effef00>
80005748:	01f07133          	and	sp,zero,t6
8000574c:	00000e93          	li	t4,0
80005750:	01800e13          	li	t3,24
80005754:	05d11863          	bne	sp,t4,800057a4 <fail>

80005758 <test_25>:
80005758:	00ff0fb7          	lui	t6,0xff0
8000575c:	0fff8f93          	add	t6,t6,255 # ff00ff <_entry_offset+0xff00ff>
80005760:	000ff133          	and	sp,t6,zero
80005764:	00000e93          	li	t4,0
80005768:	01900e13          	li	t3,25
8000576c:	03d11c63          	bne	sp,t4,800057a4 <fail>

80005770 <test_26>:
80005770:	00007fb3          	and	t6,zero,zero
80005774:	00000e93          	li	t4,0
80005778:	01a00e13          	li	t3,26
8000577c:	03df9463          	bne	t6,t4,800057a4 <fail>

80005780 <test_27>:
80005780:	11111fb7          	lui	t6,0x11111
80005784:	111f8f93          	add	t6,t6,273 # 11111111 <_entry_offset+0x11111111>
80005788:	22222137          	lui	sp,0x22222
8000578c:	22210113          	add	sp,sp,546 # 22222222 <_entry_offset+0x22222222>
80005790:	002ff033          	and	zero,t6,sp
80005794:	00000e93          	li	t4,0
80005798:	01b00e13          	li	t3,27
8000579c:	01d01463          	bne	zero,t4,800057a4 <fail>
800057a0:	0100006f          	j	800057b0 <pass>

800057a4 <fail>:
800057a4:	fff00513          	li	a0,-1
800057a8:	00100073          	ebreak
800057ac:	ff9ff06f          	j	800057a4 <fail>

800057b0 <pass>:
800057b0:	00000513          	li	a0,0
800057b4:	00008067          	ret

800057b8 <bne>:
800057b8:	00200e13          	li	t3,2
800057bc:	00000f93          	li	t6,0
800057c0:	00100113          	li	sp,1
800057c4:	002f9663          	bne	t6,sp,800057d0 <bne+0x18>
800057c8:	2bc01a63          	bne	zero,t3,80005a7c <fail>
800057cc:	01c01663          	bne	zero,t3,800057d8 <test_3>
800057d0:	fe2f9ee3          	bne	t6,sp,800057cc <bne+0x14>
800057d4:	2bc01463          	bne	zero,t3,80005a7c <fail>

800057d8 <test_3>:
800057d8:	00300e13          	li	t3,3
800057dc:	00100f93          	li	t6,1
800057e0:	00000113          	li	sp,0
800057e4:	002f9663          	bne	t6,sp,800057f0 <test_3+0x18>
800057e8:	29c01a63          	bne	zero,t3,80005a7c <fail>
800057ec:	01c01663          	bne	zero,t3,800057f8 <test_4>
800057f0:	fe2f9ee3          	bne	t6,sp,800057ec <test_3+0x14>
800057f4:	29c01463          	bne	zero,t3,80005a7c <fail>

800057f8 <test_4>:
800057f8:	00400e13          	li	t3,4
800057fc:	fff00f93          	li	t6,-1
80005800:	00100113          	li	sp,1
80005804:	002f9663          	bne	t6,sp,80005810 <test_4+0x18>
80005808:	27c01a63          	bne	zero,t3,80005a7c <fail>
8000580c:	01c01663          	bne	zero,t3,80005818 <test_5>
80005810:	fe2f9ee3          	bne	t6,sp,8000580c <test_4+0x14>
80005814:	27c01463          	bne	zero,t3,80005a7c <fail>

80005818 <test_5>:
80005818:	00500e13          	li	t3,5
8000581c:	00100f93          	li	t6,1
80005820:	fff00113          	li	sp,-1
80005824:	002f9663          	bne	t6,sp,80005830 <test_5+0x18>
80005828:	25c01a63          	bne	zero,t3,80005a7c <fail>
8000582c:	01c01663          	bne	zero,t3,80005838 <test_6>
80005830:	fe2f9ee3          	bne	t6,sp,8000582c <test_5+0x14>
80005834:	25c01463          	bne	zero,t3,80005a7c <fail>

80005838 <test_6>:
80005838:	00600e13          	li	t3,6
8000583c:	00000f93          	li	t6,0
80005840:	00000113          	li	sp,0
80005844:	002f9463          	bne	t6,sp,8000584c <test_6+0x14>
80005848:	01c01463          	bne	zero,t3,80005850 <test_6+0x18>
8000584c:	23c01863          	bne	zero,t3,80005a7c <fail>
80005850:	fe2f9ee3          	bne	t6,sp,8000584c <test_6+0x14>

80005854 <test_7>:
80005854:	00700e13          	li	t3,7
80005858:	00100f93          	li	t6,1
8000585c:	00100113          	li	sp,1
80005860:	002f9463          	bne	t6,sp,80005868 <test_7+0x14>
80005864:	01c01463          	bne	zero,t3,8000586c <test_7+0x18>
80005868:	21c01a63          	bne	zero,t3,80005a7c <fail>
8000586c:	fe2f9ee3          	bne	t6,sp,80005868 <test_7+0x14>

80005870 <test_8>:
80005870:	00800e13          	li	t3,8
80005874:	fff00f93          	li	t6,-1
80005878:	fff00113          	li	sp,-1
8000587c:	002f9463          	bne	t6,sp,80005884 <test_8+0x14>
80005880:	01c01463          	bne	zero,t3,80005888 <test_8+0x18>
80005884:	1fc01c63          	bne	zero,t3,80005a7c <fail>
80005888:	fe2f9ee3          	bne	t6,sp,80005884 <test_8+0x14>

8000588c <test_9>:
8000588c:	00900e13          	li	t3,9
80005890:	00000213          	li	tp,0
80005894:	00000f93          	li	t6,0
80005898:	00000113          	li	sp,0
8000589c:	1e2f9063          	bne	t6,sp,80005a7c <fail>
800058a0:	00120213          	add	tp,tp,1 # 1 <_entry_offset+0x1>
800058a4:	00200293          	li	t0,2
800058a8:	fe5216e3          	bne	tp,t0,80005894 <test_9+0x8>

800058ac <test_10>:
800058ac:	00a00e13          	li	t3,10
800058b0:	00000213          	li	tp,0
800058b4:	00000f93          	li	t6,0
800058b8:	00000113          	li	sp,0
800058bc:	00000013          	nop
800058c0:	1a2f9e63          	bne	t6,sp,80005a7c <fail>
800058c4:	00120213          	add	tp,tp,1 # 1 <_entry_offset+0x1>
800058c8:	00200293          	li	t0,2
800058cc:	fe5214e3          	bne	tp,t0,800058b4 <test_10+0x8>

800058d0 <test_11>:
800058d0:	00b00e13          	li	t3,11
800058d4:	00000213          	li	tp,0
800058d8:	00000f93          	li	t6,0
800058dc:	00000113          	li	sp,0
800058e0:	00000013          	nop
800058e4:	00000013          	nop
800058e8:	182f9a63          	bne	t6,sp,80005a7c <fail>
800058ec:	00120213          	add	tp,tp,1 # 1 <_entry_offset+0x1>
800058f0:	00200293          	li	t0,2
800058f4:	fe5212e3          	bne	tp,t0,800058d8 <test_11+0x8>

800058f8 <test_12>:
800058f8:	00c00e13          	li	t3,12
800058fc:	00000213          	li	tp,0
80005900:	00000f93          	li	t6,0
80005904:	00000013          	nop
80005908:	00000113          	li	sp,0
8000590c:	162f9863          	bne	t6,sp,80005a7c <fail>
80005910:	00120213          	add	tp,tp,1 # 1 <_entry_offset+0x1>
80005914:	00200293          	li	t0,2
80005918:	fe5214e3          	bne	tp,t0,80005900 <test_12+0x8>

8000591c <test_13>:
8000591c:	00d00e13          	li	t3,13
80005920:	00000213          	li	tp,0
80005924:	00000f93          	li	t6,0
80005928:	00000013          	nop
8000592c:	00000113          	li	sp,0
80005930:	00000013          	nop
80005934:	142f9463          	bne	t6,sp,80005a7c <fail>
80005938:	00120213          	add	tp,tp,1 # 1 <_entry_offset+0x1>
8000593c:	00200293          	li	t0,2
80005940:	fe5212e3          	bne	tp,t0,80005924 <test_13+0x8>

80005944 <test_14>:
80005944:	00e00e13          	li	t3,14
80005948:	00000213          	li	tp,0
8000594c:	00000f93          	li	t6,0
80005950:	00000013          	nop
80005954:	00000013          	nop
80005958:	00000113          	li	sp,0
8000595c:	122f9063          	bne	t6,sp,80005a7c <fail>
80005960:	00120213          	add	tp,tp,1 # 1 <_entry_offset+0x1>
80005964:	00200293          	li	t0,2
80005968:	fe5212e3          	bne	tp,t0,8000594c <test_14+0x8>

8000596c <test_15>:
8000596c:	00f00e13          	li	t3,15
80005970:	00000213          	li	tp,0
80005974:	00000f93          	li	t6,0
80005978:	00000113          	li	sp,0
8000597c:	102f9063          	bne	t6,sp,80005a7c <fail>
80005980:	00120213          	add	tp,tp,1 # 1 <_entry_offset+0x1>
80005984:	00200293          	li	t0,2
80005988:	fe5216e3          	bne	tp,t0,80005974 <test_15+0x8>

8000598c <test_16>:
8000598c:	01000e13          	li	t3,16
80005990:	00000213          	li	tp,0
80005994:	00000f93          	li	t6,0
80005998:	00000113          	li	sp,0
8000599c:	00000013          	nop
800059a0:	0c2f9e63          	bne	t6,sp,80005a7c <fail>
800059a4:	00120213          	add	tp,tp,1 # 1 <_entry_offset+0x1>
800059a8:	00200293          	li	t0,2
800059ac:	fe5214e3          	bne	tp,t0,80005994 <test_16+0x8>

800059b0 <test_17>:
800059b0:	01100e13          	li	t3,17
800059b4:	00000213          	li	tp,0
800059b8:	00000f93          	li	t6,0
800059bc:	00000113          	li	sp,0
800059c0:	00000013          	nop
800059c4:	00000013          	nop
800059c8:	0a2f9a63          	bne	t6,sp,80005a7c <fail>
800059cc:	00120213          	add	tp,tp,1 # 1 <_entry_offset+0x1>
800059d0:	00200293          	li	t0,2
800059d4:	fe5212e3          	bne	tp,t0,800059b8 <test_17+0x8>

800059d8 <test_18>:
800059d8:	01200e13          	li	t3,18
800059dc:	00000213          	li	tp,0
800059e0:	00000f93          	li	t6,0
800059e4:	00000013          	nop
800059e8:	00000113          	li	sp,0
800059ec:	082f9863          	bne	t6,sp,80005a7c <fail>
800059f0:	00120213          	add	tp,tp,1 # 1 <_entry_offset+0x1>
800059f4:	00200293          	li	t0,2
800059f8:	fe5214e3          	bne	tp,t0,800059e0 <test_18+0x8>

800059fc <test_19>:
800059fc:	01300e13          	li	t3,19
80005a00:	00000213          	li	tp,0
80005a04:	00000f93          	li	t6,0
80005a08:	00000013          	nop
80005a0c:	00000113          	li	sp,0
80005a10:	00000013          	nop
80005a14:	062f9463          	bne	t6,sp,80005a7c <fail>
80005a18:	00120213          	add	tp,tp,1 # 1 <_entry_offset+0x1>
80005a1c:	00200293          	li	t0,2
80005a20:	fe5212e3          	bne	tp,t0,80005a04 <test_19+0x8>

80005a24 <test_20>:
80005a24:	01400e13          	li	t3,20
80005a28:	00000213          	li	tp,0
80005a2c:	00000f93          	li	t6,0
80005a30:	00000013          	nop
80005a34:	00000013          	nop
80005a38:	00000113          	li	sp,0
80005a3c:	042f9063          	bne	t6,sp,80005a7c <fail>
80005a40:	00120213          	add	tp,tp,1 # 1 <_entry_offset+0x1>
80005a44:	00200293          	li	t0,2
80005a48:	fe5212e3          	bne	tp,t0,80005a2c <test_20+0x8>

80005a4c <test_21>:
80005a4c:	00100f93          	li	t6,1
80005a50:	000f9a63          	bnez	t6,80005a64 <test_21+0x18>
80005a54:	001f8f93          	add	t6,t6,1
80005a58:	001f8f93          	add	t6,t6,1
80005a5c:	001f8f93          	add	t6,t6,1
80005a60:	001f8f93          	add	t6,t6,1
80005a64:	001f8f93          	add	t6,t6,1
80005a68:	001f8f93          	add	t6,t6,1
80005a6c:	00300e93          	li	t4,3
80005a70:	01500e13          	li	t3,21
80005a74:	01df9463          	bne	t6,t4,80005a7c <fail>
80005a78:	0100006f          	j	80005a88 <pass>

80005a7c <fail>:
80005a7c:	fff00513          	li	a0,-1
80005a80:	00100073          	ebreak
80005a84:	ff9ff06f          	j	80005a7c <fail>

80005a88 <pass>:
80005a88:	00000513          	li	a0,0
80005a8c:	00008067          	ret

80005a90 <auipc>:
80005a90:	00002517          	auipc	a0,0x2
80005a94:	71c50513          	add	a0,a0,1820 # 800081ac <test_23+0x14>
80005a98:	004005ef          	jal	a1,80005a9c <auipc+0xc>
80005a9c:	40b50533          	sub	a0,a0,a1
80005aa0:	00002eb7          	lui	t4,0x2
80005aa4:	710e8e93          	add	t4,t4,1808 # 2710 <_entry_offset+0x2710>
80005aa8:	00200e13          	li	t3,2
80005aac:	03d51463          	bne	a0,t4,80005ad4 <fail>

80005ab0 <test_3>:
80005ab0:	ffffe517          	auipc	a0,0xffffe
80005ab4:	8fc50513          	add	a0,a0,-1796 # 800033ac <test_13+0x4>
80005ab8:	004005ef          	jal	a1,80005abc <test_3+0xc>
80005abc:	40b50533          	sub	a0,a0,a1
80005ac0:	ffffeeb7          	lui	t4,0xffffe
80005ac4:	8f0e8e93          	add	t4,t4,-1808 # ffffd8f0 <_end+0x7ffec8f0>
80005ac8:	00300e13          	li	t3,3
80005acc:	01d51463          	bne	a0,t4,80005ad4 <fail>
80005ad0:	0100006f          	j	80005ae0 <pass>

80005ad4 <fail>:
80005ad4:	fff00513          	li	a0,-1
80005ad8:	00100073          	ebreak
80005adc:	ff9ff06f          	j	80005ad4 <fail>

80005ae0 <pass>:
80005ae0:	00000513          	li	a0,0
80005ae4:	00008067          	ret

80005ae8 <mulhu>:
80005ae8:	00000f93          	li	t6,0
80005aec:	00000113          	li	sp,0
80005af0:	022fb1b3          	mulhu	gp,t6,sp
80005af4:	00000e93          	li	t4,0
80005af8:	00200e13          	li	t3,2
80005afc:	4bd19a63          	bne	gp,t4,80005fb0 <fail>

80005b00 <test_3>:
80005b00:	00100f93          	li	t6,1
80005b04:	00100113          	li	sp,1
80005b08:	022fb1b3          	mulhu	gp,t6,sp
80005b0c:	00000e93          	li	t4,0
80005b10:	00300e13          	li	t3,3
80005b14:	49d19e63          	bne	gp,t4,80005fb0 <fail>

80005b18 <test_4>:
80005b18:	00300f93          	li	t6,3
80005b1c:	00700113          	li	sp,7
80005b20:	022fb1b3          	mulhu	gp,t6,sp
80005b24:	00000e93          	li	t4,0
80005b28:	00400e13          	li	t3,4
80005b2c:	49d19263          	bne	gp,t4,80005fb0 <fail>

80005b30 <test_5>:
80005b30:	00000f93          	li	t6,0
80005b34:	ffff8137          	lui	sp,0xffff8
80005b38:	022fb1b3          	mulhu	gp,t6,sp
80005b3c:	00000e93          	li	t4,0
80005b40:	00500e13          	li	t3,5
80005b44:	47d19663          	bne	gp,t4,80005fb0 <fail>

80005b48 <test_6>:
80005b48:	80000fb7          	lui	t6,0x80000
80005b4c:	00000113          	li	sp,0
80005b50:	022fb1b3          	mulhu	gp,t6,sp
80005b54:	00000e93          	li	t4,0
80005b58:	00600e13          	li	t3,6
80005b5c:	45d19a63          	bne	gp,t4,80005fb0 <fail>

80005b60 <test_7>:
80005b60:	80000fb7          	lui	t6,0x80000
80005b64:	ffff8137          	lui	sp,0xffff8
80005b68:	022fb1b3          	mulhu	gp,t6,sp
80005b6c:	7fffceb7          	lui	t4,0x7fffc
80005b70:	00700e13          	li	t3,7
80005b74:	43d19e63          	bne	gp,t4,80005fb0 <fail>

80005b78 <test_30>:
80005b78:	aaaabfb7          	lui	t6,0xaaaab
80005b7c:	aabf8f93          	add	t6,t6,-1365 # aaaaaaab <_end+0x2aa99aab>
80005b80:	00030137          	lui	sp,0x30
80005b84:	e7d10113          	add	sp,sp,-387 # 2fe7d <_entry_offset+0x2fe7d>
80005b88:	022fb1b3          	mulhu	gp,t6,sp
80005b8c:	00020eb7          	lui	t4,0x20
80005b90:	efee8e93          	add	t4,t4,-258 # 1fefe <_entry_offset+0x1fefe>
80005b94:	01e00e13          	li	t3,30
80005b98:	41d19c63          	bne	gp,t4,80005fb0 <fail>

80005b9c <test_31>:
80005b9c:	00030fb7          	lui	t6,0x30
80005ba0:	e7df8f93          	add	t6,t6,-387 # 2fe7d <_entry_offset+0x2fe7d>
80005ba4:	aaaab137          	lui	sp,0xaaaab
80005ba8:	aab10113          	add	sp,sp,-1365 # aaaaaaab <_end+0x2aa99aab>
80005bac:	022fb1b3          	mulhu	gp,t6,sp
80005bb0:	00020eb7          	lui	t4,0x20
80005bb4:	efee8e93          	add	t4,t4,-258 # 1fefe <_entry_offset+0x1fefe>
80005bb8:	01f00e13          	li	t3,31
80005bbc:	3fd19a63          	bne	gp,t4,80005fb0 <fail>

80005bc0 <test_32>:
80005bc0:	ff000fb7          	lui	t6,0xff000
80005bc4:	ff000137          	lui	sp,0xff000
80005bc8:	022fb1b3          	mulhu	gp,t6,sp
80005bcc:	fe010eb7          	lui	t4,0xfe010
80005bd0:	02000e13          	li	t3,32
80005bd4:	3dd19e63          	bne	gp,t4,80005fb0 <fail>

80005bd8 <test_33>:
80005bd8:	fff00f93          	li	t6,-1
80005bdc:	fff00113          	li	sp,-1
80005be0:	022fb1b3          	mulhu	gp,t6,sp
80005be4:	ffe00e93          	li	t4,-2
80005be8:	02100e13          	li	t3,33
80005bec:	3dd19263          	bne	gp,t4,80005fb0 <fail>

80005bf0 <test_34>:
80005bf0:	fff00f93          	li	t6,-1
80005bf4:	00100113          	li	sp,1
80005bf8:	022fb1b3          	mulhu	gp,t6,sp
80005bfc:	00000e93          	li	t4,0
80005c00:	02200e13          	li	t3,34
80005c04:	3bd19663          	bne	gp,t4,80005fb0 <fail>

80005c08 <test_35>:
80005c08:	00100f93          	li	t6,1
80005c0c:	fff00113          	li	sp,-1
80005c10:	022fb1b3          	mulhu	gp,t6,sp
80005c14:	00000e93          	li	t4,0
80005c18:	02300e13          	li	t3,35
80005c1c:	39d19a63          	bne	gp,t4,80005fb0 <fail>

80005c20 <test_8>:
80005c20:	00d00fb7          	lui	t6,0xd00
80005c24:	00b00137          	lui	sp,0xb00
80005c28:	022fbfb3          	mulhu	t6,t6,sp
80005c2c:	00009eb7          	lui	t4,0x9
80005c30:	f00e8e93          	add	t4,t4,-256 # 8f00 <_entry_offset+0x8f00>
80005c34:	00800e13          	li	t3,8
80005c38:	37df9c63          	bne	t6,t4,80005fb0 <fail>

80005c3c <test_9>:
80005c3c:	00e00fb7          	lui	t6,0xe00
80005c40:	00b00137          	lui	sp,0xb00
80005c44:	022fb133          	mulhu	sp,t6,sp
80005c48:	0000aeb7          	lui	t4,0xa
80005c4c:	a00e8e93          	add	t4,t4,-1536 # 9a00 <_entry_offset+0x9a00>
80005c50:	00900e13          	li	t3,9
80005c54:	35d11e63          	bne	sp,t4,80005fb0 <fail>

80005c58 <test_10>:
80005c58:	00d00fb7          	lui	t6,0xd00
80005c5c:	03ffbfb3          	mulhu	t6,t6,t6
80005c60:	0000beb7          	lui	t4,0xb
80005c64:	900e8e93          	add	t4,t4,-1792 # a900 <_entry_offset+0xa900>
80005c68:	00a00e13          	li	t3,10
80005c6c:	35df9263          	bne	t6,t4,80005fb0 <fail>

80005c70 <test_11>:
80005c70:	00000213          	li	tp,0
80005c74:	00d00fb7          	lui	t6,0xd00
80005c78:	00b00137          	lui	sp,0xb00
80005c7c:	022fb1b3          	mulhu	gp,t6,sp
80005c80:	00018313          	mv	t1,gp
80005c84:	00120213          	add	tp,tp,1 # 1 <_entry_offset+0x1>
80005c88:	00200293          	li	t0,2
80005c8c:	fe5214e3          	bne	tp,t0,80005c74 <test_11+0x4>
80005c90:	00009eb7          	lui	t4,0x9
80005c94:	f00e8e93          	add	t4,t4,-256 # 8f00 <_entry_offset+0x8f00>
80005c98:	00b00e13          	li	t3,11
80005c9c:	31d31a63          	bne	t1,t4,80005fb0 <fail>

80005ca0 <test_12>:
80005ca0:	00000213          	li	tp,0
80005ca4:	00e00fb7          	lui	t6,0xe00
80005ca8:	00b00137          	lui	sp,0xb00
80005cac:	022fb1b3          	mulhu	gp,t6,sp
80005cb0:	00000013          	nop
80005cb4:	00018313          	mv	t1,gp
80005cb8:	00120213          	add	tp,tp,1 # 1 <_entry_offset+0x1>
80005cbc:	00200293          	li	t0,2
80005cc0:	fe5212e3          	bne	tp,t0,80005ca4 <test_12+0x4>
80005cc4:	0000aeb7          	lui	t4,0xa
80005cc8:	a00e8e93          	add	t4,t4,-1536 # 9a00 <_entry_offset+0x9a00>
80005ccc:	00c00e13          	li	t3,12
80005cd0:	2fd31063          	bne	t1,t4,80005fb0 <fail>

80005cd4 <test_13>:
80005cd4:	00000213          	li	tp,0
80005cd8:	00f00fb7          	lui	t6,0xf00
80005cdc:	00b00137          	lui	sp,0xb00
80005ce0:	022fb1b3          	mulhu	gp,t6,sp
80005ce4:	00000013          	nop
80005ce8:	00000013          	nop
80005cec:	00018313          	mv	t1,gp
80005cf0:	00120213          	add	tp,tp,1 # 1 <_entry_offset+0x1>
80005cf4:	00200293          	li	t0,2
80005cf8:	fe5210e3          	bne	tp,t0,80005cd8 <test_13+0x4>
80005cfc:	0000aeb7          	lui	t4,0xa
80005d00:	500e8e93          	add	t4,t4,1280 # a500 <_entry_offset+0xa500>
80005d04:	00d00e13          	li	t3,13
80005d08:	2bd31463          	bne	t1,t4,80005fb0 <fail>

80005d0c <test_14>:
80005d0c:	00000213          	li	tp,0
80005d10:	00d00fb7          	lui	t6,0xd00
80005d14:	00b00137          	lui	sp,0xb00
80005d18:	022fb1b3          	mulhu	gp,t6,sp
80005d1c:	00120213          	add	tp,tp,1 # 1 <_entry_offset+0x1>
80005d20:	00200293          	li	t0,2
80005d24:	fe5216e3          	bne	tp,t0,80005d10 <test_14+0x4>
80005d28:	00009eb7          	lui	t4,0x9
80005d2c:	f00e8e93          	add	t4,t4,-256 # 8f00 <_entry_offset+0x8f00>
80005d30:	00e00e13          	li	t3,14
80005d34:	27d19e63          	bne	gp,t4,80005fb0 <fail>

80005d38 <test_15>:
80005d38:	00000213          	li	tp,0
80005d3c:	00e00fb7          	lui	t6,0xe00
80005d40:	00b00137          	lui	sp,0xb00
80005d44:	00000013          	nop
80005d48:	022fb1b3          	mulhu	gp,t6,sp
80005d4c:	00120213          	add	tp,tp,1 # 1 <_entry_offset+0x1>
80005d50:	00200293          	li	t0,2
80005d54:	fe5214e3          	bne	tp,t0,80005d3c <test_15+0x4>
80005d58:	0000aeb7          	lui	t4,0xa
80005d5c:	a00e8e93          	add	t4,t4,-1536 # 9a00 <_entry_offset+0x9a00>
80005d60:	00f00e13          	li	t3,15
80005d64:	25d19663          	bne	gp,t4,80005fb0 <fail>

80005d68 <test_16>:
80005d68:	00000213          	li	tp,0
80005d6c:	00f00fb7          	lui	t6,0xf00
80005d70:	00b00137          	lui	sp,0xb00
80005d74:	00000013          	nop
80005d78:	00000013          	nop
80005d7c:	022fb1b3          	mulhu	gp,t6,sp
80005d80:	00120213          	add	tp,tp,1 # 1 <_entry_offset+0x1>
80005d84:	00200293          	li	t0,2
80005d88:	fe5212e3          	bne	tp,t0,80005d6c <test_16+0x4>
80005d8c:	0000aeb7          	lui	t4,0xa
80005d90:	500e8e93          	add	t4,t4,1280 # a500 <_entry_offset+0xa500>
80005d94:	01000e13          	li	t3,16
80005d98:	21d19c63          	bne	gp,t4,80005fb0 <fail>

80005d9c <test_17>:
80005d9c:	00000213          	li	tp,0
80005da0:	00d00fb7          	lui	t6,0xd00
80005da4:	00000013          	nop
80005da8:	00b00137          	lui	sp,0xb00
80005dac:	022fb1b3          	mulhu	gp,t6,sp
80005db0:	00120213          	add	tp,tp,1 # 1 <_entry_offset+0x1>
80005db4:	00200293          	li	t0,2
80005db8:	fe5214e3          	bne	tp,t0,80005da0 <test_17+0x4>
80005dbc:	00009eb7          	lui	t4,0x9
80005dc0:	f00e8e93          	add	t4,t4,-256 # 8f00 <_entry_offset+0x8f00>
80005dc4:	01100e13          	li	t3,17
80005dc8:	1fd19463          	bne	gp,t4,80005fb0 <fail>

80005dcc <test_18>:
80005dcc:	00000213          	li	tp,0
80005dd0:	00e00fb7          	lui	t6,0xe00
80005dd4:	00000013          	nop
80005dd8:	00b00137          	lui	sp,0xb00
80005ddc:	00000013          	nop
80005de0:	022fb1b3          	mulhu	gp,t6,sp
80005de4:	00120213          	add	tp,tp,1 # 1 <_entry_offset+0x1>
80005de8:	00200293          	li	t0,2
80005dec:	fe5212e3          	bne	tp,t0,80005dd0 <test_18+0x4>
80005df0:	0000aeb7          	lui	t4,0xa
80005df4:	a00e8e93          	add	t4,t4,-1536 # 9a00 <_entry_offset+0x9a00>
80005df8:	01200e13          	li	t3,18
80005dfc:	1bd19a63          	bne	gp,t4,80005fb0 <fail>

80005e00 <test_19>:
80005e00:	00000213          	li	tp,0
80005e04:	00f00fb7          	lui	t6,0xf00
80005e08:	00000013          	nop
80005e0c:	00000013          	nop
80005e10:	00b00137          	lui	sp,0xb00
80005e14:	022fb1b3          	mulhu	gp,t6,sp
80005e18:	00120213          	add	tp,tp,1 # 1 <_entry_offset+0x1>
80005e1c:	00200293          	li	t0,2
80005e20:	fe5212e3          	bne	tp,t0,80005e04 <test_19+0x4>
80005e24:	0000aeb7          	lui	t4,0xa
80005e28:	500e8e93          	add	t4,t4,1280 # a500 <_entry_offset+0xa500>
80005e2c:	01300e13          	li	t3,19
80005e30:	19d19063          	bne	gp,t4,80005fb0 <fail>

80005e34 <test_20>:
80005e34:	00000213          	li	tp,0
80005e38:	00b00137          	lui	sp,0xb00
80005e3c:	00d00fb7          	lui	t6,0xd00
80005e40:	022fb1b3          	mulhu	gp,t6,sp
80005e44:	00120213          	add	tp,tp,1 # 1 <_entry_offset+0x1>
80005e48:	00200293          	li	t0,2
80005e4c:	fe5216e3          	bne	tp,t0,80005e38 <test_20+0x4>
80005e50:	00009eb7          	lui	t4,0x9
80005e54:	f00e8e93          	add	t4,t4,-256 # 8f00 <_entry_offset+0x8f00>
80005e58:	01400e13          	li	t3,20
80005e5c:	15d19a63          	bne	gp,t4,80005fb0 <fail>

80005e60 <test_21>:
80005e60:	00000213          	li	tp,0
80005e64:	00b00137          	lui	sp,0xb00
80005e68:	00e00fb7          	lui	t6,0xe00
80005e6c:	00000013          	nop
80005e70:	022fb1b3          	mulhu	gp,t6,sp
80005e74:	00120213          	add	tp,tp,1 # 1 <_entry_offset+0x1>
80005e78:	00200293          	li	t0,2
80005e7c:	fe5214e3          	bne	tp,t0,80005e64 <test_21+0x4>
80005e80:	0000aeb7          	lui	t4,0xa
80005e84:	a00e8e93          	add	t4,t4,-1536 # 9a00 <_entry_offset+0x9a00>
80005e88:	01500e13          	li	t3,21
80005e8c:	13d19263          	bne	gp,t4,80005fb0 <fail>

80005e90 <test_22>:
80005e90:	00000213          	li	tp,0
80005e94:	00b00137          	lui	sp,0xb00
80005e98:	00f00fb7          	lui	t6,0xf00
80005e9c:	00000013          	nop
80005ea0:	00000013          	nop
80005ea4:	022fb1b3          	mulhu	gp,t6,sp
80005ea8:	00120213          	add	tp,tp,1 # 1 <_entry_offset+0x1>
80005eac:	00200293          	li	t0,2
80005eb0:	fe5212e3          	bne	tp,t0,80005e94 <test_22+0x4>
80005eb4:	0000aeb7          	lui	t4,0xa
80005eb8:	500e8e93          	add	t4,t4,1280 # a500 <_entry_offset+0xa500>
80005ebc:	01600e13          	li	t3,22
80005ec0:	0fd19863          	bne	gp,t4,80005fb0 <fail>

80005ec4 <test_23>:
80005ec4:	00000213          	li	tp,0
80005ec8:	00b00137          	lui	sp,0xb00
80005ecc:	00000013          	nop
80005ed0:	00d00fb7          	lui	t6,0xd00
80005ed4:	022fb1b3          	mulhu	gp,t6,sp
80005ed8:	00120213          	add	tp,tp,1 # 1 <_entry_offset+0x1>
80005edc:	00200293          	li	t0,2
80005ee0:	fe5214e3          	bne	tp,t0,80005ec8 <test_23+0x4>
80005ee4:	00009eb7          	lui	t4,0x9
80005ee8:	f00e8e93          	add	t4,t4,-256 # 8f00 <_entry_offset+0x8f00>
80005eec:	01700e13          	li	t3,23
80005ef0:	0dd19063          	bne	gp,t4,80005fb0 <fail>

80005ef4 <test_24>:
80005ef4:	00000213          	li	tp,0
80005ef8:	00b00137          	lui	sp,0xb00
80005efc:	00000013          	nop
80005f00:	00e00fb7          	lui	t6,0xe00
80005f04:	00000013          	nop
80005f08:	022fb1b3          	mulhu	gp,t6,sp
80005f0c:	00120213          	add	tp,tp,1 # 1 <_entry_offset+0x1>
80005f10:	00200293          	li	t0,2
80005f14:	fe5212e3          	bne	tp,t0,80005ef8 <test_24+0x4>
80005f18:	0000aeb7          	lui	t4,0xa
80005f1c:	a00e8e93          	add	t4,t4,-1536 # 9a00 <_entry_offset+0x9a00>
80005f20:	01800e13          	li	t3,24
80005f24:	09d19663          	bne	gp,t4,80005fb0 <fail>

80005f28 <test_25>:
80005f28:	00000213          	li	tp,0
80005f2c:	00b00137          	lui	sp,0xb00
80005f30:	00000013          	nop
80005f34:	00000013          	nop
80005f38:	00f00fb7          	lui	t6,0xf00
80005f3c:	022fb1b3          	mulhu	gp,t6,sp
80005f40:	00120213          	add	tp,tp,1 # 1 <_entry_offset+0x1>
80005f44:	00200293          	li	t0,2
80005f48:	fe5212e3          	bne	tp,t0,80005f2c <test_25+0x4>
80005f4c:	0000aeb7          	lui	t4,0xa
80005f50:	500e8e93          	add	t4,t4,1280 # a500 <_entry_offset+0xa500>
80005f54:	01900e13          	li	t3,25
80005f58:	05d19c63          	bne	gp,t4,80005fb0 <fail>

80005f5c <test_26>:
80005f5c:	7c000fb7          	lui	t6,0x7c000
80005f60:	03f03133          	mulhu	sp,zero,t6
80005f64:	00000e93          	li	t4,0
80005f68:	01a00e13          	li	t3,26
80005f6c:	05d11263          	bne	sp,t4,80005fb0 <fail>

80005f70 <test_27>:
80005f70:	80000fb7          	lui	t6,0x80000
80005f74:	020fb133          	mulhu	sp,t6,zero
80005f78:	00000e93          	li	t4,0
80005f7c:	01b00e13          	li	t3,27
80005f80:	03d11863          	bne	sp,t4,80005fb0 <fail>

80005f84 <test_28>:
80005f84:	02003fb3          	mulhu	t6,zero,zero
80005f88:	00000e93          	li	t4,0
80005f8c:	01c00e13          	li	t3,28
80005f90:	03df9063          	bne	t6,t4,80005fb0 <fail>

80005f94 <test_29>:
80005f94:	02100fb7          	lui	t6,0x2100
80005f98:	02200137          	lui	sp,0x2200
80005f9c:	022fb033          	mulhu	zero,t6,sp
80005fa0:	00000e93          	li	t4,0
80005fa4:	01d00e13          	li	t3,29
80005fa8:	01d01463          	bne	zero,t4,80005fb0 <fail>
80005fac:	0100006f          	j	80005fbc <pass>

80005fb0 <fail>:
80005fb0:	fff00513          	li	a0,-1
80005fb4:	00100073          	ebreak
80005fb8:	ff9ff06f          	j	80005fb0 <fail>

80005fbc <pass>:
80005fbc:	00000513          	li	a0,0
80005fc0:	00008067          	ret

80005fc4 <slt>:
80005fc4:	00000f93          	li	t6,0
80005fc8:	00000113          	li	sp,0
80005fcc:	002fa1b3          	slt	gp,t6,sp
80005fd0:	00000e93          	li	t4,0
80005fd4:	00200e13          	li	t3,2
80005fd8:	4bd19a63          	bne	gp,t4,8000648c <fail>

80005fdc <test_3>:
80005fdc:	00100f93          	li	t6,1
80005fe0:	00100113          	li	sp,1
80005fe4:	002fa1b3          	slt	gp,t6,sp
80005fe8:	00000e93          	li	t4,0
80005fec:	00300e13          	li	t3,3
80005ff0:	49d19e63          	bne	gp,t4,8000648c <fail>

80005ff4 <test_4>:
80005ff4:	00300f93          	li	t6,3
80005ff8:	00700113          	li	sp,7
80005ffc:	002fa1b3          	slt	gp,t6,sp
80006000:	00100e93          	li	t4,1
80006004:	00400e13          	li	t3,4
80006008:	49d19263          	bne	gp,t4,8000648c <fail>

8000600c <test_5>:
8000600c:	00700f93          	li	t6,7
80006010:	00300113          	li	sp,3
80006014:	002fa1b3          	slt	gp,t6,sp
80006018:	00000e93          	li	t4,0
8000601c:	00500e13          	li	t3,5
80006020:	47d19663          	bne	gp,t4,8000648c <fail>

80006024 <test_6>:
80006024:	00000f93          	li	t6,0
80006028:	ffff8137          	lui	sp,0xffff8
8000602c:	002fa1b3          	slt	gp,t6,sp
80006030:	00000e93          	li	t4,0
80006034:	00600e13          	li	t3,6
80006038:	45d19a63          	bne	gp,t4,8000648c <fail>

8000603c <test_7>:
8000603c:	80000fb7          	lui	t6,0x80000
80006040:	00000113          	li	sp,0
80006044:	002fa1b3          	slt	gp,t6,sp
80006048:	00100e93          	li	t4,1
8000604c:	00700e13          	li	t3,7
80006050:	43d19e63          	bne	gp,t4,8000648c <fail>

80006054 <test_8>:
80006054:	80000fb7          	lui	t6,0x80000
80006058:	ffff8137          	lui	sp,0xffff8
8000605c:	002fa1b3          	slt	gp,t6,sp
80006060:	00100e93          	li	t4,1
80006064:	00800e13          	li	t3,8
80006068:	43d19263          	bne	gp,t4,8000648c <fail>

8000606c <test_9>:
8000606c:	00000f93          	li	t6,0
80006070:	00008137          	lui	sp,0x8
80006074:	fff10113          	add	sp,sp,-1 # 7fff <_entry_offset+0x7fff>
80006078:	002fa1b3          	slt	gp,t6,sp
8000607c:	00100e93          	li	t4,1
80006080:	00900e13          	li	t3,9
80006084:	41d19463          	bne	gp,t4,8000648c <fail>

80006088 <test_10>:
80006088:	80000fb7          	lui	t6,0x80000
8000608c:	ffff8f93          	add	t6,t6,-1 # 7fffffff <_entry_offset+0x7fffffff>
80006090:	00000113          	li	sp,0
80006094:	002fa1b3          	slt	gp,t6,sp
80006098:	00000e93          	li	t4,0
8000609c:	00a00e13          	li	t3,10
800060a0:	3fd19663          	bne	gp,t4,8000648c <fail>

800060a4 <test_11>:
800060a4:	80000fb7          	lui	t6,0x80000
800060a8:	ffff8f93          	add	t6,t6,-1 # 7fffffff <_entry_offset+0x7fffffff>
800060ac:	00008137          	lui	sp,0x8
800060b0:	fff10113          	add	sp,sp,-1 # 7fff <_entry_offset+0x7fff>
800060b4:	002fa1b3          	slt	gp,t6,sp
800060b8:	00000e93          	li	t4,0
800060bc:	00b00e13          	li	t3,11
800060c0:	3dd19663          	bne	gp,t4,8000648c <fail>

800060c4 <test_12>:
800060c4:	80000fb7          	lui	t6,0x80000
800060c8:	00008137          	lui	sp,0x8
800060cc:	fff10113          	add	sp,sp,-1 # 7fff <_entry_offset+0x7fff>
800060d0:	002fa1b3          	slt	gp,t6,sp
800060d4:	00100e93          	li	t4,1
800060d8:	00c00e13          	li	t3,12
800060dc:	3bd19863          	bne	gp,t4,8000648c <fail>

800060e0 <test_13>:
800060e0:	80000fb7          	lui	t6,0x80000
800060e4:	ffff8f93          	add	t6,t6,-1 # 7fffffff <_entry_offset+0x7fffffff>
800060e8:	ffff8137          	lui	sp,0xffff8
800060ec:	002fa1b3          	slt	gp,t6,sp
800060f0:	00000e93          	li	t4,0
800060f4:	00d00e13          	li	t3,13
800060f8:	39d19a63          	bne	gp,t4,8000648c <fail>

800060fc <test_14>:
800060fc:	00000f93          	li	t6,0
80006100:	fff00113          	li	sp,-1
80006104:	002fa1b3          	slt	gp,t6,sp
80006108:	00000e93          	li	t4,0
8000610c:	00e00e13          	li	t3,14
80006110:	37d19e63          	bne	gp,t4,8000648c <fail>

80006114 <test_15>:
80006114:	fff00f93          	li	t6,-1
80006118:	00100113          	li	sp,1
8000611c:	002fa1b3          	slt	gp,t6,sp
80006120:	00100e93          	li	t4,1
80006124:	00f00e13          	li	t3,15
80006128:	37d19263          	bne	gp,t4,8000648c <fail>

8000612c <test_16>:
8000612c:	fff00f93          	li	t6,-1
80006130:	fff00113          	li	sp,-1
80006134:	002fa1b3          	slt	gp,t6,sp
80006138:	00000e93          	li	t4,0
8000613c:	01000e13          	li	t3,16
80006140:	35d19663          	bne	gp,t4,8000648c <fail>

80006144 <test_17>:
80006144:	00e00f93          	li	t6,14
80006148:	00d00113          	li	sp,13
8000614c:	002fafb3          	slt	t6,t6,sp
80006150:	00000e93          	li	t4,0
80006154:	01100e13          	li	t3,17
80006158:	33df9a63          	bne	t6,t4,8000648c <fail>

8000615c <test_18>:
8000615c:	00b00f93          	li	t6,11
80006160:	00d00113          	li	sp,13
80006164:	002fa133          	slt	sp,t6,sp
80006168:	00100e93          	li	t4,1
8000616c:	01200e13          	li	t3,18
80006170:	31d11e63          	bne	sp,t4,8000648c <fail>

80006174 <test_19>:
80006174:	00d00f93          	li	t6,13
80006178:	01ffafb3          	slt	t6,t6,t6
8000617c:	00000e93          	li	t4,0
80006180:	01300e13          	li	t3,19
80006184:	31df9463          	bne	t6,t4,8000648c <fail>

80006188 <test_20>:
80006188:	00000213          	li	tp,0
8000618c:	00b00f93          	li	t6,11
80006190:	00d00113          	li	sp,13
80006194:	002fa1b3          	slt	gp,t6,sp
80006198:	00018313          	mv	t1,gp
8000619c:	00120213          	add	tp,tp,1 # 1 <_entry_offset+0x1>
800061a0:	00200293          	li	t0,2
800061a4:	fe5214e3          	bne	tp,t0,8000618c <test_20+0x4>
800061a8:	00100e93          	li	t4,1
800061ac:	01400e13          	li	t3,20
800061b0:	2dd31e63          	bne	t1,t4,8000648c <fail>

800061b4 <test_21>:
800061b4:	00000213          	li	tp,0
800061b8:	00e00f93          	li	t6,14
800061bc:	00d00113          	li	sp,13
800061c0:	002fa1b3          	slt	gp,t6,sp
800061c4:	00000013          	nop
800061c8:	00018313          	mv	t1,gp
800061cc:	00120213          	add	tp,tp,1 # 1 <_entry_offset+0x1>
800061d0:	00200293          	li	t0,2
800061d4:	fe5212e3          	bne	tp,t0,800061b8 <test_21+0x4>
800061d8:	00000e93          	li	t4,0
800061dc:	01500e13          	li	t3,21
800061e0:	2bd31663          	bne	t1,t4,8000648c <fail>

800061e4 <test_22>:
800061e4:	00000213          	li	tp,0
800061e8:	00c00f93          	li	t6,12
800061ec:	00d00113          	li	sp,13
800061f0:	002fa1b3          	slt	gp,t6,sp
800061f4:	00000013          	nop
800061f8:	00000013          	nop
800061fc:	00018313          	mv	t1,gp
80006200:	00120213          	add	tp,tp,1 # 1 <_entry_offset+0x1>
80006204:	00200293          	li	t0,2
80006208:	fe5210e3          	bne	tp,t0,800061e8 <test_22+0x4>
8000620c:	00100e93          	li	t4,1
80006210:	01600e13          	li	t3,22
80006214:	27d31c63          	bne	t1,t4,8000648c <fail>

80006218 <test_23>:
80006218:	00000213          	li	tp,0
8000621c:	00e00f93          	li	t6,14
80006220:	00d00113          	li	sp,13
80006224:	002fa1b3          	slt	gp,t6,sp
80006228:	00120213          	add	tp,tp,1 # 1 <_entry_offset+0x1>
8000622c:	00200293          	li	t0,2
80006230:	fe5216e3          	bne	tp,t0,8000621c <test_23+0x4>
80006234:	00000e93          	li	t4,0
80006238:	01700e13          	li	t3,23
8000623c:	25d19863          	bne	gp,t4,8000648c <fail>

80006240 <test_24>:
80006240:	00000213          	li	tp,0
80006244:	00b00f93          	li	t6,11
80006248:	00d00113          	li	sp,13
8000624c:	00000013          	nop
80006250:	002fa1b3          	slt	gp,t6,sp
80006254:	00120213          	add	tp,tp,1 # 1 <_entry_offset+0x1>
80006258:	00200293          	li	t0,2
8000625c:	fe5214e3          	bne	tp,t0,80006244 <test_24+0x4>
80006260:	00100e93          	li	t4,1
80006264:	01800e13          	li	t3,24
80006268:	23d19263          	bne	gp,t4,8000648c <fail>

8000626c <test_25>:
8000626c:	00000213          	li	tp,0
80006270:	00f00f93          	li	t6,15
80006274:	00d00113          	li	sp,13
80006278:	00000013          	nop
8000627c:	00000013          	nop
80006280:	002fa1b3          	slt	gp,t6,sp
80006284:	00120213          	add	tp,tp,1 # 1 <_entry_offset+0x1>
80006288:	00200293          	li	t0,2
8000628c:	fe5212e3          	bne	tp,t0,80006270 <test_25+0x4>
80006290:	00000e93          	li	t4,0
80006294:	01900e13          	li	t3,25
80006298:	1fd19a63          	bne	gp,t4,8000648c <fail>

8000629c <test_26>:
8000629c:	00000213          	li	tp,0
800062a0:	00a00f93          	li	t6,10
800062a4:	00000013          	nop
800062a8:	00d00113          	li	sp,13
800062ac:	002fa1b3          	slt	gp,t6,sp
800062b0:	00120213          	add	tp,tp,1 # 1 <_entry_offset+0x1>
800062b4:	00200293          	li	t0,2
800062b8:	fe5214e3          	bne	tp,t0,800062a0 <test_26+0x4>
800062bc:	00100e93          	li	t4,1
800062c0:	01a00e13          	li	t3,26
800062c4:	1dd19463          	bne	gp,t4,8000648c <fail>

800062c8 <test_27>:
800062c8:	00000213          	li	tp,0
800062cc:	01000f93          	li	t6,16
800062d0:	00000013          	nop
800062d4:	00d00113          	li	sp,13
800062d8:	00000013          	nop
800062dc:	002fa1b3          	slt	gp,t6,sp
800062e0:	00120213          	add	tp,tp,1 # 1 <_entry_offset+0x1>
800062e4:	00200293          	li	t0,2
800062e8:	fe5212e3          	bne	tp,t0,800062cc <test_27+0x4>
800062ec:	00000e93          	li	t4,0
800062f0:	01b00e13          	li	t3,27
800062f4:	19d19c63          	bne	gp,t4,8000648c <fail>

800062f8 <test_28>:
800062f8:	00000213          	li	tp,0
800062fc:	00900f93          	li	t6,9
80006300:	00000013          	nop
80006304:	00000013          	nop
80006308:	00d00113          	li	sp,13
8000630c:	002fa1b3          	slt	gp,t6,sp
80006310:	00120213          	add	tp,tp,1 # 1 <_entry_offset+0x1>
80006314:	00200293          	li	t0,2
80006318:	fe5212e3          	bne	tp,t0,800062fc <test_28+0x4>
8000631c:	00100e93          	li	t4,1
80006320:	01c00e13          	li	t3,28
80006324:	17d19463          	bne	gp,t4,8000648c <fail>

80006328 <test_29>:
80006328:	00000213          	li	tp,0
8000632c:	00d00113          	li	sp,13
80006330:	01100f93          	li	t6,17
80006334:	002fa1b3          	slt	gp,t6,sp
80006338:	00120213          	add	tp,tp,1 # 1 <_entry_offset+0x1>
8000633c:	00200293          	li	t0,2
80006340:	fe5216e3          	bne	tp,t0,8000632c <test_29+0x4>
80006344:	00000e93          	li	t4,0
80006348:	01d00e13          	li	t3,29
8000634c:	15d19063          	bne	gp,t4,8000648c <fail>

80006350 <test_30>:
80006350:	00000213          	li	tp,0
80006354:	00d00113          	li	sp,13
80006358:	00800f93          	li	t6,8
8000635c:	00000013          	nop
80006360:	002fa1b3          	slt	gp,t6,sp
80006364:	00120213          	add	tp,tp,1 # 1 <_entry_offset+0x1>
80006368:	00200293          	li	t0,2
8000636c:	fe5214e3          	bne	tp,t0,80006354 <test_30+0x4>
80006370:	00100e93          	li	t4,1
80006374:	01e00e13          	li	t3,30
80006378:	11d19a63          	bne	gp,t4,8000648c <fail>

8000637c <test_31>:
8000637c:	00000213          	li	tp,0
80006380:	00d00113          	li	sp,13
80006384:	01200f93          	li	t6,18
80006388:	00000013          	nop
8000638c:	00000013          	nop
80006390:	002fa1b3          	slt	gp,t6,sp
80006394:	00120213          	add	tp,tp,1 # 1 <_entry_offset+0x1>
80006398:	00200293          	li	t0,2
8000639c:	fe5212e3          	bne	tp,t0,80006380 <test_31+0x4>
800063a0:	00000e93          	li	t4,0
800063a4:	01f00e13          	li	t3,31
800063a8:	0fd19263          	bne	gp,t4,8000648c <fail>

800063ac <test_32>:
800063ac:	00000213          	li	tp,0
800063b0:	00d00113          	li	sp,13
800063b4:	00000013          	nop
800063b8:	00700f93          	li	t6,7
800063bc:	002fa1b3          	slt	gp,t6,sp
800063c0:	00120213          	add	tp,tp,1 # 1 <_entry_offset+0x1>
800063c4:	00200293          	li	t0,2
800063c8:	fe5214e3          	bne	tp,t0,800063b0 <test_32+0x4>
800063cc:	00100e93          	li	t4,1
800063d0:	02000e13          	li	t3,32
800063d4:	0bd19c63          	bne	gp,t4,8000648c <fail>

800063d8 <test_33>:
800063d8:	00000213          	li	tp,0
800063dc:	00d00113          	li	sp,13
800063e0:	00000013          	nop
800063e4:	01300f93          	li	t6,19
800063e8:	00000013          	nop
800063ec:	002fa1b3          	slt	gp,t6,sp
800063f0:	00120213          	add	tp,tp,1 # 1 <_entry_offset+0x1>
800063f4:	00200293          	li	t0,2
800063f8:	fe5212e3          	bne	tp,t0,800063dc <test_33+0x4>
800063fc:	00000e93          	li	t4,0
80006400:	02100e13          	li	t3,33
80006404:	09d19463          	bne	gp,t4,8000648c <fail>

80006408 <test_34>:
80006408:	00000213          	li	tp,0
8000640c:	00d00113          	li	sp,13
80006410:	00000013          	nop
80006414:	00000013          	nop
80006418:	00600f93          	li	t6,6
8000641c:	002fa1b3          	slt	gp,t6,sp
80006420:	00120213          	add	tp,tp,1 # 1 <_entry_offset+0x1>
80006424:	00200293          	li	t0,2
80006428:	fe5212e3          	bne	tp,t0,8000640c <test_34+0x4>
8000642c:	00100e93          	li	t4,1
80006430:	02200e13          	li	t3,34
80006434:	05d19c63          	bne	gp,t4,8000648c <fail>

80006438 <test_35>:
80006438:	fff00f93          	li	t6,-1
8000643c:	01f02133          	sgtz	sp,t6
80006440:	00000e93          	li	t4,0
80006444:	02300e13          	li	t3,35
80006448:	05d11263          	bne	sp,t4,8000648c <fail>

8000644c <test_36>:
8000644c:	fff00f93          	li	t6,-1
80006450:	000fa133          	sltz	sp,t6
80006454:	00100e93          	li	t4,1
80006458:	02400e13          	li	t3,36
8000645c:	03d11863          	bne	sp,t4,8000648c <fail>

80006460 <test_37>:
80006460:	00002fb3          	sltz	t6,zero
80006464:	00000e93          	li	t4,0
80006468:	02500e13          	li	t3,37
8000646c:	03df9063          	bne	t6,t4,8000648c <fail>

80006470 <test_38>:
80006470:	01000f93          	li	t6,16
80006474:	01e00113          	li	sp,30
80006478:	002fa033          	slt	zero,t6,sp
8000647c:	00000e93          	li	t4,0
80006480:	02600e13          	li	t3,38
80006484:	01d01463          	bne	zero,t4,8000648c <fail>
80006488:	0100006f          	j	80006498 <pass>

8000648c <fail>:
8000648c:	fff00513          	li	a0,-1
80006490:	00100073          	ebreak
80006494:	ff9ff06f          	j	8000648c <fail>

80006498 <pass>:
80006498:	00000513          	li	a0,0
8000649c:	00008067          	ret

800064a0 <mulhsu>:
800064a0:	00000f93          	li	t6,0
800064a4:	00000113          	li	sp,0
800064a8:	022fa1b3          	mulhsu	gp,t6,sp
800064ac:	00000e93          	li	t4,0
800064b0:	00200e13          	li	t3,2
800064b4:	4bd19a63          	bne	gp,t4,80006968 <fail>

800064b8 <test_3>:
800064b8:	00100f93          	li	t6,1
800064bc:	00100113          	li	sp,1
800064c0:	022fa1b3          	mulhsu	gp,t6,sp
800064c4:	00000e93          	li	t4,0
800064c8:	00300e13          	li	t3,3
800064cc:	49d19e63          	bne	gp,t4,80006968 <fail>

800064d0 <test_4>:
800064d0:	00300f93          	li	t6,3
800064d4:	00700113          	li	sp,7
800064d8:	022fa1b3          	mulhsu	gp,t6,sp
800064dc:	00000e93          	li	t4,0
800064e0:	00400e13          	li	t3,4
800064e4:	49d19263          	bne	gp,t4,80006968 <fail>

800064e8 <test_5>:
800064e8:	00000f93          	li	t6,0
800064ec:	ffff8137          	lui	sp,0xffff8
800064f0:	022fa1b3          	mulhsu	gp,t6,sp
800064f4:	00000e93          	li	t4,0
800064f8:	00500e13          	li	t3,5
800064fc:	47d19663          	bne	gp,t4,80006968 <fail>

80006500 <test_6>:
80006500:	80000fb7          	lui	t6,0x80000
80006504:	00000113          	li	sp,0
80006508:	022fa1b3          	mulhsu	gp,t6,sp
8000650c:	00000e93          	li	t4,0
80006510:	00600e13          	li	t3,6
80006514:	45d19a63          	bne	gp,t4,80006968 <fail>

80006518 <test_7>:
80006518:	80000fb7          	lui	t6,0x80000
8000651c:	ffff8137          	lui	sp,0xffff8
80006520:	022fa1b3          	mulhsu	gp,t6,sp
80006524:	80004eb7          	lui	t4,0x80004
80006528:	00700e13          	li	t3,7
8000652c:	43d19e63          	bne	gp,t4,80006968 <fail>

80006530 <test_30>:
80006530:	aaaabfb7          	lui	t6,0xaaaab
80006534:	aabf8f93          	add	t6,t6,-1365 # aaaaaaab <_end+0x2aa99aab>
80006538:	00030137          	lui	sp,0x30
8000653c:	e7d10113          	add	sp,sp,-387 # 2fe7d <_entry_offset+0x2fe7d>
80006540:	022fa1b3          	mulhsu	gp,t6,sp
80006544:	ffff0eb7          	lui	t4,0xffff0
80006548:	081e8e93          	add	t4,t4,129 # ffff0081 <_end+0x7ffdf081>
8000654c:	01e00e13          	li	t3,30
80006550:	41d19c63          	bne	gp,t4,80006968 <fail>

80006554 <test_31>:
80006554:	00030fb7          	lui	t6,0x30
80006558:	e7df8f93          	add	t6,t6,-387 # 2fe7d <_entry_offset+0x2fe7d>
8000655c:	aaaab137          	lui	sp,0xaaaab
80006560:	aab10113          	add	sp,sp,-1365 # aaaaaaab <_end+0x2aa99aab>
80006564:	022fa1b3          	mulhsu	gp,t6,sp
80006568:	00020eb7          	lui	t4,0x20
8000656c:	efee8e93          	add	t4,t4,-258 # 1fefe <_entry_offset+0x1fefe>
80006570:	01f00e13          	li	t3,31
80006574:	3fd19a63          	bne	gp,t4,80006968 <fail>

80006578 <test_32>:
80006578:	ff000fb7          	lui	t6,0xff000
8000657c:	ff000137          	lui	sp,0xff000
80006580:	022fa1b3          	mulhsu	gp,t6,sp
80006584:	ff010eb7          	lui	t4,0xff010
80006588:	02000e13          	li	t3,32
8000658c:	3dd19e63          	bne	gp,t4,80006968 <fail>

80006590 <test_33>:
80006590:	fff00f93          	li	t6,-1
80006594:	fff00113          	li	sp,-1
80006598:	022fa1b3          	mulhsu	gp,t6,sp
8000659c:	fff00e93          	li	t4,-1
800065a0:	02100e13          	li	t3,33
800065a4:	3dd19263          	bne	gp,t4,80006968 <fail>

800065a8 <test_34>:
800065a8:	fff00f93          	li	t6,-1
800065ac:	00100113          	li	sp,1
800065b0:	022fa1b3          	mulhsu	gp,t6,sp
800065b4:	fff00e93          	li	t4,-1
800065b8:	02200e13          	li	t3,34
800065bc:	3bd19663          	bne	gp,t4,80006968 <fail>

800065c0 <test_35>:
800065c0:	00100f93          	li	t6,1
800065c4:	fff00113          	li	sp,-1
800065c8:	022fa1b3          	mulhsu	gp,t6,sp
800065cc:	00000e93          	li	t4,0
800065d0:	02300e13          	li	t3,35
800065d4:	39d19a63          	bne	gp,t4,80006968 <fail>

800065d8 <test_8>:
800065d8:	00d00fb7          	lui	t6,0xd00
800065dc:	00b00137          	lui	sp,0xb00
800065e0:	022fafb3          	mulhsu	t6,t6,sp
800065e4:	00009eb7          	lui	t4,0x9
800065e8:	f00e8e93          	add	t4,t4,-256 # 8f00 <_entry_offset+0x8f00>
800065ec:	00800e13          	li	t3,8
800065f0:	37df9c63          	bne	t6,t4,80006968 <fail>

800065f4 <test_9>:
800065f4:	00e00fb7          	lui	t6,0xe00
800065f8:	00b00137          	lui	sp,0xb00
800065fc:	022fa133          	mulhsu	sp,t6,sp
80006600:	0000aeb7          	lui	t4,0xa
80006604:	a00e8e93          	add	t4,t4,-1536 # 9a00 <_entry_offset+0x9a00>
80006608:	00900e13          	li	t3,9
8000660c:	35d11e63          	bne	sp,t4,80006968 <fail>

80006610 <test_10>:
80006610:	00d00fb7          	lui	t6,0xd00
80006614:	03ffafb3          	mulhsu	t6,t6,t6
80006618:	0000beb7          	lui	t4,0xb
8000661c:	900e8e93          	add	t4,t4,-1792 # a900 <_entry_offset+0xa900>
80006620:	00a00e13          	li	t3,10
80006624:	35df9263          	bne	t6,t4,80006968 <fail>

80006628 <test_11>:
80006628:	00000213          	li	tp,0
8000662c:	00d00fb7          	lui	t6,0xd00
80006630:	00b00137          	lui	sp,0xb00
80006634:	022fa1b3          	mulhsu	gp,t6,sp
80006638:	00018313          	mv	t1,gp
8000663c:	00120213          	add	tp,tp,1 # 1 <_entry_offset+0x1>
80006640:	00200293          	li	t0,2
80006644:	fe5214e3          	bne	tp,t0,8000662c <test_11+0x4>
80006648:	00009eb7          	lui	t4,0x9
8000664c:	f00e8e93          	add	t4,t4,-256 # 8f00 <_entry_offset+0x8f00>
80006650:	00b00e13          	li	t3,11
80006654:	31d31a63          	bne	t1,t4,80006968 <fail>

80006658 <test_12>:
80006658:	00000213          	li	tp,0
8000665c:	00e00fb7          	lui	t6,0xe00
80006660:	00b00137          	lui	sp,0xb00
80006664:	022fa1b3          	mulhsu	gp,t6,sp
80006668:	00000013          	nop
8000666c:	00018313          	mv	t1,gp
80006670:	00120213          	add	tp,tp,1 # 1 <_entry_offset+0x1>
80006674:	00200293          	li	t0,2
80006678:	fe5212e3          	bne	tp,t0,8000665c <test_12+0x4>
8000667c:	0000aeb7          	lui	t4,0xa
80006680:	a00e8e93          	add	t4,t4,-1536 # 9a00 <_entry_offset+0x9a00>
80006684:	00c00e13          	li	t3,12
80006688:	2fd31063          	bne	t1,t4,80006968 <fail>

8000668c <test_13>:
8000668c:	00000213          	li	tp,0
80006690:	00f00fb7          	lui	t6,0xf00
80006694:	00b00137          	lui	sp,0xb00
80006698:	022fa1b3          	mulhsu	gp,t6,sp
8000669c:	00000013          	nop
800066a0:	00000013          	nop
800066a4:	00018313          	mv	t1,gp
800066a8:	00120213          	add	tp,tp,1 # 1 <_entry_offset+0x1>
800066ac:	00200293          	li	t0,2
800066b0:	fe5210e3          	bne	tp,t0,80006690 <test_13+0x4>
800066b4:	0000aeb7          	lui	t4,0xa
800066b8:	500e8e93          	add	t4,t4,1280 # a500 <_entry_offset+0xa500>
800066bc:	00d00e13          	li	t3,13
800066c0:	2bd31463          	bne	t1,t4,80006968 <fail>

800066c4 <test_14>:
800066c4:	00000213          	li	tp,0
800066c8:	00d00fb7          	lui	t6,0xd00
800066cc:	00b00137          	lui	sp,0xb00
800066d0:	022fa1b3          	mulhsu	gp,t6,sp
800066d4:	00120213          	add	tp,tp,1 # 1 <_entry_offset+0x1>
800066d8:	00200293          	li	t0,2
800066dc:	fe5216e3          	bne	tp,t0,800066c8 <test_14+0x4>
800066e0:	00009eb7          	lui	t4,0x9
800066e4:	f00e8e93          	add	t4,t4,-256 # 8f00 <_entry_offset+0x8f00>
800066e8:	00e00e13          	li	t3,14
800066ec:	27d19e63          	bne	gp,t4,80006968 <fail>

800066f0 <test_15>:
800066f0:	00000213          	li	tp,0
800066f4:	00e00fb7          	lui	t6,0xe00
800066f8:	00b00137          	lui	sp,0xb00
800066fc:	00000013          	nop
80006700:	022fa1b3          	mulhsu	gp,t6,sp
80006704:	00120213          	add	tp,tp,1 # 1 <_entry_offset+0x1>
80006708:	00200293          	li	t0,2
8000670c:	fe5214e3          	bne	tp,t0,800066f4 <test_15+0x4>
80006710:	0000aeb7          	lui	t4,0xa
80006714:	a00e8e93          	add	t4,t4,-1536 # 9a00 <_entry_offset+0x9a00>
80006718:	00f00e13          	li	t3,15
8000671c:	25d19663          	bne	gp,t4,80006968 <fail>

80006720 <test_16>:
80006720:	00000213          	li	tp,0
80006724:	00f00fb7          	lui	t6,0xf00
80006728:	00b00137          	lui	sp,0xb00
8000672c:	00000013          	nop
80006730:	00000013          	nop
80006734:	022fa1b3          	mulhsu	gp,t6,sp
80006738:	00120213          	add	tp,tp,1 # 1 <_entry_offset+0x1>
8000673c:	00200293          	li	t0,2
80006740:	fe5212e3          	bne	tp,t0,80006724 <test_16+0x4>
80006744:	0000aeb7          	lui	t4,0xa
80006748:	500e8e93          	add	t4,t4,1280 # a500 <_entry_offset+0xa500>
8000674c:	01000e13          	li	t3,16
80006750:	21d19c63          	bne	gp,t4,80006968 <fail>

80006754 <test_17>:
80006754:	00000213          	li	tp,0
80006758:	00d00fb7          	lui	t6,0xd00
8000675c:	00000013          	nop
80006760:	00b00137          	lui	sp,0xb00
80006764:	022fa1b3          	mulhsu	gp,t6,sp
80006768:	00120213          	add	tp,tp,1 # 1 <_entry_offset+0x1>
8000676c:	00200293          	li	t0,2
80006770:	fe5214e3          	bne	tp,t0,80006758 <test_17+0x4>
80006774:	00009eb7          	lui	t4,0x9
80006778:	f00e8e93          	add	t4,t4,-256 # 8f00 <_entry_offset+0x8f00>
8000677c:	01100e13          	li	t3,17
80006780:	1fd19463          	bne	gp,t4,80006968 <fail>

80006784 <test_18>:
80006784:	00000213          	li	tp,0
80006788:	00e00fb7          	lui	t6,0xe00
8000678c:	00000013          	nop
80006790:	00b00137          	lui	sp,0xb00
80006794:	00000013          	nop
80006798:	022fa1b3          	mulhsu	gp,t6,sp
8000679c:	00120213          	add	tp,tp,1 # 1 <_entry_offset+0x1>
800067a0:	00200293          	li	t0,2
800067a4:	fe5212e3          	bne	tp,t0,80006788 <test_18+0x4>
800067a8:	0000aeb7          	lui	t4,0xa
800067ac:	a00e8e93          	add	t4,t4,-1536 # 9a00 <_entry_offset+0x9a00>
800067b0:	01200e13          	li	t3,18
800067b4:	1bd19a63          	bne	gp,t4,80006968 <fail>

800067b8 <test_19>:
800067b8:	00000213          	li	tp,0
800067bc:	00f00fb7          	lui	t6,0xf00
800067c0:	00000013          	nop
800067c4:	00000013          	nop
800067c8:	00b00137          	lui	sp,0xb00
800067cc:	022fa1b3          	mulhsu	gp,t6,sp
800067d0:	00120213          	add	tp,tp,1 # 1 <_entry_offset+0x1>
800067d4:	00200293          	li	t0,2
800067d8:	fe5212e3          	bne	tp,t0,800067bc <test_19+0x4>
800067dc:	0000aeb7          	lui	t4,0xa
800067e0:	500e8e93          	add	t4,t4,1280 # a500 <_entry_offset+0xa500>
800067e4:	01300e13          	li	t3,19
800067e8:	19d19063          	bne	gp,t4,80006968 <fail>

800067ec <test_20>:
800067ec:	00000213          	li	tp,0
800067f0:	00b00137          	lui	sp,0xb00
800067f4:	00d00fb7          	lui	t6,0xd00
800067f8:	022fa1b3          	mulhsu	gp,t6,sp
800067fc:	00120213          	add	tp,tp,1 # 1 <_entry_offset+0x1>
80006800:	00200293          	li	t0,2
80006804:	fe5216e3          	bne	tp,t0,800067f0 <test_20+0x4>
80006808:	00009eb7          	lui	t4,0x9
8000680c:	f00e8e93          	add	t4,t4,-256 # 8f00 <_entry_offset+0x8f00>
80006810:	01400e13          	li	t3,20
80006814:	15d19a63          	bne	gp,t4,80006968 <fail>

80006818 <test_21>:
80006818:	00000213          	li	tp,0
8000681c:	00b00137          	lui	sp,0xb00
80006820:	00e00fb7          	lui	t6,0xe00
80006824:	00000013          	nop
80006828:	022fa1b3          	mulhsu	gp,t6,sp
8000682c:	00120213          	add	tp,tp,1 # 1 <_entry_offset+0x1>
80006830:	00200293          	li	t0,2
80006834:	fe5214e3          	bne	tp,t0,8000681c <test_21+0x4>
80006838:	0000aeb7          	lui	t4,0xa
8000683c:	a00e8e93          	add	t4,t4,-1536 # 9a00 <_entry_offset+0x9a00>
80006840:	01500e13          	li	t3,21
80006844:	13d19263          	bne	gp,t4,80006968 <fail>

80006848 <test_22>:
80006848:	00000213          	li	tp,0
8000684c:	00b00137          	lui	sp,0xb00
80006850:	00f00fb7          	lui	t6,0xf00
80006854:	00000013          	nop
80006858:	00000013          	nop
8000685c:	022fa1b3          	mulhsu	gp,t6,sp
80006860:	00120213          	add	tp,tp,1 # 1 <_entry_offset+0x1>
80006864:	00200293          	li	t0,2
80006868:	fe5212e3          	bne	tp,t0,8000684c <test_22+0x4>
8000686c:	0000aeb7          	lui	t4,0xa
80006870:	500e8e93          	add	t4,t4,1280 # a500 <_entry_offset+0xa500>
80006874:	01600e13          	li	t3,22
80006878:	0fd19863          	bne	gp,t4,80006968 <fail>

8000687c <test_23>:
8000687c:	00000213          	li	tp,0
80006880:	00b00137          	lui	sp,0xb00
80006884:	00000013          	nop
80006888:	00d00fb7          	lui	t6,0xd00
8000688c:	022fa1b3          	mulhsu	gp,t6,sp
80006890:	00120213          	add	tp,tp,1 # 1 <_entry_offset+0x1>
80006894:	00200293          	li	t0,2
80006898:	fe5214e3          	bne	tp,t0,80006880 <test_23+0x4>
8000689c:	00009eb7          	lui	t4,0x9
800068a0:	f00e8e93          	add	t4,t4,-256 # 8f00 <_entry_offset+0x8f00>
800068a4:	01700e13          	li	t3,23
800068a8:	0dd19063          	bne	gp,t4,80006968 <fail>

800068ac <test_24>:
800068ac:	00000213          	li	tp,0
800068b0:	00b00137          	lui	sp,0xb00
800068b4:	00000013          	nop
800068b8:	00e00fb7          	lui	t6,0xe00
800068bc:	00000013          	nop
800068c0:	022fa1b3          	mulhsu	gp,t6,sp
800068c4:	00120213          	add	tp,tp,1 # 1 <_entry_offset+0x1>
800068c8:	00200293          	li	t0,2
800068cc:	fe5212e3          	bne	tp,t0,800068b0 <test_24+0x4>
800068d0:	0000aeb7          	lui	t4,0xa
800068d4:	a00e8e93          	add	t4,t4,-1536 # 9a00 <_entry_offset+0x9a00>
800068d8:	01800e13          	li	t3,24
800068dc:	09d19663          	bne	gp,t4,80006968 <fail>

800068e0 <test_25>:
800068e0:	00000213          	li	tp,0
800068e4:	00b00137          	lui	sp,0xb00
800068e8:	00000013          	nop
800068ec:	00000013          	nop
800068f0:	00f00fb7          	lui	t6,0xf00
800068f4:	022fa1b3          	mulhsu	gp,t6,sp
800068f8:	00120213          	add	tp,tp,1 # 1 <_entry_offset+0x1>
800068fc:	00200293          	li	t0,2
80006900:	fe5212e3          	bne	tp,t0,800068e4 <test_25+0x4>
80006904:	0000aeb7          	lui	t4,0xa
80006908:	500e8e93          	add	t4,t4,1280 # a500 <_entry_offset+0xa500>
8000690c:	01900e13          	li	t3,25
80006910:	05d19c63          	bne	gp,t4,80006968 <fail>

80006914 <test_26>:
80006914:	7c000fb7          	lui	t6,0x7c000
80006918:	03f02133          	mulhsu	sp,zero,t6
8000691c:	00000e93          	li	t4,0
80006920:	01a00e13          	li	t3,26
80006924:	05d11263          	bne	sp,t4,80006968 <fail>

80006928 <test_27>:
80006928:	80000fb7          	lui	t6,0x80000
8000692c:	020fa133          	mulhsu	sp,t6,zero
80006930:	00000e93          	li	t4,0
80006934:	01b00e13          	li	t3,27
80006938:	03d11863          	bne	sp,t4,80006968 <fail>

8000693c <test_28>:
8000693c:	02002fb3          	mulhsu	t6,zero,zero
80006940:	00000e93          	li	t4,0
80006944:	01c00e13          	li	t3,28
80006948:	03df9063          	bne	t6,t4,80006968 <fail>

8000694c <test_29>:
8000694c:	02100fb7          	lui	t6,0x2100
80006950:	02200137          	lui	sp,0x2200
80006954:	022fa033          	mulhsu	zero,t6,sp
80006958:	00000e93          	li	t4,0
8000695c:	01d00e13          	li	t3,29
80006960:	01d01463          	bne	zero,t4,80006968 <fail>
80006964:	0100006f          	j	80006974 <pass>

80006968 <fail>:
80006968:	fff00513          	li	a0,-1
8000696c:	00100073          	ebreak
80006970:	ff9ff06f          	j	80006968 <fail>

80006974 <pass>:
80006974:	00000513          	li	a0,0
80006978:	00008067          	ret

8000697c <rem>:
8000697c:	01400f93          	li	t6,20
80006980:	00600113          	li	sp,6
80006984:	022fe1b3          	rem	gp,t6,sp
80006988:	00200e93          	li	t4,2
8000698c:	00200e13          	li	t3,2
80006990:	0dd19463          	bne	gp,t4,80006a58 <fail>

80006994 <test_3>:
80006994:	fec00f93          	li	t6,-20
80006998:	00600113          	li	sp,6
8000699c:	022fe1b3          	rem	gp,t6,sp
800069a0:	ffe00e93          	li	t4,-2
800069a4:	00300e13          	li	t3,3
800069a8:	0bd19863          	bne	gp,t4,80006a58 <fail>

800069ac <test_4>:
800069ac:	01400f93          	li	t6,20
800069b0:	ffa00113          	li	sp,-6
800069b4:	022fe1b3          	rem	gp,t6,sp
800069b8:	00200e93          	li	t4,2
800069bc:	00400e13          	li	t3,4
800069c0:	09d19c63          	bne	gp,t4,80006a58 <fail>

800069c4 <test_5>:
800069c4:	fec00f93          	li	t6,-20
800069c8:	ffa00113          	li	sp,-6
800069cc:	022fe1b3          	rem	gp,t6,sp
800069d0:	ffe00e93          	li	t4,-2
800069d4:	00500e13          	li	t3,5
800069d8:	09d19063          	bne	gp,t4,80006a58 <fail>

800069dc <test_6>:
800069dc:	80000fb7          	lui	t6,0x80000
800069e0:	00100113          	li	sp,1
800069e4:	022fe1b3          	rem	gp,t6,sp
800069e8:	00000e93          	li	t4,0
800069ec:	00600e13          	li	t3,6
800069f0:	07d19463          	bne	gp,t4,80006a58 <fail>

800069f4 <test_7>:
800069f4:	80000fb7          	lui	t6,0x80000
800069f8:	fff00113          	li	sp,-1
800069fc:	022fe1b3          	rem	gp,t6,sp
80006a00:	00000e93          	li	t4,0
80006a04:	00700e13          	li	t3,7
80006a08:	05d19863          	bne	gp,t4,80006a58 <fail>

80006a0c <test_8>:
80006a0c:	80000fb7          	lui	t6,0x80000
80006a10:	00000113          	li	sp,0
80006a14:	022fe1b3          	rem	gp,t6,sp
80006a18:	80000eb7          	lui	t4,0x80000
80006a1c:	00800e13          	li	t3,8
80006a20:	03d19c63          	bne	gp,t4,80006a58 <fail>

80006a24 <test_9>:
80006a24:	00100f93          	li	t6,1
80006a28:	00000113          	li	sp,0
80006a2c:	022fe1b3          	rem	gp,t6,sp
80006a30:	00100e93          	li	t4,1
80006a34:	00900e13          	li	t3,9
80006a38:	03d19063          	bne	gp,t4,80006a58 <fail>

80006a3c <test_10>:
80006a3c:	00000f93          	li	t6,0
80006a40:	00000113          	li	sp,0
80006a44:	022fe1b3          	rem	gp,t6,sp
80006a48:	00000e93          	li	t4,0
80006a4c:	00a00e13          	li	t3,10
80006a50:	01d19463          	bne	gp,t4,80006a58 <fail>
80006a54:	0100006f          	j	80006a64 <pass>

80006a58 <fail>:
80006a58:	fff00513          	li	a0,-1
80006a5c:	00100073          	ebreak
80006a60:	ff9ff06f          	j	80006a58 <fail>

80006a64 <pass>:
80006a64:	00000513          	li	a0,0
80006a68:	00008067          	ret

80006a6c <add>:
80006a6c:	00000f93          	li	t6,0
80006a70:	00000113          	li	sp,0
80006a74:	002f81b3          	add	gp,t6,sp
80006a78:	00000e93          	li	t4,0
80006a7c:	00200e13          	li	t3,2
80006a80:	4dd19663          	bne	gp,t4,80006f4c <fail>

80006a84 <test_3>:
80006a84:	00100f93          	li	t6,1
80006a88:	00100113          	li	sp,1
80006a8c:	002f81b3          	add	gp,t6,sp
80006a90:	00200e93          	li	t4,2
80006a94:	00300e13          	li	t3,3
80006a98:	4bd19a63          	bne	gp,t4,80006f4c <fail>

80006a9c <test_4>:
80006a9c:	00300f93          	li	t6,3
80006aa0:	00700113          	li	sp,7
80006aa4:	002f81b3          	add	gp,t6,sp
80006aa8:	00a00e93          	li	t4,10
80006aac:	00400e13          	li	t3,4
80006ab0:	49d19e63          	bne	gp,t4,80006f4c <fail>

80006ab4 <test_5>:
80006ab4:	00000f93          	li	t6,0
80006ab8:	ffff8137          	lui	sp,0xffff8
80006abc:	002f81b3          	add	gp,t6,sp
80006ac0:	ffff8eb7          	lui	t4,0xffff8
80006ac4:	00500e13          	li	t3,5
80006ac8:	49d19263          	bne	gp,t4,80006f4c <fail>

80006acc <test_6>:
80006acc:	80000fb7          	lui	t6,0x80000
80006ad0:	00000113          	li	sp,0
80006ad4:	002f81b3          	add	gp,t6,sp
80006ad8:	80000eb7          	lui	t4,0x80000
80006adc:	00600e13          	li	t3,6
80006ae0:	47d19663          	bne	gp,t4,80006f4c <fail>

80006ae4 <test_7>:
80006ae4:	80000fb7          	lui	t6,0x80000
80006ae8:	ffff8137          	lui	sp,0xffff8
80006aec:	002f81b3          	add	gp,t6,sp
80006af0:	7fff8eb7          	lui	t4,0x7fff8
80006af4:	00700e13          	li	t3,7
80006af8:	45d19a63          	bne	gp,t4,80006f4c <fail>

80006afc <test_8>:
80006afc:	00000f93          	li	t6,0
80006b00:	00008137          	lui	sp,0x8
80006b04:	fff10113          	add	sp,sp,-1 # 7fff <_entry_offset+0x7fff>
80006b08:	002f81b3          	add	gp,t6,sp
80006b0c:	00008eb7          	lui	t4,0x8
80006b10:	fffe8e93          	add	t4,t4,-1 # 7fff <_entry_offset+0x7fff>
80006b14:	00800e13          	li	t3,8
80006b18:	43d19a63          	bne	gp,t4,80006f4c <fail>

80006b1c <test_9>:
80006b1c:	80000fb7          	lui	t6,0x80000
80006b20:	ffff8f93          	add	t6,t6,-1 # 7fffffff <_entry_offset+0x7fffffff>
80006b24:	00000113          	li	sp,0
80006b28:	002f81b3          	add	gp,t6,sp
80006b2c:	80000eb7          	lui	t4,0x80000
80006b30:	fffe8e93          	add	t4,t4,-1 # 7fffffff <_entry_offset+0x7fffffff>
80006b34:	00900e13          	li	t3,9
80006b38:	41d19a63          	bne	gp,t4,80006f4c <fail>

80006b3c <test_10>:
80006b3c:	80000fb7          	lui	t6,0x80000
80006b40:	ffff8f93          	add	t6,t6,-1 # 7fffffff <_entry_offset+0x7fffffff>
80006b44:	00008137          	lui	sp,0x8
80006b48:	fff10113          	add	sp,sp,-1 # 7fff <_entry_offset+0x7fff>
80006b4c:	002f81b3          	add	gp,t6,sp
80006b50:	80008eb7          	lui	t4,0x80008
80006b54:	ffee8e93          	add	t4,t4,-2 # 80007ffe <test_15+0x12>
80006b58:	00a00e13          	li	t3,10
80006b5c:	3fd19863          	bne	gp,t4,80006f4c <fail>

80006b60 <test_11>:
80006b60:	80000fb7          	lui	t6,0x80000
80006b64:	00008137          	lui	sp,0x8
80006b68:	fff10113          	add	sp,sp,-1 # 7fff <_entry_offset+0x7fff>
80006b6c:	002f81b3          	add	gp,t6,sp
80006b70:	80008eb7          	lui	t4,0x80008
80006b74:	fffe8e93          	add	t4,t4,-1 # 80007fff <test_15+0x13>
80006b78:	00b00e13          	li	t3,11
80006b7c:	3dd19863          	bne	gp,t4,80006f4c <fail>

80006b80 <test_12>:
80006b80:	80000fb7          	lui	t6,0x80000
80006b84:	ffff8f93          	add	t6,t6,-1 # 7fffffff <_entry_offset+0x7fffffff>
80006b88:	ffff8137          	lui	sp,0xffff8
80006b8c:	002f81b3          	add	gp,t6,sp
80006b90:	7fff8eb7          	lui	t4,0x7fff8
80006b94:	fffe8e93          	add	t4,t4,-1 # 7fff7fff <_entry_offset+0x7fff7fff>
80006b98:	00c00e13          	li	t3,12
80006b9c:	3bd19863          	bne	gp,t4,80006f4c <fail>

80006ba0 <test_13>:
80006ba0:	00000f93          	li	t6,0
80006ba4:	fff00113          	li	sp,-1
80006ba8:	002f81b3          	add	gp,t6,sp
80006bac:	fff00e93          	li	t4,-1
80006bb0:	00d00e13          	li	t3,13
80006bb4:	39d19c63          	bne	gp,t4,80006f4c <fail>

80006bb8 <test_14>:
80006bb8:	fff00f93          	li	t6,-1
80006bbc:	00100113          	li	sp,1
80006bc0:	002f81b3          	add	gp,t6,sp
80006bc4:	00000e93          	li	t4,0
80006bc8:	00e00e13          	li	t3,14
80006bcc:	39d19063          	bne	gp,t4,80006f4c <fail>

80006bd0 <test_15>:
80006bd0:	fff00f93          	li	t6,-1
80006bd4:	fff00113          	li	sp,-1
80006bd8:	002f81b3          	add	gp,t6,sp
80006bdc:	ffe00e93          	li	t4,-2
80006be0:	00f00e13          	li	t3,15
80006be4:	37d19463          	bne	gp,t4,80006f4c <fail>

80006be8 <test_16>:
80006be8:	00100f93          	li	t6,1
80006bec:	80000137          	lui	sp,0x80000
80006bf0:	fff10113          	add	sp,sp,-1 # 7fffffff <_entry_offset+0x7fffffff>
80006bf4:	002f81b3          	add	gp,t6,sp
80006bf8:	80000eb7          	lui	t4,0x80000
80006bfc:	01000e13          	li	t3,16
80006c00:	35d19663          	bne	gp,t4,80006f4c <fail>

80006c04 <test_17>:
80006c04:	00d00f93          	li	t6,13
80006c08:	00b00113          	li	sp,11
80006c0c:	002f8fb3          	add	t6,t6,sp
80006c10:	01800e93          	li	t4,24
80006c14:	01100e13          	li	t3,17
80006c18:	33df9a63          	bne	t6,t4,80006f4c <fail>

80006c1c <test_18>:
80006c1c:	00e00f93          	li	t6,14
80006c20:	00b00113          	li	sp,11
80006c24:	002f8133          	add	sp,t6,sp
80006c28:	01900e93          	li	t4,25
80006c2c:	01200e13          	li	t3,18
80006c30:	31d11e63          	bne	sp,t4,80006f4c <fail>

80006c34 <test_19>:
80006c34:	00d00f93          	li	t6,13
80006c38:	01ff8fb3          	add	t6,t6,t6
80006c3c:	01a00e93          	li	t4,26
80006c40:	01300e13          	li	t3,19
80006c44:	31df9463          	bne	t6,t4,80006f4c <fail>

80006c48 <test_20>:
80006c48:	00000213          	li	tp,0
80006c4c:	00d00f93          	li	t6,13
80006c50:	00b00113          	li	sp,11
80006c54:	002f81b3          	add	gp,t6,sp
80006c58:	00018313          	mv	t1,gp
80006c5c:	00120213          	add	tp,tp,1 # 1 <_entry_offset+0x1>
80006c60:	00200293          	li	t0,2
80006c64:	fe5214e3          	bne	tp,t0,80006c4c <test_20+0x4>
80006c68:	01800e93          	li	t4,24
80006c6c:	01400e13          	li	t3,20
80006c70:	2dd31e63          	bne	t1,t4,80006f4c <fail>

80006c74 <test_21>:
80006c74:	00000213          	li	tp,0
80006c78:	00e00f93          	li	t6,14
80006c7c:	00b00113          	li	sp,11
80006c80:	002f81b3          	add	gp,t6,sp
80006c84:	00000013          	nop
80006c88:	00018313          	mv	t1,gp
80006c8c:	00120213          	add	tp,tp,1 # 1 <_entry_offset+0x1>
80006c90:	00200293          	li	t0,2
80006c94:	fe5212e3          	bne	tp,t0,80006c78 <test_21+0x4>
80006c98:	01900e93          	li	t4,25
80006c9c:	01500e13          	li	t3,21
80006ca0:	2bd31663          	bne	t1,t4,80006f4c <fail>

80006ca4 <test_22>:
80006ca4:	00000213          	li	tp,0
80006ca8:	00f00f93          	li	t6,15
80006cac:	00b00113          	li	sp,11
80006cb0:	002f81b3          	add	gp,t6,sp
80006cb4:	00000013          	nop
80006cb8:	00000013          	nop
80006cbc:	00018313          	mv	t1,gp
80006cc0:	00120213          	add	tp,tp,1 # 1 <_entry_offset+0x1>
80006cc4:	00200293          	li	t0,2
80006cc8:	fe5210e3          	bne	tp,t0,80006ca8 <test_22+0x4>
80006ccc:	01a00e93          	li	t4,26
80006cd0:	01600e13          	li	t3,22
80006cd4:	27d31c63          	bne	t1,t4,80006f4c <fail>

80006cd8 <test_23>:
80006cd8:	00000213          	li	tp,0
80006cdc:	00d00f93          	li	t6,13
80006ce0:	00b00113          	li	sp,11
80006ce4:	002f81b3          	add	gp,t6,sp
80006ce8:	00120213          	add	tp,tp,1 # 1 <_entry_offset+0x1>
80006cec:	00200293          	li	t0,2
80006cf0:	fe5216e3          	bne	tp,t0,80006cdc <test_23+0x4>
80006cf4:	01800e93          	li	t4,24
80006cf8:	01700e13          	li	t3,23
80006cfc:	25d19863          	bne	gp,t4,80006f4c <fail>

80006d00 <test_24>:
80006d00:	00000213          	li	tp,0
80006d04:	00e00f93          	li	t6,14
80006d08:	00b00113          	li	sp,11
80006d0c:	00000013          	nop
80006d10:	002f81b3          	add	gp,t6,sp
80006d14:	00120213          	add	tp,tp,1 # 1 <_entry_offset+0x1>
80006d18:	00200293          	li	t0,2
80006d1c:	fe5214e3          	bne	tp,t0,80006d04 <test_24+0x4>
80006d20:	01900e93          	li	t4,25
80006d24:	01800e13          	li	t3,24
80006d28:	23d19263          	bne	gp,t4,80006f4c <fail>

80006d2c <test_25>:
80006d2c:	00000213          	li	tp,0
80006d30:	00f00f93          	li	t6,15
80006d34:	00b00113          	li	sp,11
80006d38:	00000013          	nop
80006d3c:	00000013          	nop
80006d40:	002f81b3          	add	gp,t6,sp
80006d44:	00120213          	add	tp,tp,1 # 1 <_entry_offset+0x1>
80006d48:	00200293          	li	t0,2
80006d4c:	fe5212e3          	bne	tp,t0,80006d30 <test_25+0x4>
80006d50:	01a00e93          	li	t4,26
80006d54:	01900e13          	li	t3,25
80006d58:	1fd19a63          	bne	gp,t4,80006f4c <fail>

80006d5c <test_26>:
80006d5c:	00000213          	li	tp,0
80006d60:	00d00f93          	li	t6,13
80006d64:	00000013          	nop
80006d68:	00b00113          	li	sp,11
80006d6c:	002f81b3          	add	gp,t6,sp
80006d70:	00120213          	add	tp,tp,1 # 1 <_entry_offset+0x1>
80006d74:	00200293          	li	t0,2
80006d78:	fe5214e3          	bne	tp,t0,80006d60 <test_26+0x4>
80006d7c:	01800e93          	li	t4,24
80006d80:	01a00e13          	li	t3,26
80006d84:	1dd19463          	bne	gp,t4,80006f4c <fail>

80006d88 <test_27>:
80006d88:	00000213          	li	tp,0
80006d8c:	00e00f93          	li	t6,14
80006d90:	00000013          	nop
80006d94:	00b00113          	li	sp,11
80006d98:	00000013          	nop
80006d9c:	002f81b3          	add	gp,t6,sp
80006da0:	00120213          	add	tp,tp,1 # 1 <_entry_offset+0x1>
80006da4:	00200293          	li	t0,2
80006da8:	fe5212e3          	bne	tp,t0,80006d8c <test_27+0x4>
80006dac:	01900e93          	li	t4,25
80006db0:	01b00e13          	li	t3,27
80006db4:	19d19c63          	bne	gp,t4,80006f4c <fail>

80006db8 <test_28>:
80006db8:	00000213          	li	tp,0
80006dbc:	00f00f93          	li	t6,15
80006dc0:	00000013          	nop
80006dc4:	00000013          	nop
80006dc8:	00b00113          	li	sp,11
80006dcc:	002f81b3          	add	gp,t6,sp
80006dd0:	00120213          	add	tp,tp,1 # 1 <_entry_offset+0x1>
80006dd4:	00200293          	li	t0,2
80006dd8:	fe5212e3          	bne	tp,t0,80006dbc <test_28+0x4>
80006ddc:	01a00e93          	li	t4,26
80006de0:	01c00e13          	li	t3,28
80006de4:	17d19463          	bne	gp,t4,80006f4c <fail>

80006de8 <test_29>:
80006de8:	00000213          	li	tp,0
80006dec:	00b00113          	li	sp,11
80006df0:	00d00f93          	li	t6,13
80006df4:	002f81b3          	add	gp,t6,sp
80006df8:	00120213          	add	tp,tp,1 # 1 <_entry_offset+0x1>
80006dfc:	00200293          	li	t0,2
80006e00:	fe5216e3          	bne	tp,t0,80006dec <test_29+0x4>
80006e04:	01800e93          	li	t4,24
80006e08:	01d00e13          	li	t3,29
80006e0c:	15d19063          	bne	gp,t4,80006f4c <fail>

80006e10 <test_30>:
80006e10:	00000213          	li	tp,0
80006e14:	00b00113          	li	sp,11
80006e18:	00e00f93          	li	t6,14
80006e1c:	00000013          	nop
80006e20:	002f81b3          	add	gp,t6,sp
80006e24:	00120213          	add	tp,tp,1 # 1 <_entry_offset+0x1>
80006e28:	00200293          	li	t0,2
80006e2c:	fe5214e3          	bne	tp,t0,80006e14 <test_30+0x4>
80006e30:	01900e93          	li	t4,25
80006e34:	01e00e13          	li	t3,30
80006e38:	11d19a63          	bne	gp,t4,80006f4c <fail>

80006e3c <test_31>:
80006e3c:	00000213          	li	tp,0
80006e40:	00b00113          	li	sp,11
80006e44:	00f00f93          	li	t6,15
80006e48:	00000013          	nop
80006e4c:	00000013          	nop
80006e50:	002f81b3          	add	gp,t6,sp
80006e54:	00120213          	add	tp,tp,1 # 1 <_entry_offset+0x1>
80006e58:	00200293          	li	t0,2
80006e5c:	fe5212e3          	bne	tp,t0,80006e40 <test_31+0x4>
80006e60:	01a00e93          	li	t4,26
80006e64:	01f00e13          	li	t3,31
80006e68:	0fd19263          	bne	gp,t4,80006f4c <fail>

80006e6c <test_32>:
80006e6c:	00000213          	li	tp,0
80006e70:	00b00113          	li	sp,11
80006e74:	00000013          	nop
80006e78:	00d00f93          	li	t6,13
80006e7c:	002f81b3          	add	gp,t6,sp
80006e80:	00120213          	add	tp,tp,1 # 1 <_entry_offset+0x1>
80006e84:	00200293          	li	t0,2
80006e88:	fe5214e3          	bne	tp,t0,80006e70 <test_32+0x4>
80006e8c:	01800e93          	li	t4,24
80006e90:	02000e13          	li	t3,32
80006e94:	0bd19c63          	bne	gp,t4,80006f4c <fail>

80006e98 <test_33>:
80006e98:	00000213          	li	tp,0
80006e9c:	00b00113          	li	sp,11
80006ea0:	00000013          	nop
80006ea4:	00e00f93          	li	t6,14
80006ea8:	00000013          	nop
80006eac:	002f81b3          	add	gp,t6,sp
80006eb0:	00120213          	add	tp,tp,1 # 1 <_entry_offset+0x1>
80006eb4:	00200293          	li	t0,2
80006eb8:	fe5212e3          	bne	tp,t0,80006e9c <test_33+0x4>
80006ebc:	01900e93          	li	t4,25
80006ec0:	02100e13          	li	t3,33
80006ec4:	09d19463          	bne	gp,t4,80006f4c <fail>

80006ec8 <test_34>:
80006ec8:	00000213          	li	tp,0
80006ecc:	00b00113          	li	sp,11
80006ed0:	00000013          	nop
80006ed4:	00000013          	nop
80006ed8:	00f00f93          	li	t6,15
80006edc:	002f81b3          	add	gp,t6,sp
80006ee0:	00120213          	add	tp,tp,1 # 1 <_entry_offset+0x1>
80006ee4:	00200293          	li	t0,2
80006ee8:	fe5212e3          	bne	tp,t0,80006ecc <test_34+0x4>
80006eec:	01a00e93          	li	t4,26
80006ef0:	02200e13          	li	t3,34
80006ef4:	05d19c63          	bne	gp,t4,80006f4c <fail>

80006ef8 <test_35>:
80006ef8:	00f00f93          	li	t6,15
80006efc:	01f00133          	add	sp,zero,t6
80006f00:	00f00e93          	li	t4,15
80006f04:	02300e13          	li	t3,35
80006f08:	05d11263          	bne	sp,t4,80006f4c <fail>

80006f0c <test_36>:
80006f0c:	02000f93          	li	t6,32
80006f10:	000f8133          	add	sp,t6,zero
80006f14:	02000e93          	li	t4,32
80006f18:	02400e13          	li	t3,36
80006f1c:	03d11863          	bne	sp,t4,80006f4c <fail>

80006f20 <test_37>:
80006f20:	00000fb3          	add	t6,zero,zero
80006f24:	00000e93          	li	t4,0
80006f28:	02500e13          	li	t3,37
80006f2c:	03df9063          	bne	t6,t4,80006f4c <fail>

80006f30 <test_38>:
80006f30:	01000f93          	li	t6,16
80006f34:	01e00113          	li	sp,30
80006f38:	002f8033          	add	zero,t6,sp
80006f3c:	00000e93          	li	t4,0
80006f40:	02600e13          	li	t3,38
80006f44:	01d01463          	bne	zero,t4,80006f4c <fail>
80006f48:	0100006f          	j	80006f58 <pass>

80006f4c <fail>:
80006f4c:	fff00513          	li	a0,-1
80006f50:	00100073          	ebreak
80006f54:	ff9ff06f          	j	80006f4c <fail>

80006f58 <pass>:
80006f58:	00000513          	li	a0,0
80006f5c:	00008067          	ret

80006f60 <xor>:
80006f60:	ff010fb7          	lui	t6,0xff010
80006f64:	f00f8f93          	add	t6,t6,-256 # ff00ff00 <_end+0x7effef00>
80006f68:	0f0f1137          	lui	sp,0xf0f1
80006f6c:	f0f10113          	add	sp,sp,-241 # f0f0f0f <_entry_offset+0xf0f0f0f>
80006f70:	002fc1b3          	xor	gp,t6,sp
80006f74:	f00ffeb7          	lui	t4,0xf00ff
80006f78:	00fe8e93          	add	t4,t4,15 # f00ff00f <_end+0x700ee00f>
80006f7c:	00200e13          	li	t3,2
80006f80:	4bd19063          	bne	gp,t4,80007420 <fail>

80006f84 <test_3>:
80006f84:	0ff01fb7          	lui	t6,0xff01
80006f88:	ff0f8f93          	add	t6,t6,-16 # ff00ff0 <_entry_offset+0xff00ff0>
80006f8c:	f0f0f137          	lui	sp,0xf0f0f
80006f90:	0f010113          	add	sp,sp,240 # f0f0f0f0 <_end+0x70efe0f0>
80006f94:	002fc1b3          	xor	gp,t6,sp
80006f98:	ff010eb7          	lui	t4,0xff010
80006f9c:	f00e8e93          	add	t4,t4,-256 # ff00ff00 <_end+0x7effef00>
80006fa0:	00300e13          	li	t3,3
80006fa4:	47d19e63          	bne	gp,t4,80007420 <fail>

80006fa8 <test_4>:
80006fa8:	00ff0fb7          	lui	t6,0xff0
80006fac:	0fff8f93          	add	t6,t6,255 # ff00ff <_entry_offset+0xff00ff>
80006fb0:	0f0f1137          	lui	sp,0xf0f1
80006fb4:	f0f10113          	add	sp,sp,-241 # f0f0f0f <_entry_offset+0xf0f0f0f>
80006fb8:	002fc1b3          	xor	gp,t6,sp
80006fbc:	0ff01eb7          	lui	t4,0xff01
80006fc0:	ff0e8e93          	add	t4,t4,-16 # ff00ff0 <_entry_offset+0xff00ff0>
80006fc4:	00400e13          	li	t3,4
80006fc8:	45d19c63          	bne	gp,t4,80007420 <fail>

80006fcc <test_5>:
80006fcc:	f00fffb7          	lui	t6,0xf00ff
80006fd0:	00ff8f93          	add	t6,t6,15 # f00ff00f <_end+0x700ee00f>
80006fd4:	f0f0f137          	lui	sp,0xf0f0f
80006fd8:	0f010113          	add	sp,sp,240 # f0f0f0f0 <_end+0x70efe0f0>
80006fdc:	002fc1b3          	xor	gp,t6,sp
80006fe0:	00ff0eb7          	lui	t4,0xff0
80006fe4:	0ffe8e93          	add	t4,t4,255 # ff00ff <_entry_offset+0xff00ff>
80006fe8:	00500e13          	li	t3,5
80006fec:	43d19a63          	bne	gp,t4,80007420 <fail>

80006ff0 <test_6>:
80006ff0:	ff010fb7          	lui	t6,0xff010
80006ff4:	f00f8f93          	add	t6,t6,-256 # ff00ff00 <_end+0x7effef00>
80006ff8:	0f0f1137          	lui	sp,0xf0f1
80006ffc:	f0f10113          	add	sp,sp,-241 # f0f0f0f <_entry_offset+0xf0f0f0f>
80007000:	002fcfb3          	xor	t6,t6,sp
80007004:	f00ffeb7          	lui	t4,0xf00ff
80007008:	00fe8e93          	add	t4,t4,15 # f00ff00f <_end+0x700ee00f>
8000700c:	00600e13          	li	t3,6
80007010:	41df9863          	bne	t6,t4,80007420 <fail>

80007014 <test_7>:
80007014:	ff010fb7          	lui	t6,0xff010
80007018:	f00f8f93          	add	t6,t6,-256 # ff00ff00 <_end+0x7effef00>
8000701c:	0f0f1137          	lui	sp,0xf0f1
80007020:	f0f10113          	add	sp,sp,-241 # f0f0f0f <_entry_offset+0xf0f0f0f>
80007024:	002fc133          	xor	sp,t6,sp
80007028:	f00ffeb7          	lui	t4,0xf00ff
8000702c:	00fe8e93          	add	t4,t4,15 # f00ff00f <_end+0x700ee00f>
80007030:	00700e13          	li	t3,7
80007034:	3fd11663          	bne	sp,t4,80007420 <fail>

80007038 <test_8>:
80007038:	ff010fb7          	lui	t6,0xff010
8000703c:	f00f8f93          	add	t6,t6,-256 # ff00ff00 <_end+0x7effef00>
80007040:	01ffcfb3          	xor	t6,t6,t6
80007044:	00000e93          	li	t4,0
80007048:	00800e13          	li	t3,8
8000704c:	3ddf9a63          	bne	t6,t4,80007420 <fail>

80007050 <test_9>:
80007050:	00000213          	li	tp,0
80007054:	ff010fb7          	lui	t6,0xff010
80007058:	f00f8f93          	add	t6,t6,-256 # ff00ff00 <_end+0x7effef00>
8000705c:	0f0f1137          	lui	sp,0xf0f1
80007060:	f0f10113          	add	sp,sp,-241 # f0f0f0f <_entry_offset+0xf0f0f0f>
80007064:	002fc1b3          	xor	gp,t6,sp
80007068:	00018313          	mv	t1,gp
8000706c:	00120213          	add	tp,tp,1 # 1 <_entry_offset+0x1>
80007070:	00200293          	li	t0,2
80007074:	fe5210e3          	bne	tp,t0,80007054 <test_9+0x4>
80007078:	f00ffeb7          	lui	t4,0xf00ff
8000707c:	00fe8e93          	add	t4,t4,15 # f00ff00f <_end+0x700ee00f>
80007080:	00900e13          	li	t3,9
80007084:	39d31e63          	bne	t1,t4,80007420 <fail>

80007088 <test_10>:
80007088:	00000213          	li	tp,0
8000708c:	0ff01fb7          	lui	t6,0xff01
80007090:	ff0f8f93          	add	t6,t6,-16 # ff00ff0 <_entry_offset+0xff00ff0>
80007094:	f0f0f137          	lui	sp,0xf0f0f
80007098:	0f010113          	add	sp,sp,240 # f0f0f0f0 <_end+0x70efe0f0>
8000709c:	002fc1b3          	xor	gp,t6,sp
800070a0:	00000013          	nop
800070a4:	00018313          	mv	t1,gp
800070a8:	00120213          	add	tp,tp,1 # 1 <_entry_offset+0x1>
800070ac:	00200293          	li	t0,2
800070b0:	fc521ee3          	bne	tp,t0,8000708c <test_10+0x4>
800070b4:	ff010eb7          	lui	t4,0xff010
800070b8:	f00e8e93          	add	t4,t4,-256 # ff00ff00 <_end+0x7effef00>
800070bc:	00a00e13          	li	t3,10
800070c0:	37d31063          	bne	t1,t4,80007420 <fail>

800070c4 <test_11>:
800070c4:	00000213          	li	tp,0
800070c8:	00ff0fb7          	lui	t6,0xff0
800070cc:	0fff8f93          	add	t6,t6,255 # ff00ff <_entry_offset+0xff00ff>
800070d0:	0f0f1137          	lui	sp,0xf0f1
800070d4:	f0f10113          	add	sp,sp,-241 # f0f0f0f <_entry_offset+0xf0f0f0f>
800070d8:	002fc1b3          	xor	gp,t6,sp
800070dc:	00000013          	nop
800070e0:	00000013          	nop
800070e4:	00018313          	mv	t1,gp
800070e8:	00120213          	add	tp,tp,1 # 1 <_entry_offset+0x1>
800070ec:	00200293          	li	t0,2
800070f0:	fc521ce3          	bne	tp,t0,800070c8 <test_11+0x4>
800070f4:	0ff01eb7          	lui	t4,0xff01
800070f8:	ff0e8e93          	add	t4,t4,-16 # ff00ff0 <_entry_offset+0xff00ff0>
800070fc:	00b00e13          	li	t3,11
80007100:	33d31063          	bne	t1,t4,80007420 <fail>

80007104 <test_12>:
80007104:	00000213          	li	tp,0
80007108:	ff010fb7          	lui	t6,0xff010
8000710c:	f00f8f93          	add	t6,t6,-256 # ff00ff00 <_end+0x7effef00>
80007110:	0f0f1137          	lui	sp,0xf0f1
80007114:	f0f10113          	add	sp,sp,-241 # f0f0f0f <_entry_offset+0xf0f0f0f>
80007118:	002fc1b3          	xor	gp,t6,sp
8000711c:	00120213          	add	tp,tp,1 # 1 <_entry_offset+0x1>
80007120:	00200293          	li	t0,2
80007124:	fe5212e3          	bne	tp,t0,80007108 <test_12+0x4>
80007128:	f00ffeb7          	lui	t4,0xf00ff
8000712c:	00fe8e93          	add	t4,t4,15 # f00ff00f <_end+0x700ee00f>
80007130:	00c00e13          	li	t3,12
80007134:	2fd19663          	bne	gp,t4,80007420 <fail>

80007138 <test_13>:
80007138:	00000213          	li	tp,0
8000713c:	0ff01fb7          	lui	t6,0xff01
80007140:	ff0f8f93          	add	t6,t6,-16 # ff00ff0 <_entry_offset+0xff00ff0>
80007144:	f0f0f137          	lui	sp,0xf0f0f
80007148:	0f010113          	add	sp,sp,240 # f0f0f0f0 <_end+0x70efe0f0>
8000714c:	00000013          	nop
80007150:	002fc1b3          	xor	gp,t6,sp
80007154:	00120213          	add	tp,tp,1 # 1 <_entry_offset+0x1>
80007158:	00200293          	li	t0,2
8000715c:	fe5210e3          	bne	tp,t0,8000713c <test_13+0x4>
80007160:	ff010eb7          	lui	t4,0xff010
80007164:	f00e8e93          	add	t4,t4,-256 # ff00ff00 <_end+0x7effef00>
80007168:	00d00e13          	li	t3,13
8000716c:	2bd19a63          	bne	gp,t4,80007420 <fail>

80007170 <test_14>:
80007170:	00000213          	li	tp,0
80007174:	00ff0fb7          	lui	t6,0xff0
80007178:	0fff8f93          	add	t6,t6,255 # ff00ff <_entry_offset+0xff00ff>
8000717c:	0f0f1137          	lui	sp,0xf0f1
80007180:	f0f10113          	add	sp,sp,-241 # f0f0f0f <_entry_offset+0xf0f0f0f>
80007184:	00000013          	nop
80007188:	00000013          	nop
8000718c:	002fc1b3          	xor	gp,t6,sp
80007190:	00120213          	add	tp,tp,1 # 1 <_entry_offset+0x1>
80007194:	00200293          	li	t0,2
80007198:	fc521ee3          	bne	tp,t0,80007174 <test_14+0x4>
8000719c:	0ff01eb7          	lui	t4,0xff01
800071a0:	ff0e8e93          	add	t4,t4,-16 # ff00ff0 <_entry_offset+0xff00ff0>
800071a4:	00e00e13          	li	t3,14
800071a8:	27d19c63          	bne	gp,t4,80007420 <fail>

800071ac <test_15>:
800071ac:	00000213          	li	tp,0
800071b0:	ff010fb7          	lui	t6,0xff010
800071b4:	f00f8f93          	add	t6,t6,-256 # ff00ff00 <_end+0x7effef00>
800071b8:	00000013          	nop
800071bc:	0f0f1137          	lui	sp,0xf0f1
800071c0:	f0f10113          	add	sp,sp,-241 # f0f0f0f <_entry_offset+0xf0f0f0f>
800071c4:	002fc1b3          	xor	gp,t6,sp
800071c8:	00120213          	add	tp,tp,1 # 1 <_entry_offset+0x1>
800071cc:	00200293          	li	t0,2
800071d0:	fe5210e3          	bne	tp,t0,800071b0 <test_15+0x4>
800071d4:	f00ffeb7          	lui	t4,0xf00ff
800071d8:	00fe8e93          	add	t4,t4,15 # f00ff00f <_end+0x700ee00f>
800071dc:	00f00e13          	li	t3,15
800071e0:	25d19063          	bne	gp,t4,80007420 <fail>

800071e4 <test_16>:
800071e4:	00000213          	li	tp,0
800071e8:	0ff01fb7          	lui	t6,0xff01
800071ec:	ff0f8f93          	add	t6,t6,-16 # ff00ff0 <_entry_offset+0xff00ff0>
800071f0:	00000013          	nop
800071f4:	f0f0f137          	lui	sp,0xf0f0f
800071f8:	0f010113          	add	sp,sp,240 # f0f0f0f0 <_end+0x70efe0f0>
800071fc:	00000013          	nop
80007200:	002fc1b3          	xor	gp,t6,sp
80007204:	00120213          	add	tp,tp,1 # 1 <_entry_offset+0x1>
80007208:	00200293          	li	t0,2
8000720c:	fc521ee3          	bne	tp,t0,800071e8 <test_16+0x4>
80007210:	ff010eb7          	lui	t4,0xff010
80007214:	f00e8e93          	add	t4,t4,-256 # ff00ff00 <_end+0x7effef00>
80007218:	01000e13          	li	t3,16
8000721c:	21d19263          	bne	gp,t4,80007420 <fail>

80007220 <test_17>:
80007220:	00000213          	li	tp,0
80007224:	00ff0fb7          	lui	t6,0xff0
80007228:	0fff8f93          	add	t6,t6,255 # ff00ff <_entry_offset+0xff00ff>
8000722c:	00000013          	nop
80007230:	00000013          	nop
80007234:	0f0f1137          	lui	sp,0xf0f1
80007238:	f0f10113          	add	sp,sp,-241 # f0f0f0f <_entry_offset+0xf0f0f0f>
8000723c:	002fc1b3          	xor	gp,t6,sp
80007240:	00120213          	add	tp,tp,1 # 1 <_entry_offset+0x1>
80007244:	00200293          	li	t0,2
80007248:	fc521ee3          	bne	tp,t0,80007224 <test_17+0x4>
8000724c:	0ff01eb7          	lui	t4,0xff01
80007250:	ff0e8e93          	add	t4,t4,-16 # ff00ff0 <_entry_offset+0xff00ff0>
80007254:	01100e13          	li	t3,17
80007258:	1dd19463          	bne	gp,t4,80007420 <fail>

8000725c <test_18>:
8000725c:	00000213          	li	tp,0
80007260:	0f0f1137          	lui	sp,0xf0f1
80007264:	f0f10113          	add	sp,sp,-241 # f0f0f0f <_entry_offset+0xf0f0f0f>
80007268:	ff010fb7          	lui	t6,0xff010
8000726c:	f00f8f93          	add	t6,t6,-256 # ff00ff00 <_end+0x7effef00>
80007270:	002fc1b3          	xor	gp,t6,sp
80007274:	00120213          	add	tp,tp,1 # 1 <_entry_offset+0x1>
80007278:	00200293          	li	t0,2
8000727c:	fe5212e3          	bne	tp,t0,80007260 <test_18+0x4>
80007280:	f00ffeb7          	lui	t4,0xf00ff
80007284:	00fe8e93          	add	t4,t4,15 # f00ff00f <_end+0x700ee00f>
80007288:	01200e13          	li	t3,18
8000728c:	19d19a63          	bne	gp,t4,80007420 <fail>

80007290 <test_19>:
80007290:	00000213          	li	tp,0
80007294:	f0f0f137          	lui	sp,0xf0f0f
80007298:	0f010113          	add	sp,sp,240 # f0f0f0f0 <_end+0x70efe0f0>
8000729c:	0ff01fb7          	lui	t6,0xff01
800072a0:	ff0f8f93          	add	t6,t6,-16 # ff00ff0 <_entry_offset+0xff00ff0>
800072a4:	00000013          	nop
800072a8:	002fc1b3          	xor	gp,t6,sp
800072ac:	00120213          	add	tp,tp,1 # 1 <_entry_offset+0x1>
800072b0:	00200293          	li	t0,2
800072b4:	fe5210e3          	bne	tp,t0,80007294 <test_19+0x4>
800072b8:	ff010eb7          	lui	t4,0xff010
800072bc:	f00e8e93          	add	t4,t4,-256 # ff00ff00 <_end+0x7effef00>
800072c0:	01300e13          	li	t3,19
800072c4:	15d19e63          	bne	gp,t4,80007420 <fail>

800072c8 <test_20>:
800072c8:	00000213          	li	tp,0
800072cc:	0f0f1137          	lui	sp,0xf0f1
800072d0:	f0f10113          	add	sp,sp,-241 # f0f0f0f <_entry_offset+0xf0f0f0f>
800072d4:	00ff0fb7          	lui	t6,0xff0
800072d8:	0fff8f93          	add	t6,t6,255 # ff00ff <_entry_offset+0xff00ff>
800072dc:	00000013          	nop
800072e0:	00000013          	nop
800072e4:	002fc1b3          	xor	gp,t6,sp
800072e8:	00120213          	add	tp,tp,1 # 1 <_entry_offset+0x1>
800072ec:	00200293          	li	t0,2
800072f0:	fc521ee3          	bne	tp,t0,800072cc <test_20+0x4>
800072f4:	0ff01eb7          	lui	t4,0xff01
800072f8:	ff0e8e93          	add	t4,t4,-16 # ff00ff0 <_entry_offset+0xff00ff0>
800072fc:	01400e13          	li	t3,20
80007300:	13d19063          	bne	gp,t4,80007420 <fail>

80007304 <test_21>:
80007304:	00000213          	li	tp,0
80007308:	0f0f1137          	lui	sp,0xf0f1
8000730c:	f0f10113          	add	sp,sp,-241 # f0f0f0f <_entry_offset+0xf0f0f0f>
80007310:	00000013          	nop
80007314:	ff010fb7          	lui	t6,0xff010
80007318:	f00f8f93          	add	t6,t6,-256 # ff00ff00 <_end+0x7effef00>
8000731c:	002fc1b3          	xor	gp,t6,sp
80007320:	00120213          	add	tp,tp,1 # 1 <_entry_offset+0x1>
80007324:	00200293          	li	t0,2
80007328:	fe5210e3          	bne	tp,t0,80007308 <test_21+0x4>
8000732c:	f00ffeb7          	lui	t4,0xf00ff
80007330:	00fe8e93          	add	t4,t4,15 # f00ff00f <_end+0x700ee00f>
80007334:	01500e13          	li	t3,21
80007338:	0fd19463          	bne	gp,t4,80007420 <fail>

8000733c <test_22>:
8000733c:	00000213          	li	tp,0
80007340:	f0f0f137          	lui	sp,0xf0f0f
80007344:	0f010113          	add	sp,sp,240 # f0f0f0f0 <_end+0x70efe0f0>
80007348:	00000013          	nop
8000734c:	0ff01fb7          	lui	t6,0xff01
80007350:	ff0f8f93          	add	t6,t6,-16 # ff00ff0 <_entry_offset+0xff00ff0>
80007354:	00000013          	nop
80007358:	002fc1b3          	xor	gp,t6,sp
8000735c:	00120213          	add	tp,tp,1 # 1 <_entry_offset+0x1>
80007360:	00200293          	li	t0,2
80007364:	fc521ee3          	bne	tp,t0,80007340 <test_22+0x4>
80007368:	ff010eb7          	lui	t4,0xff010
8000736c:	f00e8e93          	add	t4,t4,-256 # ff00ff00 <_end+0x7effef00>
80007370:	01600e13          	li	t3,22
80007374:	0bd19663          	bne	gp,t4,80007420 <fail>

80007378 <test_23>:
80007378:	00000213          	li	tp,0
8000737c:	0f0f1137          	lui	sp,0xf0f1
80007380:	f0f10113          	add	sp,sp,-241 # f0f0f0f <_entry_offset+0xf0f0f0f>
80007384:	00000013          	nop
80007388:	00000013          	nop
8000738c:	00ff0fb7          	lui	t6,0xff0
80007390:	0fff8f93          	add	t6,t6,255 # ff00ff <_entry_offset+0xff00ff>
80007394:	002fc1b3          	xor	gp,t6,sp
80007398:	00120213          	add	tp,tp,1 # 1 <_entry_offset+0x1>
8000739c:	00200293          	li	t0,2
800073a0:	fc521ee3          	bne	tp,t0,8000737c <test_23+0x4>
800073a4:	0ff01eb7          	lui	t4,0xff01
800073a8:	ff0e8e93          	add	t4,t4,-16 # ff00ff0 <_entry_offset+0xff00ff0>
800073ac:	01700e13          	li	t3,23
800073b0:	07d19863          	bne	gp,t4,80007420 <fail>

800073b4 <test_24>:
800073b4:	ff010fb7          	lui	t6,0xff010
800073b8:	f00f8f93          	add	t6,t6,-256 # ff00ff00 <_end+0x7effef00>
800073bc:	01f04133          	xor	sp,zero,t6
800073c0:	ff010eb7          	lui	t4,0xff010
800073c4:	f00e8e93          	add	t4,t4,-256 # ff00ff00 <_end+0x7effef00>
800073c8:	01800e13          	li	t3,24
800073cc:	05d11a63          	bne	sp,t4,80007420 <fail>

800073d0 <test_25>:
800073d0:	00ff0fb7          	lui	t6,0xff0
800073d4:	0fff8f93          	add	t6,t6,255 # ff00ff <_entry_offset+0xff00ff>
800073d8:	000fc133          	xor	sp,t6,zero
800073dc:	00ff0eb7          	lui	t4,0xff0
800073e0:	0ffe8e93          	add	t4,t4,255 # ff00ff <_entry_offset+0xff00ff>
800073e4:	01900e13          	li	t3,25
800073e8:	03d11c63          	bne	sp,t4,80007420 <fail>

800073ec <test_26>:
800073ec:	00004fb3          	xor	t6,zero,zero
800073f0:	00000e93          	li	t4,0
800073f4:	01a00e13          	li	t3,26
800073f8:	03df9463          	bne	t6,t4,80007420 <fail>

800073fc <test_27>:
800073fc:	11111fb7          	lui	t6,0x11111
80007400:	111f8f93          	add	t6,t6,273 # 11111111 <_entry_offset+0x11111111>
80007404:	22222137          	lui	sp,0x22222
80007408:	22210113          	add	sp,sp,546 # 22222222 <_entry_offset+0x22222222>
8000740c:	002fc033          	xor	zero,t6,sp
80007410:	00000e93          	li	t4,0
80007414:	01b00e13          	li	t3,27
80007418:	01d01463          	bne	zero,t4,80007420 <fail>
8000741c:	0100006f          	j	8000742c <pass>

80007420 <fail>:
80007420:	fff00513          	li	a0,-1
80007424:	00100073          	ebreak
80007428:	ff9ff06f          	j	80007420 <fail>

8000742c <pass>:
8000742c:	00000513          	li	a0,0
80007430:	00008067          	ret

80007434 <sub>:
80007434:	00000f93          	li	t6,0
80007438:	00000113          	li	sp,0
8000743c:	402f81b3          	sub	gp,t6,sp
80007440:	00000e93          	li	t4,0
80007444:	00200e13          	li	t3,2
80007448:	4bd19663          	bne	gp,t4,800078f4 <fail>

8000744c <test_3>:
8000744c:	00100f93          	li	t6,1
80007450:	00100113          	li	sp,1
80007454:	402f81b3          	sub	gp,t6,sp
80007458:	00000e93          	li	t4,0
8000745c:	00300e13          	li	t3,3
80007460:	49d19a63          	bne	gp,t4,800078f4 <fail>

80007464 <test_4>:
80007464:	00300f93          	li	t6,3
80007468:	00700113          	li	sp,7
8000746c:	402f81b3          	sub	gp,t6,sp
80007470:	ffc00e93          	li	t4,-4
80007474:	00400e13          	li	t3,4
80007478:	47d19e63          	bne	gp,t4,800078f4 <fail>

8000747c <test_5>:
8000747c:	00000f93          	li	t6,0
80007480:	ffff8137          	lui	sp,0xffff8
80007484:	402f81b3          	sub	gp,t6,sp
80007488:	00008eb7          	lui	t4,0x8
8000748c:	00500e13          	li	t3,5
80007490:	47d19263          	bne	gp,t4,800078f4 <fail>

80007494 <test_6>:
80007494:	80000fb7          	lui	t6,0x80000
80007498:	00000113          	li	sp,0
8000749c:	402f81b3          	sub	gp,t6,sp
800074a0:	80000eb7          	lui	t4,0x80000
800074a4:	00600e13          	li	t3,6
800074a8:	45d19663          	bne	gp,t4,800078f4 <fail>

800074ac <test_7>:
800074ac:	80000fb7          	lui	t6,0x80000
800074b0:	ffff8137          	lui	sp,0xffff8
800074b4:	402f81b3          	sub	gp,t6,sp
800074b8:	80008eb7          	lui	t4,0x80008
800074bc:	00700e13          	li	t3,7
800074c0:	43d19a63          	bne	gp,t4,800078f4 <fail>

800074c4 <test_8>:
800074c4:	00000f93          	li	t6,0
800074c8:	00008137          	lui	sp,0x8
800074cc:	fff10113          	add	sp,sp,-1 # 7fff <_entry_offset+0x7fff>
800074d0:	402f81b3          	sub	gp,t6,sp
800074d4:	ffff8eb7          	lui	t4,0xffff8
800074d8:	001e8e93          	add	t4,t4,1 # ffff8001 <_end+0x7ffe7001>
800074dc:	00800e13          	li	t3,8
800074e0:	41d19a63          	bne	gp,t4,800078f4 <fail>

800074e4 <test_9>:
800074e4:	80000fb7          	lui	t6,0x80000
800074e8:	ffff8f93          	add	t6,t6,-1 # 7fffffff <_entry_offset+0x7fffffff>
800074ec:	00000113          	li	sp,0
800074f0:	402f81b3          	sub	gp,t6,sp
800074f4:	80000eb7          	lui	t4,0x80000
800074f8:	fffe8e93          	add	t4,t4,-1 # 7fffffff <_entry_offset+0x7fffffff>
800074fc:	00900e13          	li	t3,9
80007500:	3fd19a63          	bne	gp,t4,800078f4 <fail>

80007504 <test_10>:
80007504:	80000fb7          	lui	t6,0x80000
80007508:	ffff8f93          	add	t6,t6,-1 # 7fffffff <_entry_offset+0x7fffffff>
8000750c:	00008137          	lui	sp,0x8
80007510:	fff10113          	add	sp,sp,-1 # 7fff <_entry_offset+0x7fff>
80007514:	402f81b3          	sub	gp,t6,sp
80007518:	7fff8eb7          	lui	t4,0x7fff8
8000751c:	00a00e13          	li	t3,10
80007520:	3dd19a63          	bne	gp,t4,800078f4 <fail>

80007524 <test_11>:
80007524:	80000fb7          	lui	t6,0x80000
80007528:	00008137          	lui	sp,0x8
8000752c:	fff10113          	add	sp,sp,-1 # 7fff <_entry_offset+0x7fff>
80007530:	402f81b3          	sub	gp,t6,sp
80007534:	7fff8eb7          	lui	t4,0x7fff8
80007538:	001e8e93          	add	t4,t4,1 # 7fff8001 <_entry_offset+0x7fff8001>
8000753c:	00b00e13          	li	t3,11
80007540:	3bd19a63          	bne	gp,t4,800078f4 <fail>

80007544 <test_12>:
80007544:	80000fb7          	lui	t6,0x80000
80007548:	ffff8f93          	add	t6,t6,-1 # 7fffffff <_entry_offset+0x7fffffff>
8000754c:	ffff8137          	lui	sp,0xffff8
80007550:	402f81b3          	sub	gp,t6,sp
80007554:	80008eb7          	lui	t4,0x80008
80007558:	fffe8e93          	add	t4,t4,-1 # 80007fff <test_15+0x13>
8000755c:	00c00e13          	li	t3,12
80007560:	39d19a63          	bne	gp,t4,800078f4 <fail>

80007564 <test_13>:
80007564:	00000f93          	li	t6,0
80007568:	fff00113          	li	sp,-1
8000756c:	402f81b3          	sub	gp,t6,sp
80007570:	00100e93          	li	t4,1
80007574:	00d00e13          	li	t3,13
80007578:	37d19e63          	bne	gp,t4,800078f4 <fail>

8000757c <test_14>:
8000757c:	fff00f93          	li	t6,-1
80007580:	00100113          	li	sp,1
80007584:	402f81b3          	sub	gp,t6,sp
80007588:	ffe00e93          	li	t4,-2
8000758c:	00e00e13          	li	t3,14
80007590:	37d19263          	bne	gp,t4,800078f4 <fail>

80007594 <test_15>:
80007594:	fff00f93          	li	t6,-1
80007598:	fff00113          	li	sp,-1
8000759c:	402f81b3          	sub	gp,t6,sp
800075a0:	00000e93          	li	t4,0
800075a4:	00f00e13          	li	t3,15
800075a8:	35d19663          	bne	gp,t4,800078f4 <fail>

800075ac <test_16>:
800075ac:	00d00f93          	li	t6,13
800075b0:	00b00113          	li	sp,11
800075b4:	402f8fb3          	sub	t6,t6,sp
800075b8:	00200e93          	li	t4,2
800075bc:	01000e13          	li	t3,16
800075c0:	33df9a63          	bne	t6,t4,800078f4 <fail>

800075c4 <test_17>:
800075c4:	00e00f93          	li	t6,14
800075c8:	00b00113          	li	sp,11
800075cc:	402f8133          	sub	sp,t6,sp
800075d0:	00300e93          	li	t4,3
800075d4:	01100e13          	li	t3,17
800075d8:	31d11e63          	bne	sp,t4,800078f4 <fail>

800075dc <test_18>:
800075dc:	00d00f93          	li	t6,13
800075e0:	41ff8fb3          	sub	t6,t6,t6
800075e4:	00000e93          	li	t4,0
800075e8:	01200e13          	li	t3,18
800075ec:	31df9463          	bne	t6,t4,800078f4 <fail>

800075f0 <test_19>:
800075f0:	00000213          	li	tp,0
800075f4:	00d00f93          	li	t6,13
800075f8:	00b00113          	li	sp,11
800075fc:	402f81b3          	sub	gp,t6,sp
80007600:	00018313          	mv	t1,gp
80007604:	00120213          	add	tp,tp,1 # 1 <_entry_offset+0x1>
80007608:	00200293          	li	t0,2
8000760c:	fe5214e3          	bne	tp,t0,800075f4 <test_19+0x4>
80007610:	00200e93          	li	t4,2
80007614:	01300e13          	li	t3,19
80007618:	2dd31e63          	bne	t1,t4,800078f4 <fail>

8000761c <test_20>:
8000761c:	00000213          	li	tp,0
80007620:	00e00f93          	li	t6,14
80007624:	00b00113          	li	sp,11
80007628:	402f81b3          	sub	gp,t6,sp
8000762c:	00000013          	nop
80007630:	00018313          	mv	t1,gp
80007634:	00120213          	add	tp,tp,1 # 1 <_entry_offset+0x1>
80007638:	00200293          	li	t0,2
8000763c:	fe5212e3          	bne	tp,t0,80007620 <test_20+0x4>
80007640:	00300e93          	li	t4,3
80007644:	01400e13          	li	t3,20
80007648:	2bd31663          	bne	t1,t4,800078f4 <fail>

8000764c <test_21>:
8000764c:	00000213          	li	tp,0
80007650:	00f00f93          	li	t6,15
80007654:	00b00113          	li	sp,11
80007658:	402f81b3          	sub	gp,t6,sp
8000765c:	00000013          	nop
80007660:	00000013          	nop
80007664:	00018313          	mv	t1,gp
80007668:	00120213          	add	tp,tp,1 # 1 <_entry_offset+0x1>
8000766c:	00200293          	li	t0,2
80007670:	fe5210e3          	bne	tp,t0,80007650 <test_21+0x4>
80007674:	00400e93          	li	t4,4
80007678:	01500e13          	li	t3,21
8000767c:	27d31c63          	bne	t1,t4,800078f4 <fail>

80007680 <test_22>:
80007680:	00000213          	li	tp,0
80007684:	00d00f93          	li	t6,13
80007688:	00b00113          	li	sp,11
8000768c:	402f81b3          	sub	gp,t6,sp
80007690:	00120213          	add	tp,tp,1 # 1 <_entry_offset+0x1>
80007694:	00200293          	li	t0,2
80007698:	fe5216e3          	bne	tp,t0,80007684 <test_22+0x4>
8000769c:	00200e93          	li	t4,2
800076a0:	01600e13          	li	t3,22
800076a4:	25d19863          	bne	gp,t4,800078f4 <fail>

800076a8 <test_23>:
800076a8:	00000213          	li	tp,0
800076ac:	00e00f93          	li	t6,14
800076b0:	00b00113          	li	sp,11
800076b4:	00000013          	nop
800076b8:	402f81b3          	sub	gp,t6,sp
800076bc:	00120213          	add	tp,tp,1 # 1 <_entry_offset+0x1>
800076c0:	00200293          	li	t0,2
800076c4:	fe5214e3          	bne	tp,t0,800076ac <test_23+0x4>
800076c8:	00300e93          	li	t4,3
800076cc:	01700e13          	li	t3,23
800076d0:	23d19263          	bne	gp,t4,800078f4 <fail>

800076d4 <test_24>:
800076d4:	00000213          	li	tp,0
800076d8:	00f00f93          	li	t6,15
800076dc:	00b00113          	li	sp,11
800076e0:	00000013          	nop
800076e4:	00000013          	nop
800076e8:	402f81b3          	sub	gp,t6,sp
800076ec:	00120213          	add	tp,tp,1 # 1 <_entry_offset+0x1>
800076f0:	00200293          	li	t0,2
800076f4:	fe5212e3          	bne	tp,t0,800076d8 <test_24+0x4>
800076f8:	00400e93          	li	t4,4
800076fc:	01800e13          	li	t3,24
80007700:	1fd19a63          	bne	gp,t4,800078f4 <fail>

80007704 <test_25>:
80007704:	00000213          	li	tp,0
80007708:	00d00f93          	li	t6,13
8000770c:	00000013          	nop
80007710:	00b00113          	li	sp,11
80007714:	402f81b3          	sub	gp,t6,sp
80007718:	00120213          	add	tp,tp,1 # 1 <_entry_offset+0x1>
8000771c:	00200293          	li	t0,2
80007720:	fe5214e3          	bne	tp,t0,80007708 <test_25+0x4>
80007724:	00200e93          	li	t4,2
80007728:	01900e13          	li	t3,25
8000772c:	1dd19463          	bne	gp,t4,800078f4 <fail>

80007730 <test_26>:
80007730:	00000213          	li	tp,0
80007734:	00e00f93          	li	t6,14
80007738:	00000013          	nop
8000773c:	00b00113          	li	sp,11
80007740:	00000013          	nop
80007744:	402f81b3          	sub	gp,t6,sp
80007748:	00120213          	add	tp,tp,1 # 1 <_entry_offset+0x1>
8000774c:	00200293          	li	t0,2
80007750:	fe5212e3          	bne	tp,t0,80007734 <test_26+0x4>
80007754:	00300e93          	li	t4,3
80007758:	01a00e13          	li	t3,26
8000775c:	19d19c63          	bne	gp,t4,800078f4 <fail>

80007760 <test_27>:
80007760:	00000213          	li	tp,0
80007764:	00f00f93          	li	t6,15
80007768:	00000013          	nop
8000776c:	00000013          	nop
80007770:	00b00113          	li	sp,11
80007774:	402f81b3          	sub	gp,t6,sp
80007778:	00120213          	add	tp,tp,1 # 1 <_entry_offset+0x1>
8000777c:	00200293          	li	t0,2
80007780:	fe5212e3          	bne	tp,t0,80007764 <test_27+0x4>
80007784:	00400e93          	li	t4,4
80007788:	01b00e13          	li	t3,27
8000778c:	17d19463          	bne	gp,t4,800078f4 <fail>

80007790 <test_28>:
80007790:	00000213          	li	tp,0
80007794:	00b00113          	li	sp,11
80007798:	00d00f93          	li	t6,13
8000779c:	402f81b3          	sub	gp,t6,sp
800077a0:	00120213          	add	tp,tp,1 # 1 <_entry_offset+0x1>
800077a4:	00200293          	li	t0,2
800077a8:	fe5216e3          	bne	tp,t0,80007794 <test_28+0x4>
800077ac:	00200e93          	li	t4,2
800077b0:	01c00e13          	li	t3,28
800077b4:	15d19063          	bne	gp,t4,800078f4 <fail>

800077b8 <test_29>:
800077b8:	00000213          	li	tp,0
800077bc:	00b00113          	li	sp,11
800077c0:	00e00f93          	li	t6,14
800077c4:	00000013          	nop
800077c8:	402f81b3          	sub	gp,t6,sp
800077cc:	00120213          	add	tp,tp,1 # 1 <_entry_offset+0x1>
800077d0:	00200293          	li	t0,2
800077d4:	fe5214e3          	bne	tp,t0,800077bc <test_29+0x4>
800077d8:	00300e93          	li	t4,3
800077dc:	01d00e13          	li	t3,29
800077e0:	11d19a63          	bne	gp,t4,800078f4 <fail>

800077e4 <test_30>:
800077e4:	00000213          	li	tp,0
800077e8:	00b00113          	li	sp,11
800077ec:	00f00f93          	li	t6,15
800077f0:	00000013          	nop
800077f4:	00000013          	nop
800077f8:	402f81b3          	sub	gp,t6,sp
800077fc:	00120213          	add	tp,tp,1 # 1 <_entry_offset+0x1>
80007800:	00200293          	li	t0,2
80007804:	fe5212e3          	bne	tp,t0,800077e8 <test_30+0x4>
80007808:	00400e93          	li	t4,4
8000780c:	01e00e13          	li	t3,30
80007810:	0fd19263          	bne	gp,t4,800078f4 <fail>

80007814 <test_31>:
80007814:	00000213          	li	tp,0
80007818:	00b00113          	li	sp,11
8000781c:	00000013          	nop
80007820:	00d00f93          	li	t6,13
80007824:	402f81b3          	sub	gp,t6,sp
80007828:	00120213          	add	tp,tp,1 # 1 <_entry_offset+0x1>
8000782c:	00200293          	li	t0,2
80007830:	fe5214e3          	bne	tp,t0,80007818 <test_31+0x4>
80007834:	00200e93          	li	t4,2
80007838:	01f00e13          	li	t3,31
8000783c:	0bd19c63          	bne	gp,t4,800078f4 <fail>

80007840 <test_32>:
80007840:	00000213          	li	tp,0
80007844:	00b00113          	li	sp,11
80007848:	00000013          	nop
8000784c:	00e00f93          	li	t6,14
80007850:	00000013          	nop
80007854:	402f81b3          	sub	gp,t6,sp
80007858:	00120213          	add	tp,tp,1 # 1 <_entry_offset+0x1>
8000785c:	00200293          	li	t0,2
80007860:	fe5212e3          	bne	tp,t0,80007844 <test_32+0x4>
80007864:	00300e93          	li	t4,3
80007868:	02000e13          	li	t3,32
8000786c:	09d19463          	bne	gp,t4,800078f4 <fail>

80007870 <test_33>:
80007870:	00000213          	li	tp,0
80007874:	00b00113          	li	sp,11
80007878:	00000013          	nop
8000787c:	00000013          	nop
80007880:	00f00f93          	li	t6,15
80007884:	402f81b3          	sub	gp,t6,sp
80007888:	00120213          	add	tp,tp,1 # 1 <_entry_offset+0x1>
8000788c:	00200293          	li	t0,2
80007890:	fe5212e3          	bne	tp,t0,80007874 <test_33+0x4>
80007894:	00400e93          	li	t4,4
80007898:	02100e13          	li	t3,33
8000789c:	05d19c63          	bne	gp,t4,800078f4 <fail>

800078a0 <test_34>:
800078a0:	ff100f93          	li	t6,-15
800078a4:	41f00133          	neg	sp,t6
800078a8:	00f00e93          	li	t4,15
800078ac:	02200e13          	li	t3,34
800078b0:	05d11263          	bne	sp,t4,800078f4 <fail>

800078b4 <test_35>:
800078b4:	02000f93          	li	t6,32
800078b8:	400f8133          	sub	sp,t6,zero
800078bc:	02000e93          	li	t4,32
800078c0:	02300e13          	li	t3,35
800078c4:	03d11863          	bne	sp,t4,800078f4 <fail>

800078c8 <test_36>:
800078c8:	40000fb3          	neg	t6,zero
800078cc:	00000e93          	li	t4,0
800078d0:	02400e13          	li	t3,36
800078d4:	03df9063          	bne	t6,t4,800078f4 <fail>

800078d8 <test_37>:
800078d8:	01000f93          	li	t6,16
800078dc:	01e00113          	li	sp,30
800078e0:	402f8033          	sub	zero,t6,sp
800078e4:	00000e93          	li	t4,0
800078e8:	02500e13          	li	t3,37
800078ec:	01d01463          	bne	zero,t4,800078f4 <fail>
800078f0:	0100006f          	j	80007900 <pass>

800078f4 <fail>:
800078f4:	fff00513          	li	a0,-1
800078f8:	00100073          	ebreak
800078fc:	ff9ff06f          	j	800078f4 <fail>

80007900 <pass>:
80007900:	00000513          	li	a0,0
80007904:	00008067          	ret

80007908 <divu>:
80007908:	01400f93          	li	t6,20
8000790c:	00600113          	li	sp,6
80007910:	022fd1b3          	divu	gp,t6,sp
80007914:	00300e93          	li	t4,3
80007918:	00200e13          	li	t3,2
8000791c:	0dd19663          	bne	gp,t4,800079e8 <fail>

80007920 <test_3>:
80007920:	fec00f93          	li	t6,-20
80007924:	00600113          	li	sp,6
80007928:	022fd1b3          	divu	gp,t6,sp
8000792c:	2aaabeb7          	lui	t4,0x2aaab
80007930:	aa7e8e93          	add	t4,t4,-1369 # 2aaaaaa7 <_entry_offset+0x2aaaaaa7>
80007934:	00300e13          	li	t3,3
80007938:	0bd19863          	bne	gp,t4,800079e8 <fail>

8000793c <test_4>:
8000793c:	01400f93          	li	t6,20
80007940:	ffa00113          	li	sp,-6
80007944:	022fd1b3          	divu	gp,t6,sp
80007948:	00000e93          	li	t4,0
8000794c:	00400e13          	li	t3,4
80007950:	09d19c63          	bne	gp,t4,800079e8 <fail>

80007954 <test_5>:
80007954:	fec00f93          	li	t6,-20
80007958:	ffa00113          	li	sp,-6
8000795c:	022fd1b3          	divu	gp,t6,sp
80007960:	00000e93          	li	t4,0
80007964:	00500e13          	li	t3,5
80007968:	09d19063          	bne	gp,t4,800079e8 <fail>

8000796c <test_6>:
8000796c:	80000fb7          	lui	t6,0x80000
80007970:	00100113          	li	sp,1
80007974:	022fd1b3          	divu	gp,t6,sp
80007978:	80000eb7          	lui	t4,0x80000
8000797c:	00600e13          	li	t3,6
80007980:	07d19463          	bne	gp,t4,800079e8 <fail>

80007984 <test_7>:
80007984:	80000fb7          	lui	t6,0x80000
80007988:	fff00113          	li	sp,-1
8000798c:	022fd1b3          	divu	gp,t6,sp
80007990:	00000e93          	li	t4,0
80007994:	00700e13          	li	t3,7
80007998:	05d19863          	bne	gp,t4,800079e8 <fail>

8000799c <test_8>:
8000799c:	80000fb7          	lui	t6,0x80000
800079a0:	00000113          	li	sp,0
800079a4:	022fd1b3          	divu	gp,t6,sp
800079a8:	fff00e93          	li	t4,-1
800079ac:	00800e13          	li	t3,8
800079b0:	03d19c63          	bne	gp,t4,800079e8 <fail>

800079b4 <test_9>:
800079b4:	00100f93          	li	t6,1
800079b8:	00000113          	li	sp,0
800079bc:	022fd1b3          	divu	gp,t6,sp
800079c0:	fff00e93          	li	t4,-1
800079c4:	00900e13          	li	t3,9
800079c8:	03d19063          	bne	gp,t4,800079e8 <fail>

800079cc <test_10>:
800079cc:	00000f93          	li	t6,0
800079d0:	00000113          	li	sp,0
800079d4:	022fd1b3          	divu	gp,t6,sp
800079d8:	fff00e93          	li	t4,-1
800079dc:	00a00e13          	li	t3,10
800079e0:	01d19463          	bne	gp,t4,800079e8 <fail>
800079e4:	0100006f          	j	800079f4 <pass>

800079e8 <fail>:
800079e8:	fff00513          	li	a0,-1
800079ec:	00100073          	ebreak
800079f0:	ff9ff06f          	j	800079e8 <fail>

800079f4 <pass>:
800079f4:	00000513          	li	a0,0
800079f8:	00008067          	ret

800079fc <div>:
800079fc:	01400f93          	li	t6,20
80007a00:	00600113          	li	sp,6
80007a04:	022fc1b3          	div	gp,t6,sp
80007a08:	00300e93          	li	t4,3
80007a0c:	00200e13          	li	t3,2
80007a10:	0dd19463          	bne	gp,t4,80007ad8 <fail>

80007a14 <test_3>:
80007a14:	fec00f93          	li	t6,-20
80007a18:	00600113          	li	sp,6
80007a1c:	022fc1b3          	div	gp,t6,sp
80007a20:	ffd00e93          	li	t4,-3
80007a24:	00300e13          	li	t3,3
80007a28:	0bd19863          	bne	gp,t4,80007ad8 <fail>

80007a2c <test_4>:
80007a2c:	01400f93          	li	t6,20
80007a30:	ffa00113          	li	sp,-6
80007a34:	022fc1b3          	div	gp,t6,sp
80007a38:	ffd00e93          	li	t4,-3
80007a3c:	00400e13          	li	t3,4
80007a40:	09d19c63          	bne	gp,t4,80007ad8 <fail>

80007a44 <test_5>:
80007a44:	fec00f93          	li	t6,-20
80007a48:	ffa00113          	li	sp,-6
80007a4c:	022fc1b3          	div	gp,t6,sp
80007a50:	00300e93          	li	t4,3
80007a54:	00500e13          	li	t3,5
80007a58:	09d19063          	bne	gp,t4,80007ad8 <fail>

80007a5c <test_6>:
80007a5c:	80000fb7          	lui	t6,0x80000
80007a60:	00100113          	li	sp,1
80007a64:	022fc1b3          	div	gp,t6,sp
80007a68:	80000eb7          	lui	t4,0x80000
80007a6c:	00600e13          	li	t3,6
80007a70:	07d19463          	bne	gp,t4,80007ad8 <fail>

80007a74 <test_7>:
80007a74:	80000fb7          	lui	t6,0x80000
80007a78:	fff00113          	li	sp,-1
80007a7c:	022fc1b3          	div	gp,t6,sp
80007a80:	80000eb7          	lui	t4,0x80000
80007a84:	00700e13          	li	t3,7
80007a88:	05d19863          	bne	gp,t4,80007ad8 <fail>

80007a8c <test_8>:
80007a8c:	80000fb7          	lui	t6,0x80000
80007a90:	00000113          	li	sp,0
80007a94:	022fc1b3          	div	gp,t6,sp
80007a98:	fff00e93          	li	t4,-1
80007a9c:	00800e13          	li	t3,8
80007aa0:	03d19c63          	bne	gp,t4,80007ad8 <fail>

80007aa4 <test_9>:
80007aa4:	00100f93          	li	t6,1
80007aa8:	00000113          	li	sp,0
80007aac:	022fc1b3          	div	gp,t6,sp
80007ab0:	fff00e93          	li	t4,-1
80007ab4:	00900e13          	li	t3,9
80007ab8:	03d19063          	bne	gp,t4,80007ad8 <fail>

80007abc <test_10>:
80007abc:	00000f93          	li	t6,0
80007ac0:	00000113          	li	sp,0
80007ac4:	022fc1b3          	div	gp,t6,sp
80007ac8:	fff00e93          	li	t4,-1
80007acc:	00a00e13          	li	t3,10
80007ad0:	01d19463          	bne	gp,t4,80007ad8 <fail>
80007ad4:	0100006f          	j	80007ae4 <pass>

80007ad8 <fail>:
80007ad8:	fff00513          	li	a0,-1
80007adc:	00100073          	ebreak
80007ae0:	ff9ff06f          	j	80007ad8 <fail>

80007ae4 <pass>:
80007ae4:	00000513          	li	a0,0
80007ae8:	00008067          	ret

80007aec <ori>:
80007aec:	ff010fb7          	lui	t6,0xff010
80007af0:	f00f8f93          	add	t6,t6,-256 # ff00ff00 <_end+0x7effef00>
80007af4:	f0ffe193          	or	gp,t6,-241
80007af8:	f0f00e93          	li	t4,-241
80007afc:	00200e13          	li	t3,2
80007b00:	1dd19463          	bne	gp,t4,80007cc8 <fail>

80007b04 <test_3>:
80007b04:	0ff01fb7          	lui	t6,0xff01
80007b08:	ff0f8f93          	add	t6,t6,-16 # ff00ff0 <_entry_offset+0xff00ff0>
80007b0c:	0f0fe193          	or	gp,t6,240
80007b10:	0ff01eb7          	lui	t4,0xff01
80007b14:	ff0e8e93          	add	t4,t4,-16 # ff00ff0 <_entry_offset+0xff00ff0>
80007b18:	00300e13          	li	t3,3
80007b1c:	1bd19663          	bne	gp,t4,80007cc8 <fail>

80007b20 <test_4>:
80007b20:	00ff0fb7          	lui	t6,0xff0
80007b24:	0fff8f93          	add	t6,t6,255 # ff00ff <_entry_offset+0xff00ff>
80007b28:	70ffe193          	or	gp,t6,1807
80007b2c:	00ff0eb7          	lui	t4,0xff0
80007b30:	7ffe8e93          	add	t4,t4,2047 # ff07ff <_entry_offset+0xff07ff>
80007b34:	00400e13          	li	t3,4
80007b38:	19d19863          	bne	gp,t4,80007cc8 <fail>

80007b3c <test_5>:
80007b3c:	f00fffb7          	lui	t6,0xf00ff
80007b40:	00ff8f93          	add	t6,t6,15 # f00ff00f <_end+0x700ee00f>
80007b44:	0f0fe193          	or	gp,t6,240
80007b48:	f00ffeb7          	lui	t4,0xf00ff
80007b4c:	0ffe8e93          	add	t4,t4,255 # f00ff0ff <_end+0x700ee0ff>
80007b50:	00500e13          	li	t3,5
80007b54:	17d19a63          	bne	gp,t4,80007cc8 <fail>

80007b58 <test_6>:
80007b58:	ff010fb7          	lui	t6,0xff010
80007b5c:	f00f8f93          	add	t6,t6,-256 # ff00ff00 <_end+0x7effef00>
80007b60:	0f0fef93          	or	t6,t6,240
80007b64:	ff010eb7          	lui	t4,0xff010
80007b68:	ff0e8e93          	add	t4,t4,-16 # ff00fff0 <_end+0x7effeff0>
80007b6c:	00600e13          	li	t3,6
80007b70:	15df9c63          	bne	t6,t4,80007cc8 <fail>

80007b74 <test_7>:
80007b74:	00000213          	li	tp,0
80007b78:	0ff01fb7          	lui	t6,0xff01
80007b7c:	ff0f8f93          	add	t6,t6,-16 # ff00ff0 <_entry_offset+0xff00ff0>
80007b80:	0f0fe193          	or	gp,t6,240
80007b84:	00018313          	mv	t1,gp
80007b88:	00120213          	add	tp,tp,1 # 1 <_entry_offset+0x1>
80007b8c:	00200293          	li	t0,2
80007b90:	fe5214e3          	bne	tp,t0,80007b78 <test_7+0x4>
80007b94:	0ff01eb7          	lui	t4,0xff01
80007b98:	ff0e8e93          	add	t4,t4,-16 # ff00ff0 <_entry_offset+0xff00ff0>
80007b9c:	00700e13          	li	t3,7
80007ba0:	13d31463          	bne	t1,t4,80007cc8 <fail>

80007ba4 <test_8>:
80007ba4:	00000213          	li	tp,0
80007ba8:	00ff0fb7          	lui	t6,0xff0
80007bac:	0fff8f93          	add	t6,t6,255 # ff00ff <_entry_offset+0xff00ff>
80007bb0:	70ffe193          	or	gp,t6,1807
80007bb4:	00000013          	nop
80007bb8:	00018313          	mv	t1,gp
80007bbc:	00120213          	add	tp,tp,1 # 1 <_entry_offset+0x1>
80007bc0:	00200293          	li	t0,2
80007bc4:	fe5212e3          	bne	tp,t0,80007ba8 <test_8+0x4>
80007bc8:	00ff0eb7          	lui	t4,0xff0
80007bcc:	7ffe8e93          	add	t4,t4,2047 # ff07ff <_entry_offset+0xff07ff>
80007bd0:	00800e13          	li	t3,8
80007bd4:	0fd31a63          	bne	t1,t4,80007cc8 <fail>

80007bd8 <test_9>:
80007bd8:	00000213          	li	tp,0
80007bdc:	f00fffb7          	lui	t6,0xf00ff
80007be0:	00ff8f93          	add	t6,t6,15 # f00ff00f <_end+0x700ee00f>
80007be4:	0f0fe193          	or	gp,t6,240
80007be8:	00000013          	nop
80007bec:	00000013          	nop
80007bf0:	00018313          	mv	t1,gp
80007bf4:	00120213          	add	tp,tp,1 # 1 <_entry_offset+0x1>
80007bf8:	00200293          	li	t0,2
80007bfc:	fe5210e3          	bne	tp,t0,80007bdc <test_9+0x4>
80007c00:	f00ffeb7          	lui	t4,0xf00ff
80007c04:	0ffe8e93          	add	t4,t4,255 # f00ff0ff <_end+0x700ee0ff>
80007c08:	00900e13          	li	t3,9
80007c0c:	0bd31e63          	bne	t1,t4,80007cc8 <fail>

80007c10 <test_10>:
80007c10:	00000213          	li	tp,0
80007c14:	0ff01fb7          	lui	t6,0xff01
80007c18:	ff0f8f93          	add	t6,t6,-16 # ff00ff0 <_entry_offset+0xff00ff0>
80007c1c:	0f0fe193          	or	gp,t6,240
80007c20:	00120213          	add	tp,tp,1 # 1 <_entry_offset+0x1>
80007c24:	00200293          	li	t0,2
80007c28:	fe5216e3          	bne	tp,t0,80007c14 <test_10+0x4>
80007c2c:	0ff01eb7          	lui	t4,0xff01
80007c30:	ff0e8e93          	add	t4,t4,-16 # ff00ff0 <_entry_offset+0xff00ff0>
80007c34:	00a00e13          	li	t3,10
80007c38:	09d19863          	bne	gp,t4,80007cc8 <fail>

80007c3c <test_11>:
80007c3c:	00000213          	li	tp,0
80007c40:	00ff0fb7          	lui	t6,0xff0
80007c44:	0fff8f93          	add	t6,t6,255 # ff00ff <_entry_offset+0xff00ff>
80007c48:	00000013          	nop
80007c4c:	f0ffe193          	or	gp,t6,-241
80007c50:	00120213          	add	tp,tp,1 # 1 <_entry_offset+0x1>
80007c54:	00200293          	li	t0,2
80007c58:	fe5214e3          	bne	tp,t0,80007c40 <test_11+0x4>
80007c5c:	fff00e93          	li	t4,-1
80007c60:	00b00e13          	li	t3,11
80007c64:	07d19263          	bne	gp,t4,80007cc8 <fail>

80007c68 <test_12>:
80007c68:	00000213          	li	tp,0
80007c6c:	f00fffb7          	lui	t6,0xf00ff
80007c70:	00ff8f93          	add	t6,t6,15 # f00ff00f <_end+0x700ee00f>
80007c74:	00000013          	nop
80007c78:	00000013          	nop
80007c7c:	0f0fe193          	or	gp,t6,240
80007c80:	00120213          	add	tp,tp,1 # 1 <_entry_offset+0x1>
80007c84:	00200293          	li	t0,2
80007c88:	fe5212e3          	bne	tp,t0,80007c6c <test_12+0x4>
80007c8c:	f00ffeb7          	lui	t4,0xf00ff
80007c90:	0ffe8e93          	add	t4,t4,255 # f00ff0ff <_end+0x700ee0ff>
80007c94:	00c00e13          	li	t3,12
80007c98:	03d19863          	bne	gp,t4,80007cc8 <fail>

80007c9c <test_13>:
80007c9c:	0f006f93          	or	t6,zero,240
80007ca0:	0f000e93          	li	t4,240
80007ca4:	00d00e13          	li	t3,13
80007ca8:	03df9063          	bne	t6,t4,80007cc8 <fail>

80007cac <test_14>:
80007cac:	00ff0fb7          	lui	t6,0xff0
80007cb0:	0fff8f93          	add	t6,t6,255 # ff00ff <_entry_offset+0xff00ff>
80007cb4:	70ffe013          	or	zero,t6,1807
80007cb8:	00000e93          	li	t4,0
80007cbc:	00e00e13          	li	t3,14
80007cc0:	01d01463          	bne	zero,t4,80007cc8 <fail>
80007cc4:	0100006f          	j	80007cd4 <pass>

80007cc8 <fail>:
80007cc8:	fff00513          	li	a0,-1
80007ccc:	00100073          	ebreak
80007cd0:	ff9ff06f          	j	80007cc8 <fail>

80007cd4 <pass>:
80007cd4:	00000513          	li	a0,0
80007cd8:	00008067          	ret

80007cdc <jalr>:
80007cdc:	00200e13          	li	t3,2
80007ce0:	00000f93          	li	t6,0
80007ce4:	00000117          	auipc	sp,0x0
80007ce8:	01810113          	add	sp,sp,24 # 80007cfc <target_2>

80007cec <linkaddr_2>:
80007cec:	000109e7          	jalr	s3,sp
80007cf0:	00000013          	nop
80007cf4:	00000013          	nop
80007cf8:	0e40006f          	j	80007ddc <fail>

80007cfc <target_2>:
80007cfc:	00000f97          	auipc	t6,0x0
80007d00:	ff0f8f93          	add	t6,t6,-16 # 80007cec <linkaddr_2>
80007d04:	004f8f93          	add	t6,t6,4
80007d08:	0d3f9a63          	bne	t6,s3,80007ddc <fail>

80007d0c <test_3>:
80007d0c:	00300e13          	li	t3,3
80007d10:	00000f93          	li	t6,0
80007d14:	00000197          	auipc	gp,0x0
80007d18:	01418193          	add	gp,gp,20 # 80007d28 <target_3>

80007d1c <linkaddr_3>:
80007d1c:	00018067          	jr	gp
80007d20:	00000013          	nop
80007d24:	0b80006f          	j	80007ddc <fail>

80007d28 <target_3>:
80007d28:	0a0f9a63          	bnez	t6,80007ddc <fail>

80007d2c <test_4>:
80007d2c:	00400e13          	li	t3,4
80007d30:	00000213          	li	tp,0
80007d34:	00000317          	auipc	t1,0x0
80007d38:	01030313          	add	t1,t1,16 # 80007d44 <test_4+0x18>
80007d3c:	000309e7          	jalr	s3,t1
80007d40:	09c01e63          	bne	zero,t3,80007ddc <fail>
80007d44:	00120213          	add	tp,tp,1 # 1 <_entry_offset+0x1>
80007d48:	00200293          	li	t0,2
80007d4c:	fe5214e3          	bne	tp,t0,80007d34 <test_4+0x8>

80007d50 <test_5>:
80007d50:	00500e13          	li	t3,5
80007d54:	00000213          	li	tp,0
80007d58:	00000317          	auipc	t1,0x0
80007d5c:	01430313          	add	t1,t1,20 # 80007d6c <test_5+0x1c>
80007d60:	00000013          	nop
80007d64:	000309e7          	jalr	s3,t1
80007d68:	07c01a63          	bne	zero,t3,80007ddc <fail>
80007d6c:	00120213          	add	tp,tp,1 # 1 <_entry_offset+0x1>
80007d70:	00200293          	li	t0,2
80007d74:	fe5212e3          	bne	tp,t0,80007d58 <test_5+0x8>

80007d78 <test_6>:
80007d78:	00600e13          	li	t3,6
80007d7c:	00000213          	li	tp,0
80007d80:	00000317          	auipc	t1,0x0
80007d84:	01830313          	add	t1,t1,24 # 80007d98 <test_6+0x20>
80007d88:	00000013          	nop
80007d8c:	00000013          	nop
80007d90:	000309e7          	jalr	s3,t1
80007d94:	05c01463          	bne	zero,t3,80007ddc <fail>
80007d98:	00120213          	add	tp,tp,1 # 1 <_entry_offset+0x1>
80007d9c:	00200293          	li	t0,2
80007da0:	fe5210e3          	bne	tp,t0,80007d80 <test_6+0x8>

80007da4 <test_7>:
80007da4:	00100f93          	li	t6,1
80007da8:	00000117          	auipc	sp,0x0
80007dac:	01c10113          	add	sp,sp,28 # 80007dc4 <test_7+0x20>
80007db0:	ffc109e7          	jalr	s3,-4(sp)
80007db4:	001f8f93          	add	t6,t6,1
80007db8:	001f8f93          	add	t6,t6,1
80007dbc:	001f8f93          	add	t6,t6,1
80007dc0:	001f8f93          	add	t6,t6,1
80007dc4:	001f8f93          	add	t6,t6,1
80007dc8:	001f8f93          	add	t6,t6,1
80007dcc:	00400e93          	li	t4,4
80007dd0:	00700e13          	li	t3,7
80007dd4:	01df9463          	bne	t6,t4,80007ddc <fail>
80007dd8:	0100006f          	j	80007de8 <pass>

80007ddc <fail>:
80007ddc:	fff00513          	li	a0,-1
80007de0:	00100073          	ebreak
80007de4:	ff9ff06f          	j	80007ddc <fail>

80007de8 <pass>:
80007de8:	00000513          	li	a0,0
80007dec:	00008067          	ret

80007df0 <sb>:
80007df0:	00001f97          	auipc	t6,0x1
80007df4:	a34f8f93          	add	t6,t6,-1484 # 80008824 <tdat>
80007df8:	faa00113          	li	sp,-86
80007dfc:	002f8023          	sb	sp,0(t6)
80007e00:	000f8183          	lb	gp,0(t6)
80007e04:	faa00e93          	li	t4,-86
80007e08:	00200e13          	li	t3,2
80007e0c:	3dd19c63          	bne	gp,t4,800081e4 <fail>

80007e10 <test_3>:
80007e10:	00001f97          	auipc	t6,0x1
80007e14:	a14f8f93          	add	t6,t6,-1516 # 80008824 <tdat>
80007e18:	00000113          	li	sp,0
80007e1c:	002f80a3          	sb	sp,1(t6)
80007e20:	001f8183          	lb	gp,1(t6)
80007e24:	00000e93          	li	t4,0
80007e28:	00300e13          	li	t3,3
80007e2c:	3bd19c63          	bne	gp,t4,800081e4 <fail>

80007e30 <test_4>:
80007e30:	00001f97          	auipc	t6,0x1
80007e34:	9f4f8f93          	add	t6,t6,-1548 # 80008824 <tdat>
80007e38:	fffff137          	lui	sp,0xfffff
80007e3c:	fa010113          	add	sp,sp,-96 # ffffefa0 <_end+0x7ffedfa0>
80007e40:	002f8123          	sb	sp,2(t6)
80007e44:	002f9183          	lh	gp,2(t6)
80007e48:	fffffeb7          	lui	t4,0xfffff
80007e4c:	fa0e8e93          	add	t4,t4,-96 # ffffefa0 <_end+0x7ffedfa0>
80007e50:	00400e13          	li	t3,4
80007e54:	39d19863          	bne	gp,t4,800081e4 <fail>

80007e58 <test_5>:
80007e58:	00001f97          	auipc	t6,0x1
80007e5c:	9ccf8f93          	add	t6,t6,-1588 # 80008824 <tdat>
80007e60:	00a00113          	li	sp,10
80007e64:	002f81a3          	sb	sp,3(t6)
80007e68:	003f8183          	lb	gp,3(t6)
80007e6c:	00a00e93          	li	t4,10
80007e70:	00500e13          	li	t3,5
80007e74:	37d19863          	bne	gp,t4,800081e4 <fail>

80007e78 <test_6>:
80007e78:	00001f97          	auipc	t6,0x1
80007e7c:	9b3f8f93          	add	t6,t6,-1613 # 8000882b <tdat8>
80007e80:	faa00113          	li	sp,-86
80007e84:	fe2f8ea3          	sb	sp,-3(t6)
80007e88:	ffdf8183          	lb	gp,-3(t6)
80007e8c:	faa00e93          	li	t4,-86
80007e90:	00600e13          	li	t3,6
80007e94:	35d19863          	bne	gp,t4,800081e4 <fail>

80007e98 <test_7>:
80007e98:	00001f97          	auipc	t6,0x1
80007e9c:	993f8f93          	add	t6,t6,-1645 # 8000882b <tdat8>
80007ea0:	00000113          	li	sp,0
80007ea4:	fe2f8f23          	sb	sp,-2(t6)
80007ea8:	ffef8183          	lb	gp,-2(t6)
80007eac:	00000e93          	li	t4,0
80007eb0:	00700e13          	li	t3,7
80007eb4:	33d19863          	bne	gp,t4,800081e4 <fail>

80007eb8 <test_8>:
80007eb8:	00001f97          	auipc	t6,0x1
80007ebc:	973f8f93          	add	t6,t6,-1677 # 8000882b <tdat8>
80007ec0:	fa000113          	li	sp,-96
80007ec4:	fe2f8fa3          	sb	sp,-1(t6)
80007ec8:	ffff8183          	lb	gp,-1(t6)
80007ecc:	fa000e93          	li	t4,-96
80007ed0:	00800e13          	li	t3,8
80007ed4:	31d19863          	bne	gp,t4,800081e4 <fail>

80007ed8 <test_9>:
80007ed8:	00001f97          	auipc	t6,0x1
80007edc:	953f8f93          	add	t6,t6,-1709 # 8000882b <tdat8>
80007ee0:	00a00113          	li	sp,10
80007ee4:	002f8023          	sb	sp,0(t6)
80007ee8:	000f8183          	lb	gp,0(t6)
80007eec:	00a00e93          	li	t4,10
80007ef0:	00900e13          	li	t3,9
80007ef4:	2fd19863          	bne	gp,t4,800081e4 <fail>

80007ef8 <test_10>:
80007ef8:	00001f97          	auipc	t6,0x1
80007efc:	934f8f93          	add	t6,t6,-1740 # 8000882c <tdat9>
80007f00:	12345137          	lui	sp,0x12345
80007f04:	67810113          	add	sp,sp,1656 # 12345678 <_entry_offset+0x12345678>
80007f08:	fe0f8213          	add	tp,t6,-32
80007f0c:	02220023          	sb	sp,32(tp) # 20 <_entry_offset+0x20>
80007f10:	000f8183          	lb	gp,0(t6)
80007f14:	07800e93          	li	t4,120
80007f18:	00a00e13          	li	t3,10
80007f1c:	2dd19463          	bne	gp,t4,800081e4 <fail>

80007f20 <test_11>:
80007f20:	00001f97          	auipc	t6,0x1
80007f24:	90cf8f93          	add	t6,t6,-1780 # 8000882c <tdat9>
80007f28:	00003137          	lui	sp,0x3
80007f2c:	09810113          	add	sp,sp,152 # 3098 <_entry_offset+0x3098>
80007f30:	ffaf8f93          	add	t6,t6,-6
80007f34:	002f83a3          	sb	sp,7(t6)
80007f38:	00001217          	auipc	tp,0x1
80007f3c:	8f520213          	add	tp,tp,-1803 # 8000882d <tdat10>
80007f40:	00020183          	lb	gp,0(tp) # 0 <_entry_offset>
80007f44:	f9800e93          	li	t4,-104
80007f48:	00b00e13          	li	t3,11
80007f4c:	29d19c63          	bne	gp,t4,800081e4 <fail>

80007f50 <test_12>:
80007f50:	00c00e13          	li	t3,12
80007f54:	00000213          	li	tp,0
80007f58:	fdd00f93          	li	t6,-35
80007f5c:	00001117          	auipc	sp,0x1
80007f60:	8c810113          	add	sp,sp,-1848 # 80008824 <tdat>
80007f64:	01f10023          	sb	t6,0(sp)
80007f68:	00010183          	lb	gp,0(sp)
80007f6c:	fdd00e93          	li	t4,-35
80007f70:	27d19a63          	bne	gp,t4,800081e4 <fail>
80007f74:	00120213          	add	tp,tp,1 # 1 <_entry_offset+0x1>
80007f78:	00200293          	li	t0,2
80007f7c:	fc521ee3          	bne	tp,t0,80007f58 <test_12+0x8>

80007f80 <test_13>:
80007f80:	00d00e13          	li	t3,13
80007f84:	00000213          	li	tp,0
80007f88:	fcd00f93          	li	t6,-51
80007f8c:	00001117          	auipc	sp,0x1
80007f90:	89810113          	add	sp,sp,-1896 # 80008824 <tdat>
80007f94:	00000013          	nop
80007f98:	01f100a3          	sb	t6,1(sp)
80007f9c:	00110183          	lb	gp,1(sp)
80007fa0:	fcd00e93          	li	t4,-51
80007fa4:	25d19063          	bne	gp,t4,800081e4 <fail>
80007fa8:	00120213          	add	tp,tp,1 # 1 <_entry_offset+0x1>
80007fac:	00200293          	li	t0,2
80007fb0:	fc521ce3          	bne	tp,t0,80007f88 <test_13+0x8>

80007fb4 <test_14>:
80007fb4:	00e00e13          	li	t3,14
80007fb8:	00000213          	li	tp,0
80007fbc:	fcc00f93          	li	t6,-52
80007fc0:	00001117          	auipc	sp,0x1
80007fc4:	86410113          	add	sp,sp,-1948 # 80008824 <tdat>
80007fc8:	00000013          	nop
80007fcc:	00000013          	nop
80007fd0:	01f10123          	sb	t6,2(sp)
80007fd4:	00210183          	lb	gp,2(sp)
80007fd8:	fcc00e93          	li	t4,-52
80007fdc:	21d19463          	bne	gp,t4,800081e4 <fail>
80007fe0:	00120213          	add	tp,tp,1 # 1 <_entry_offset+0x1>
80007fe4:	00200293          	li	t0,2
80007fe8:	fc521ae3          	bne	tp,t0,80007fbc <test_14+0x8>

80007fec <test_15>:
80007fec:	00f00e13          	li	t3,15
80007ff0:	00000213          	li	tp,0
80007ff4:	fbc00f93          	li	t6,-68
80007ff8:	00000013          	nop
80007ffc:	00001117          	auipc	sp,0x1
80008000:	82810113          	add	sp,sp,-2008 # 80008824 <tdat>
80008004:	01f101a3          	sb	t6,3(sp)
80008008:	00310183          	lb	gp,3(sp)
8000800c:	fbc00e93          	li	t4,-68
80008010:	1dd19a63          	bne	gp,t4,800081e4 <fail>
80008014:	00120213          	add	tp,tp,1 # 1 <_entry_offset+0x1>
80008018:	00200293          	li	t0,2
8000801c:	fc521ce3          	bne	tp,t0,80007ff4 <test_15+0x8>

80008020 <test_16>:
80008020:	01000e13          	li	t3,16
80008024:	00000213          	li	tp,0
80008028:	fbb00f93          	li	t6,-69
8000802c:	00000013          	nop
80008030:	00000117          	auipc	sp,0x0
80008034:	7f410113          	add	sp,sp,2036 # 80008824 <tdat>
80008038:	00000013          	nop
8000803c:	01f10223          	sb	t6,4(sp)
80008040:	00410183          	lb	gp,4(sp)
80008044:	fbb00e93          	li	t4,-69
80008048:	19d19e63          	bne	gp,t4,800081e4 <fail>
8000804c:	00120213          	add	tp,tp,1 # 1 <_entry_offset+0x1>
80008050:	00200293          	li	t0,2
80008054:	fc521ae3          	bne	tp,t0,80008028 <test_16+0x8>

80008058 <test_17>:
80008058:	01100e13          	li	t3,17
8000805c:	00000213          	li	tp,0
80008060:	fab00f93          	li	t6,-85
80008064:	00000013          	nop
80008068:	00000013          	nop
8000806c:	00000117          	auipc	sp,0x0
80008070:	7b810113          	add	sp,sp,1976 # 80008824 <tdat>
80008074:	01f102a3          	sb	t6,5(sp)
80008078:	00510183          	lb	gp,5(sp)
8000807c:	fab00e93          	li	t4,-85
80008080:	17d19263          	bne	gp,t4,800081e4 <fail>
80008084:	00120213          	add	tp,tp,1 # 1 <_entry_offset+0x1>
80008088:	00200293          	li	t0,2
8000808c:	fc521ae3          	bne	tp,t0,80008060 <test_17+0x8>

80008090 <test_18>:
80008090:	01200e13          	li	t3,18
80008094:	00000213          	li	tp,0
80008098:	00000117          	auipc	sp,0x0
8000809c:	78c10113          	add	sp,sp,1932 # 80008824 <tdat>
800080a0:	03300f93          	li	t6,51
800080a4:	01f10023          	sb	t6,0(sp)
800080a8:	00010183          	lb	gp,0(sp)
800080ac:	03300e93          	li	t4,51
800080b0:	13d19a63          	bne	gp,t4,800081e4 <fail>
800080b4:	00120213          	add	tp,tp,1 # 1 <_entry_offset+0x1>
800080b8:	00200293          	li	t0,2
800080bc:	fc521ee3          	bne	tp,t0,80008098 <test_18+0x8>

800080c0 <test_19>:
800080c0:	01300e13          	li	t3,19
800080c4:	00000213          	li	tp,0
800080c8:	00000117          	auipc	sp,0x0
800080cc:	75c10113          	add	sp,sp,1884 # 80008824 <tdat>
800080d0:	02300f93          	li	t6,35
800080d4:	00000013          	nop
800080d8:	01f100a3          	sb	t6,1(sp)
800080dc:	00110183          	lb	gp,1(sp)
800080e0:	02300e93          	li	t4,35
800080e4:	11d19063          	bne	gp,t4,800081e4 <fail>
800080e8:	00120213          	add	tp,tp,1 # 1 <_entry_offset+0x1>
800080ec:	00200293          	li	t0,2
800080f0:	fc521ce3          	bne	tp,t0,800080c8 <test_19+0x8>

800080f4 <test_20>:
800080f4:	01400e13          	li	t3,20
800080f8:	00000213          	li	tp,0
800080fc:	00000117          	auipc	sp,0x0
80008100:	72810113          	add	sp,sp,1832 # 80008824 <tdat>
80008104:	02200f93          	li	t6,34
80008108:	00000013          	nop
8000810c:	00000013          	nop
80008110:	01f10123          	sb	t6,2(sp)
80008114:	00210183          	lb	gp,2(sp)
80008118:	02200e93          	li	t4,34
8000811c:	0dd19463          	bne	gp,t4,800081e4 <fail>
80008120:	00120213          	add	tp,tp,1 # 1 <_entry_offset+0x1>
80008124:	00200293          	li	t0,2
80008128:	fc521ae3          	bne	tp,t0,800080fc <test_20+0x8>

8000812c <test_21>:
8000812c:	01500e13          	li	t3,21
80008130:	00000213          	li	tp,0
80008134:	00000117          	auipc	sp,0x0
80008138:	6f010113          	add	sp,sp,1776 # 80008824 <tdat>
8000813c:	00000013          	nop
80008140:	01200f93          	li	t6,18
80008144:	01f101a3          	sb	t6,3(sp)
80008148:	00310183          	lb	gp,3(sp)
8000814c:	01200e93          	li	t4,18
80008150:	09d19a63          	bne	gp,t4,800081e4 <fail>
80008154:	00120213          	add	tp,tp,1 # 1 <_entry_offset+0x1>
80008158:	00200293          	li	t0,2
8000815c:	fc521ce3          	bne	tp,t0,80008134 <test_21+0x8>

80008160 <test_22>:
80008160:	01600e13          	li	t3,22
80008164:	00000213          	li	tp,0
80008168:	00000117          	auipc	sp,0x0
8000816c:	6bc10113          	add	sp,sp,1724 # 80008824 <tdat>
80008170:	00000013          	nop
80008174:	01100f93          	li	t6,17
80008178:	00000013          	nop
8000817c:	01f10223          	sb	t6,4(sp)
80008180:	00410183          	lb	gp,4(sp)
80008184:	01100e93          	li	t4,17
80008188:	05d19e63          	bne	gp,t4,800081e4 <fail>
8000818c:	00120213          	add	tp,tp,1 # 1 <_entry_offset+0x1>
80008190:	00200293          	li	t0,2
80008194:	fc521ae3          	bne	tp,t0,80008168 <test_22+0x8>

80008198 <test_23>:
80008198:	01700e13          	li	t3,23
8000819c:	00000213          	li	tp,0
800081a0:	00000117          	auipc	sp,0x0
800081a4:	68410113          	add	sp,sp,1668 # 80008824 <tdat>
800081a8:	00000013          	nop
800081ac:	00000013          	nop
800081b0:	00100f93          	li	t6,1
800081b4:	01f102a3          	sb	t6,5(sp)
800081b8:	00510183          	lb	gp,5(sp)
800081bc:	00100e93          	li	t4,1
800081c0:	03d19263          	bne	gp,t4,800081e4 <fail>
800081c4:	00120213          	add	tp,tp,1 # 1 <_entry_offset+0x1>
800081c8:	00200293          	li	t0,2
800081cc:	fc521ae3          	bne	tp,t0,800081a0 <test_23+0x8>
800081d0:	0ef00513          	li	a0,239
800081d4:	00000597          	auipc	a1,0x0
800081d8:	65058593          	add	a1,a1,1616 # 80008824 <tdat>
800081dc:	00a581a3          	sb	a0,3(a1)
800081e0:	0100006f          	j	800081f0 <pass>

800081e4 <fail>:
800081e4:	fff00513          	li	a0,-1
800081e8:	00100073          	ebreak
800081ec:	ff9ff06f          	j	800081e4 <fail>

800081f0 <pass>:
800081f0:	00000513          	li	a0,0
800081f4:	00008067          	ret

800081f8 <mul>:
800081f8:	00008fb7          	lui	t6,0x8
800081fc:	e00f8f93          	add	t6,t6,-512 # 7e00 <_entry_offset+0x7e00>
80008200:	b6db7137          	lui	sp,0xb6db7
80008204:	db710113          	add	sp,sp,-585 # b6db6db7 <_end+0x36da5db7>
80008208:	022f81b3          	mul	gp,t6,sp
8000820c:	00001eb7          	lui	t4,0x1
80008210:	200e8e93          	add	t4,t4,512 # 1200 <_entry_offset+0x1200>
80008214:	02000e13          	li	t3,32
80008218:	4bd19463          	bne	gp,t4,800086c0 <fail>

8000821c <test_33>:
8000821c:	00008fb7          	lui	t6,0x8
80008220:	fc0f8f93          	add	t6,t6,-64 # 7fc0 <_entry_offset+0x7fc0>
80008224:	b6db7137          	lui	sp,0xb6db7
80008228:	db710113          	add	sp,sp,-585 # b6db6db7 <_end+0x36da5db7>
8000822c:	022f81b3          	mul	gp,t6,sp
80008230:	00001eb7          	lui	t4,0x1
80008234:	240e8e93          	add	t4,t4,576 # 1240 <_entry_offset+0x1240>
80008238:	02100e13          	li	t3,33
8000823c:	49d19263          	bne	gp,t4,800086c0 <fail>

80008240 <test_2>:
80008240:	00000f93          	li	t6,0
80008244:	00000113          	li	sp,0
80008248:	022f81b3          	mul	gp,t6,sp
8000824c:	00000e93          	li	t4,0
80008250:	00200e13          	li	t3,2
80008254:	47d19663          	bne	gp,t4,800086c0 <fail>

80008258 <test_3>:
80008258:	00100f93          	li	t6,1
8000825c:	00100113          	li	sp,1
80008260:	022f81b3          	mul	gp,t6,sp
80008264:	00100e93          	li	t4,1
80008268:	00300e13          	li	t3,3
8000826c:	45d19a63          	bne	gp,t4,800086c0 <fail>

80008270 <test_4>:
80008270:	00300f93          	li	t6,3
80008274:	00700113          	li	sp,7
80008278:	022f81b3          	mul	gp,t6,sp
8000827c:	01500e93          	li	t4,21
80008280:	00400e13          	li	t3,4
80008284:	43d19e63          	bne	gp,t4,800086c0 <fail>

80008288 <test_5>:
80008288:	00000f93          	li	t6,0
8000828c:	ffff8137          	lui	sp,0xffff8
80008290:	022f81b3          	mul	gp,t6,sp
80008294:	00000e93          	li	t4,0
80008298:	00500e13          	li	t3,5
8000829c:	43d19263          	bne	gp,t4,800086c0 <fail>

800082a0 <test_6>:
800082a0:	80000fb7          	lui	t6,0x80000
800082a4:	00000113          	li	sp,0
800082a8:	022f81b3          	mul	gp,t6,sp
800082ac:	00000e93          	li	t4,0
800082b0:	00600e13          	li	t3,6
800082b4:	41d19663          	bne	gp,t4,800086c0 <fail>

800082b8 <test_7>:
800082b8:	80000fb7          	lui	t6,0x80000
800082bc:	ffff8137          	lui	sp,0xffff8
800082c0:	022f81b3          	mul	gp,t6,sp
800082c4:	00000e93          	li	t4,0
800082c8:	00700e13          	li	t3,7
800082cc:	3fd19a63          	bne	gp,t4,800086c0 <fail>

800082d0 <test_30>:
800082d0:	aaaabfb7          	lui	t6,0xaaaab
800082d4:	aabf8f93          	add	t6,t6,-1365 # aaaaaaab <_end+0x2aa99aab>
800082d8:	00030137          	lui	sp,0x30
800082dc:	e7d10113          	add	sp,sp,-387 # 2fe7d <_entry_offset+0x2fe7d>
800082e0:	022f81b3          	mul	gp,t6,sp
800082e4:	00010eb7          	lui	t4,0x10
800082e8:	f7fe8e93          	add	t4,t4,-129 # ff7f <_entry_offset+0xff7f>
800082ec:	01e00e13          	li	t3,30
800082f0:	3dd19863          	bne	gp,t4,800086c0 <fail>

800082f4 <test_31>:
800082f4:	00030fb7          	lui	t6,0x30
800082f8:	e7df8f93          	add	t6,t6,-387 # 2fe7d <_entry_offset+0x2fe7d>
800082fc:	aaaab137          	lui	sp,0xaaaab
80008300:	aab10113          	add	sp,sp,-1365 # aaaaaaab <_end+0x2aa99aab>
80008304:	022f81b3          	mul	gp,t6,sp
80008308:	00010eb7          	lui	t4,0x10
8000830c:	f7fe8e93          	add	t4,t4,-129 # ff7f <_entry_offset+0xff7f>
80008310:	01f00e13          	li	t3,31
80008314:	3bd19663          	bne	gp,t4,800086c0 <fail>

80008318 <test_34>:
80008318:	ff000fb7          	lui	t6,0xff000
8000831c:	ff000137          	lui	sp,0xff000
80008320:	022f81b3          	mul	gp,t6,sp
80008324:	00000e93          	li	t4,0
80008328:	02200e13          	li	t3,34
8000832c:	39d19a63          	bne	gp,t4,800086c0 <fail>

80008330 <test_35>:
80008330:	fff00f93          	li	t6,-1
80008334:	fff00113          	li	sp,-1
80008338:	022f81b3          	mul	gp,t6,sp
8000833c:	00100e93          	li	t4,1
80008340:	02300e13          	li	t3,35
80008344:	37d19e63          	bne	gp,t4,800086c0 <fail>

80008348 <test_36>:
80008348:	fff00f93          	li	t6,-1
8000834c:	00100113          	li	sp,1
80008350:	022f81b3          	mul	gp,t6,sp
80008354:	fff00e93          	li	t4,-1
80008358:	02400e13          	li	t3,36
8000835c:	37d19263          	bne	gp,t4,800086c0 <fail>

80008360 <test_37>:
80008360:	00100f93          	li	t6,1
80008364:	fff00113          	li	sp,-1
80008368:	022f81b3          	mul	gp,t6,sp
8000836c:	fff00e93          	li	t4,-1
80008370:	02500e13          	li	t3,37
80008374:	35d19663          	bne	gp,t4,800086c0 <fail>

80008378 <test_8>:
80008378:	00d00f93          	li	t6,13
8000837c:	00b00113          	li	sp,11
80008380:	022f8fb3          	mul	t6,t6,sp
80008384:	08f00e93          	li	t4,143
80008388:	00800e13          	li	t3,8
8000838c:	33df9a63          	bne	t6,t4,800086c0 <fail>

80008390 <test_9>:
80008390:	00e00f93          	li	t6,14
80008394:	00b00113          	li	sp,11
80008398:	022f8133          	mul	sp,t6,sp
8000839c:	09a00e93          	li	t4,154
800083a0:	00900e13          	li	t3,9
800083a4:	31d11e63          	bne	sp,t4,800086c0 <fail>

800083a8 <test_10>:
800083a8:	00d00f93          	li	t6,13
800083ac:	03ff8fb3          	mul	t6,t6,t6
800083b0:	0a900e93          	li	t4,169
800083b4:	00a00e13          	li	t3,10
800083b8:	31df9463          	bne	t6,t4,800086c0 <fail>

800083bc <test_11>:
800083bc:	00000213          	li	tp,0
800083c0:	00d00f93          	li	t6,13
800083c4:	00b00113          	li	sp,11
800083c8:	022f81b3          	mul	gp,t6,sp
800083cc:	00018313          	mv	t1,gp
800083d0:	00120213          	add	tp,tp,1 # 1 <_entry_offset+0x1>
800083d4:	00200293          	li	t0,2
800083d8:	fe5214e3          	bne	tp,t0,800083c0 <test_11+0x4>
800083dc:	08f00e93          	li	t4,143
800083e0:	00b00e13          	li	t3,11
800083e4:	2dd31e63          	bne	t1,t4,800086c0 <fail>

800083e8 <test_12>:
800083e8:	00000213          	li	tp,0
800083ec:	00e00f93          	li	t6,14
800083f0:	00b00113          	li	sp,11
800083f4:	022f81b3          	mul	gp,t6,sp
800083f8:	00000013          	nop
800083fc:	00018313          	mv	t1,gp
80008400:	00120213          	add	tp,tp,1 # 1 <_entry_offset+0x1>
80008404:	00200293          	li	t0,2
80008408:	fe5212e3          	bne	tp,t0,800083ec <test_12+0x4>
8000840c:	09a00e93          	li	t4,154
80008410:	00c00e13          	li	t3,12
80008414:	2bd31663          	bne	t1,t4,800086c0 <fail>

80008418 <test_13>:
80008418:	00000213          	li	tp,0
8000841c:	00f00f93          	li	t6,15
80008420:	00b00113          	li	sp,11
80008424:	022f81b3          	mul	gp,t6,sp
80008428:	00000013          	nop
8000842c:	00000013          	nop
80008430:	00018313          	mv	t1,gp
80008434:	00120213          	add	tp,tp,1 # 1 <_entry_offset+0x1>
80008438:	00200293          	li	t0,2
8000843c:	fe5210e3          	bne	tp,t0,8000841c <test_13+0x4>
80008440:	0a500e93          	li	t4,165
80008444:	00d00e13          	li	t3,13
80008448:	27d31c63          	bne	t1,t4,800086c0 <fail>

8000844c <test_14>:
8000844c:	00000213          	li	tp,0
80008450:	00d00f93          	li	t6,13
80008454:	00b00113          	li	sp,11
80008458:	022f81b3          	mul	gp,t6,sp
8000845c:	00120213          	add	tp,tp,1 # 1 <_entry_offset+0x1>
80008460:	00200293          	li	t0,2
80008464:	fe5216e3          	bne	tp,t0,80008450 <test_14+0x4>
80008468:	08f00e93          	li	t4,143
8000846c:	00e00e13          	li	t3,14
80008470:	25d19863          	bne	gp,t4,800086c0 <fail>

80008474 <test_15>:
80008474:	00000213          	li	tp,0
80008478:	00e00f93          	li	t6,14
8000847c:	00b00113          	li	sp,11
80008480:	00000013          	nop
80008484:	022f81b3          	mul	gp,t6,sp
80008488:	00120213          	add	tp,tp,1 # 1 <_entry_offset+0x1>
8000848c:	00200293          	li	t0,2
80008490:	fe5214e3          	bne	tp,t0,80008478 <test_15+0x4>
80008494:	09a00e93          	li	t4,154
80008498:	00f00e13          	li	t3,15
8000849c:	23d19263          	bne	gp,t4,800086c0 <fail>

800084a0 <test_16>:
800084a0:	00000213          	li	tp,0
800084a4:	00f00f93          	li	t6,15
800084a8:	00b00113          	li	sp,11
800084ac:	00000013          	nop
800084b0:	00000013          	nop
800084b4:	022f81b3          	mul	gp,t6,sp
800084b8:	00120213          	add	tp,tp,1 # 1 <_entry_offset+0x1>
800084bc:	00200293          	li	t0,2
800084c0:	fe5212e3          	bne	tp,t0,800084a4 <test_16+0x4>
800084c4:	0a500e93          	li	t4,165
800084c8:	01000e13          	li	t3,16
800084cc:	1fd19a63          	bne	gp,t4,800086c0 <fail>

800084d0 <test_17>:
800084d0:	00000213          	li	tp,0
800084d4:	00d00f93          	li	t6,13
800084d8:	00000013          	nop
800084dc:	00b00113          	li	sp,11
800084e0:	022f81b3          	mul	gp,t6,sp
800084e4:	00120213          	add	tp,tp,1 # 1 <_entry_offset+0x1>
800084e8:	00200293          	li	t0,2
800084ec:	fe5214e3          	bne	tp,t0,800084d4 <test_17+0x4>
800084f0:	08f00e93          	li	t4,143
800084f4:	01100e13          	li	t3,17
800084f8:	1dd19463          	bne	gp,t4,800086c0 <fail>

800084fc <test_18>:
800084fc:	00000213          	li	tp,0
80008500:	00e00f93          	li	t6,14
80008504:	00000013          	nop
80008508:	00b00113          	li	sp,11
8000850c:	00000013          	nop
80008510:	022f81b3          	mul	gp,t6,sp
80008514:	00120213          	add	tp,tp,1 # 1 <_entry_offset+0x1>
80008518:	00200293          	li	t0,2
8000851c:	fe5212e3          	bne	tp,t0,80008500 <test_18+0x4>
80008520:	09a00e93          	li	t4,154
80008524:	01200e13          	li	t3,18
80008528:	19d19c63          	bne	gp,t4,800086c0 <fail>

8000852c <test_19>:
8000852c:	00000213          	li	tp,0
80008530:	00f00f93          	li	t6,15
80008534:	00000013          	nop
80008538:	00000013          	nop
8000853c:	00b00113          	li	sp,11
80008540:	022f81b3          	mul	gp,t6,sp
80008544:	00120213          	add	tp,tp,1 # 1 <_entry_offset+0x1>
80008548:	00200293          	li	t0,2
8000854c:	fe5212e3          	bne	tp,t0,80008530 <test_19+0x4>
80008550:	0a500e93          	li	t4,165
80008554:	01300e13          	li	t3,19
80008558:	17d19463          	bne	gp,t4,800086c0 <fail>

8000855c <test_20>:
8000855c:	00000213          	li	tp,0
80008560:	00b00113          	li	sp,11
80008564:	00d00f93          	li	t6,13
80008568:	022f81b3          	mul	gp,t6,sp
8000856c:	00120213          	add	tp,tp,1 # 1 <_entry_offset+0x1>
80008570:	00200293          	li	t0,2
80008574:	fe5216e3          	bne	tp,t0,80008560 <test_20+0x4>
80008578:	08f00e93          	li	t4,143
8000857c:	01400e13          	li	t3,20
80008580:	15d19063          	bne	gp,t4,800086c0 <fail>

80008584 <test_21>:
80008584:	00000213          	li	tp,0
80008588:	00b00113          	li	sp,11
8000858c:	00e00f93          	li	t6,14
80008590:	00000013          	nop
80008594:	022f81b3          	mul	gp,t6,sp
80008598:	00120213          	add	tp,tp,1 # 1 <_entry_offset+0x1>
8000859c:	00200293          	li	t0,2
800085a0:	fe5214e3          	bne	tp,t0,80008588 <test_21+0x4>
800085a4:	09a00e93          	li	t4,154
800085a8:	01500e13          	li	t3,21
800085ac:	11d19a63          	bne	gp,t4,800086c0 <fail>

800085b0 <test_22>:
800085b0:	00000213          	li	tp,0
800085b4:	00b00113          	li	sp,11
800085b8:	00f00f93          	li	t6,15
800085bc:	00000013          	nop
800085c0:	00000013          	nop
800085c4:	022f81b3          	mul	gp,t6,sp
800085c8:	00120213          	add	tp,tp,1 # 1 <_entry_offset+0x1>
800085cc:	00200293          	li	t0,2
800085d0:	fe5212e3          	bne	tp,t0,800085b4 <test_22+0x4>
800085d4:	0a500e93          	li	t4,165
800085d8:	01600e13          	li	t3,22
800085dc:	0fd19263          	bne	gp,t4,800086c0 <fail>

800085e0 <test_23>:
800085e0:	00000213          	li	tp,0
800085e4:	00b00113          	li	sp,11
800085e8:	00000013          	nop
800085ec:	00d00f93          	li	t6,13
800085f0:	022f81b3          	mul	gp,t6,sp
800085f4:	00120213          	add	tp,tp,1 # 1 <_entry_offset+0x1>
800085f8:	00200293          	li	t0,2
800085fc:	fe5214e3          	bne	tp,t0,800085e4 <test_23+0x4>
80008600:	08f00e93          	li	t4,143
80008604:	01700e13          	li	t3,23
80008608:	0bd19c63          	bne	gp,t4,800086c0 <fail>

8000860c <test_24>:
8000860c:	00000213          	li	tp,0
80008610:	00b00113          	li	sp,11
80008614:	00000013          	nop
80008618:	00e00f93          	li	t6,14
8000861c:	00000013          	nop
80008620:	022f81b3          	mul	gp,t6,sp
80008624:	00120213          	add	tp,tp,1 # 1 <_entry_offset+0x1>
80008628:	00200293          	li	t0,2
8000862c:	fe5212e3          	bne	tp,t0,80008610 <test_24+0x4>
80008630:	09a00e93          	li	t4,154
80008634:	01800e13          	li	t3,24
80008638:	09d19463          	bne	gp,t4,800086c0 <fail>

8000863c <test_25>:
8000863c:	00000213          	li	tp,0
80008640:	00b00113          	li	sp,11
80008644:	00000013          	nop
80008648:	00000013          	nop
8000864c:	00f00f93          	li	t6,15
80008650:	022f81b3          	mul	gp,t6,sp
80008654:	00120213          	add	tp,tp,1 # 1 <_entry_offset+0x1>
80008658:	00200293          	li	t0,2
8000865c:	fe5212e3          	bne	tp,t0,80008640 <test_25+0x4>
80008660:	0a500e93          	li	t4,165
80008664:	01900e13          	li	t3,25
80008668:	05d19c63          	bne	gp,t4,800086c0 <fail>

8000866c <test_26>:
8000866c:	01f00f93          	li	t6,31
80008670:	03f00133          	mul	sp,zero,t6
80008674:	00000e93          	li	t4,0
80008678:	01a00e13          	li	t3,26
8000867c:	05d11263          	bne	sp,t4,800086c0 <fail>

80008680 <test_27>:
80008680:	02000f93          	li	t6,32
80008684:	020f8133          	mul	sp,t6,zero
80008688:	00000e93          	li	t4,0
8000868c:	01b00e13          	li	t3,27
80008690:	03d11863          	bne	sp,t4,800086c0 <fail>

80008694 <test_28>:
80008694:	02000fb3          	mul	t6,zero,zero
80008698:	00000e93          	li	t4,0
8000869c:	01c00e13          	li	t3,28
800086a0:	03df9063          	bne	t6,t4,800086c0 <fail>

800086a4 <test_29>:
800086a4:	02100f93          	li	t6,33
800086a8:	02200113          	li	sp,34
800086ac:	022f8033          	mul	zero,t6,sp
800086b0:	00000e93          	li	t4,0
800086b4:	01d00e13          	li	t3,29
800086b8:	01d01463          	bne	zero,t4,800086c0 <fail>
800086bc:	0100006f          	j	800086cc <pass>

800086c0 <fail>:
800086c0:	fff00513          	li	a0,-1
800086c4:	00100073          	ebreak
800086c8:	ff9ff06f          	j	800086c0 <fail>

800086cc <pass>:
800086cc:	00000513          	li	a0,0
800086d0:	00008067          	ret

800086d4 <main>:
800086d4:	b98fe0ef          	jal	80006a6c <add>
800086d8:	8b8f90ef          	jal	80001790 <addi>
800086dc:	c11fc0ef          	jal	800052ec <and>
800086e0:	eddf80ef          	jal	800015bc <andi>
800086e4:	bacfd0ef          	jal	80005a90 <auipc>
800086e8:	fe1fb0ef          	jal	800046c8 <beq>
800086ec:	a9cfb0ef          	jal	80003988 <bge>
800086f0:	b3cf90ef          	jal	80001a2c <bgeu>
800086f4:	c59f70ef          	jal	8000034c <blt>
800086f8:	e9cf90ef          	jal	80001d94 <bltu>
800086fc:	8bcfd0ef          	jal	800057b8 <bne>
80008700:	afcff0ef          	jal	800079fc <div>
80008704:	a04ff0ef          	jal	80007908 <divu>
80008708:	f91fa0ef          	jal	80003698 <j>
8000870c:	cf0fc0ef          	jal	80004bfc <jal>
80008710:	dccff0ef          	jal	80007cdc <jalr>
80008714:	848fa0ef          	jal	8000275c <lb>
80008718:	a84fc0ef          	jal	8000499c <lbu>
8000871c:	821fa0ef          	jal	80002f3c <lh>
80008720:	d15fb0ef          	jal	80004434 <lhu>
80008724:	bb5f70ef          	jal	800002d8 <lui>
80008728:	fc1fa0ef          	jal	800036e8 <lw>
8000872c:	acdff0ef          	jal	800081f8 <mul>
80008730:	a8dfa0ef          	jal	800031bc <mulh>
80008734:	d6dfd0ef          	jal	800064a0 <mulhsu>
80008738:	bb0fd0ef          	jal	80005ae8 <mulhu>
8000873c:	d88fb0ef          	jal	80003cc4 <or>
80008740:	bacff0ef          	jal	80007aec <ori>
80008744:	a38fe0ef          	jal	8000697c <rem>
80008748:	955f90ef          	jal	8000209c <remu>
8000874c:	ea4ff0ef          	jal	80007df0 <sb>
80008750:	f10fc0ef          	jal	80004e60 <sh>
80008754:	d68fb0ef          	jal	80003cbc <simple>
80008758:	a64fa0ef          	jal	800029bc <sll>
8000875c:	a41fb0ef          	jal	8000419c <slli>
80008760:	865fd0ef          	jal	80005fc4 <slt>
80008764:	988f80ef          	jal	800008ec <slti>
80008768:	c0cf80ef          	jal	80000b74 <sra>
8000876c:	eb5f70ef          	jal	80000620 <srai>
80008770:	a1df90ef          	jal	8000218c <srl>
80008774:	89df70ef          	jal	80000010 <srli>
80008778:	cbdfe0ef          	jal	80007434 <sub>
8000877c:	9a9f80ef          	jal	80001124 <sw>
80008780:	fe0fe0ef          	jal	80006f60 <xor>
80008784:	ce4fc0ef          	jal	80004c68 <xori>

80008788 <end_loop>:
80008788:	00100073          	ebreak

8000878c <putch>:
8000878c:	00008067          	ret

80008790 <halt>:
80008790:	00050513          	mv	a0,a0
80008794:	00100073          	ebreak
80008798:	0000006f          	j	80008798 <halt+0x8>

8000879c <call_main>:
8000879c:	80008537          	lui	a0,0x80008
800087a0:	ff010113          	add	sp,sp,-16 # fefffff0 <_end+0x7efeeff0>
800087a4:	7bc50513          	add	a0,a0,1980 # 800087bc <_etext>
800087a8:	00112623          	sw	ra,12(sp)
800087ac:	f29ff0ef          	jal	800086d4 <main>
800087b0:	00050513          	mv	a0,a0
800087b4:	00100073          	ebreak
800087b8:	0000006f          	j	800087b8 <call_main+0x1c>
