
/home/xxa/Desktop/CECS-Lab/software/functest/build/bit-riscv32.elf:     file format elf32-littleriscv


Disassembly of section .text:

80000000 <_start>:
80000000:	00000413          	li	s0,0
80000004:	00009117          	auipc	sp,0x9
80000008:	ffc10113          	add	sp,sp,-4 # 80009000 <_end>
8000000c:	1f4000ef          	jal	80000200 <call_main>

80000010 <check>:
80000010:	00050463          	beqz	a0,80000018 <check+0x8>
80000014:	00008067          	ret
80000018:	00100513          	li	a0,1
8000001c:	1d80006f          	j	800001f4 <halt>

80000020 <getbit>:
80000020:	4035d793          	sra	a5,a1,0x3
80000024:	00f50533          	add	a0,a0,a5
80000028:	00054503          	lbu	a0,0(a0)
8000002c:	0075f593          	and	a1,a1,7
80000030:	00100793          	li	a5,1
80000034:	00b797b3          	sll	a5,a5,a1
80000038:	00f57533          	and	a0,a0,a5
8000003c:	00a03533          	snez	a0,a0
80000040:	00008067          	ret

80000044 <setbit>:
80000044:	4035d793          	sra	a5,a1,0x3
80000048:	ff010113          	add	sp,sp,-16
8000004c:	00f50533          	add	a0,a0,a5
80000050:	00a12623          	sw	a0,12(sp)
80000054:	00c12783          	lw	a5,12(sp)
80000058:	0075f593          	and	a1,a1,7
8000005c:	00100713          	li	a4,1
80000060:	00b71733          	sll	a4,a4,a1
80000064:	02061063          	bnez	a2,80000084 <setbit+0x40>
80000068:	0007c783          	lbu	a5,0(a5)
8000006c:	fff74713          	not	a4,a4
80000070:	00e7f7b3          	and	a5,a5,a4
80000074:	00c12703          	lw	a4,12(sp)
80000078:	00f70023          	sb	a5,0(a4)
8000007c:	01010113          	add	sp,sp,16
80000080:	00008067          	ret
80000084:	0007c783          	lbu	a5,0(a5)
80000088:	00e7e7b3          	or	a5,a5,a4
8000008c:	00c12703          	lw	a4,12(sp)
80000090:	0ff7f793          	zext.b	a5,a5
80000094:	00f70023          	sb	a5,0(a4)
80000098:	01010113          	add	sp,sp,16
8000009c:	00008067          	ret

800000a0 <main>:
800000a0:	fe010113          	add	sp,sp,-32
800000a4:	0aa00793          	li	a5,170
800000a8:	00000593          	li	a1,0
800000ac:	00c10513          	add	a0,sp,12
800000b0:	00112e23          	sw	ra,28(sp)
800000b4:	00f11623          	sh	a5,12(sp)
800000b8:	f69ff0ef          	jal	80000020 <getbit>
800000bc:	00154513          	xor	a0,a0,1
800000c0:	0ff57513          	zext.b	a0,a0
800000c4:	f4dff0ef          	jal	80000010 <check>
800000c8:	00100593          	li	a1,1
800000cc:	00c10513          	add	a0,sp,12
800000d0:	f51ff0ef          	jal	80000020 <getbit>
800000d4:	f3dff0ef          	jal	80000010 <check>
800000d8:	00200593          	li	a1,2
800000dc:	00c10513          	add	a0,sp,12
800000e0:	f41ff0ef          	jal	80000020 <getbit>
800000e4:	00154513          	xor	a0,a0,1
800000e8:	0ff57513          	zext.b	a0,a0
800000ec:	f25ff0ef          	jal	80000010 <check>
800000f0:	00300593          	li	a1,3
800000f4:	00c10513          	add	a0,sp,12
800000f8:	f29ff0ef          	jal	80000020 <getbit>
800000fc:	f15ff0ef          	jal	80000010 <check>
80000100:	00400593          	li	a1,4
80000104:	00c10513          	add	a0,sp,12
80000108:	f19ff0ef          	jal	80000020 <getbit>
8000010c:	00154513          	xor	a0,a0,1
80000110:	0ff57513          	zext.b	a0,a0
80000114:	efdff0ef          	jal	80000010 <check>
80000118:	00500593          	li	a1,5
8000011c:	00c10513          	add	a0,sp,12
80000120:	f01ff0ef          	jal	80000020 <getbit>
80000124:	eedff0ef          	jal	80000010 <check>
80000128:	00600593          	li	a1,6
8000012c:	00c10513          	add	a0,sp,12
80000130:	ef1ff0ef          	jal	80000020 <getbit>
80000134:	00154513          	xor	a0,a0,1
80000138:	0ff57513          	zext.b	a0,a0
8000013c:	ed5ff0ef          	jal	80000010 <check>
80000140:	00700593          	li	a1,7
80000144:	00c10513          	add	a0,sp,12
80000148:	ed9ff0ef          	jal	80000020 <getbit>
8000014c:	ec5ff0ef          	jal	80000010 <check>
80000150:	00c10513          	add	a0,sp,12
80000154:	00100613          	li	a2,1
80000158:	00800593          	li	a1,8
8000015c:	ee9ff0ef          	jal	80000044 <setbit>
80000160:	00c10513          	add	a0,sp,12
80000164:	00000613          	li	a2,0
80000168:	00900593          	li	a1,9
8000016c:	ed9ff0ef          	jal	80000044 <setbit>
80000170:	00c10513          	add	a0,sp,12
80000174:	00100613          	li	a2,1
80000178:	00a00593          	li	a1,10
8000017c:	ec9ff0ef          	jal	80000044 <setbit>
80000180:	00c10513          	add	a0,sp,12
80000184:	00000613          	li	a2,0
80000188:	00b00593          	li	a1,11
8000018c:	eb9ff0ef          	jal	80000044 <setbit>
80000190:	00c10513          	add	a0,sp,12
80000194:	00100613          	li	a2,1
80000198:	00c00593          	li	a1,12
8000019c:	ea9ff0ef          	jal	80000044 <setbit>
800001a0:	00c10513          	add	a0,sp,12
800001a4:	00000613          	li	a2,0
800001a8:	00d00593          	li	a1,13
800001ac:	e99ff0ef          	jal	80000044 <setbit>
800001b0:	00c10513          	add	a0,sp,12
800001b4:	00100613          	li	a2,1
800001b8:	00e00593          	li	a1,14
800001bc:	e89ff0ef          	jal	80000044 <setbit>
800001c0:	00c10513          	add	a0,sp,12
800001c4:	00000613          	li	a2,0
800001c8:	00f00593          	li	a1,15
800001cc:	e79ff0ef          	jal	80000044 <setbit>
800001d0:	00d14503          	lbu	a0,13(sp)
800001d4:	fab50513          	add	a0,a0,-85
800001d8:	00153513          	seqz	a0,a0
800001dc:	e35ff0ef          	jal	80000010 <check>
800001e0:	01c12083          	lw	ra,28(sp)
800001e4:	00000513          	li	a0,0
800001e8:	02010113          	add	sp,sp,32
800001ec:	00008067          	ret

800001f0 <putch>:
800001f0:	00008067          	ret

800001f4 <halt>:
800001f4:	00050513          	mv	a0,a0
800001f8:	00100073          	ebreak
800001fc:	0000006f          	j	800001fc <halt+0x8>

80000200 <call_main>:
80000200:	80000537          	lui	a0,0x80000
80000204:	ff010113          	add	sp,sp,-16
80000208:	22050513          	add	a0,a0,544 # 80000220 <_etext>
8000020c:	00112623          	sw	ra,12(sp)
80000210:	e91ff0ef          	jal	800000a0 <main>
80000214:	00050513          	mv	a0,a0
80000218:	00100073          	ebreak
8000021c:	0000006f          	j	8000021c <call_main+0x1c>
