
/home/xxa/Desktop/CECS-Lab/software/functest/build/mersenne-riscv32.elf:     file format elf32-littleriscv


Disassembly of section .text:

80000000 <_start>:
80000000:	00000413          	li	s0,0
80000004:	0000a117          	auipc	sp,0xa
80000008:	ffc10113          	add	sp,sp,-4 # 8000a000 <_end>
8000000c:	14c000ef          	jal	80000158 <call_main>

80000010 <check>:
80000010:	00050463          	beqz	a0,80000018 <check+0x8>
80000014:	00008067          	ret
80000018:	00100513          	li	a0,1
8000001c:	1300006f          	j	8000014c <halt>

80000020 <main>:
80000020:	fe010113          	add	sp,sp,-32
80000024:	00112e23          	sw	ra,28(sp)
80000028:	00812c23          	sw	s0,24(sp)
8000002c:	00912a23          	sw	s1,20(sp)
80000030:	01212823          	sw	s2,16(sp)
80000034:	01312623          	sw	s3,12(sp)
80000038:	01412423          	sw	s4,8(sp)
8000003c:	01512223          	sw	s5,4(sp)
80000040:	00500793          	li	a5,5
80000044:	3a100693          	li	a3,929
80000048:	00878713          	add	a4,a5,8
8000004c:	00678793          	add	a5,a5,6
80000050:	02f78633          	mul	a2,a5,a5
80000054:	02c6ce63          	blt	a3,a2,80000090 <main+0x70>
80000058:	00d78663          	beq	a5,a3,80000064 <main+0x44>
8000005c:	02e6e733          	rem	a4,a3,a4
80000060:	fe0714e3          	bnez	a4,80000048 <main+0x28>
80000064:	00100413          	li	s0,1
80000068:	01c12083          	lw	ra,28(sp)
8000006c:	00040513          	mv	a0,s0
80000070:	01812403          	lw	s0,24(sp)
80000074:	01412483          	lw	s1,20(sp)
80000078:	01012903          	lw	s2,16(sp)
8000007c:	00c12983          	lw	s3,12(sp)
80000080:	00812a03          	lw	s4,8(sp)
80000084:	00412a83          	lw	s5,4(sp)
80000088:	02010113          	add	sp,sp,32
8000008c:	00008067          	ret
80000090:	01600793          	li	a5,22
80000094:	3a100993          	li	s3,929
80000098:	fff78793          	add	a5,a5,-1
8000009c:	00199993          	sll	s3,s3,0x1
800000a0:	fe079ce3          	bnez	a5,80000098 <main+0x78>
800000a4:	74300493          	li	s1,1859
800000a8:	00000913          	li	s2,0
800000ac:	00100a93          	li	s5,1
800000b0:	00048a13          	mv	s4,s1
800000b4:	00098413          	mv	s0,s3
800000b8:	00100793          	li	a5,1
800000bc:	02f795b3          	mulh	a1,a5,a5
800000c0:	00048613          	mv	a2,s1
800000c4:	00090693          	mv	a3,s2
800000c8:	02f78533          	mul	a0,a5,a5
800000cc:	6ec000ef          	jal	800007b8 <__moddi3>
800000d0:	00050793          	mv	a5,a0
800000d4:	02044663          	bltz	s0,80000100 <main+0xe0>
800000d8:	06a4d463          	bge	s1,a0,80000140 <main+0x120>
800000dc:	409507b3          	sub	a5,a0,s1
800000e0:	02f795b3          	mulh	a1,a5,a5
800000e4:	00048613          	mv	a2,s1
800000e8:	00090693          	mv	a3,s2
800000ec:	00141413          	sll	s0,s0,0x1
800000f0:	02f78533          	mul	a0,a5,a5
800000f4:	6c4000ef          	jal	800007b8 <__moddi3>
800000f8:	00050793          	mv	a5,a0
800000fc:	fc045ee3          	bgez	s0,800000d8 <main+0xb8>
80000100:	00151793          	sll	a5,a0,0x1
80000104:	00141413          	sll	s0,s0,0x1
80000108:	00f4d463          	bge	s1,a5,80000110 <main+0xf0>
8000010c:	409787b3          	sub	a5,a5,s1
80000110:	fa0416e3          	bnez	s0,800000bc <main+0x9c>
80000114:	74248713          	add	a4,s1,1858
80000118:	009734b3          	sltu	s1,a4,s1
8000011c:	01248933          	add	s2,s1,s2
80000120:	00070493          	mv	s1,a4
80000124:	f95796e3          	bne	a5,s5,800000b0 <main+0x90>
80000128:	ffffd7b7          	lui	a5,0xffffd
8000012c:	d3178793          	add	a5,a5,-719 # ffffcd31 <_end+0x7fff2d31>
80000130:	00fa0533          	add	a0,s4,a5
80000134:	00153513          	seqz	a0,a0
80000138:	ed9ff0ef          	jal	80000010 <check>
8000013c:	f2dff06f          	j	80000068 <main+0x48>
80000140:	00141413          	sll	s0,s0,0x1
80000144:	f79ff06f          	j	800000bc <main+0x9c>

80000148 <putch>:
80000148:	00008067          	ret

8000014c <halt>:
8000014c:	00050513          	mv	a0,a0
80000150:	00100073          	ebreak
80000154:	0000006f          	j	80000154 <halt+0x8>

80000158 <call_main>:
80000158:	80001537          	lui	a0,0x80001
8000015c:	ff010113          	add	sp,sp,-16
80000160:	36c50513          	add	a0,a0,876 # 8000136c <_etext>
80000164:	00112623          	sw	ra,12(sp)
80000168:	eb9ff0ef          	jal	80000020 <main>
8000016c:	00050513          	mv	a0,a0
80000170:	00100073          	ebreak
80000174:	0000006f          	j	80000174 <call_main+0x1c>

80000178 <__divdi3>:
80000178:	fc010113          	add	sp,sp,-64
8000017c:	41f6d813          	sra	a6,a3,0x1f
80000180:	03212823          	sw	s2,48(sp)
80000184:	41f5d913          	sra	s2,a1,0x1f
80000188:	01254533          	xor	a0,a0,s2
8000018c:	01064633          	xor	a2,a2,a6
80000190:	0125c5b3          	xor	a1,a1,s2
80000194:	02912a23          	sw	s1,52(sp)
80000198:	03312623          	sw	s3,44(sp)
8000019c:	412504b3          	sub	s1,a0,s2
800001a0:	410609b3          	sub	s3,a2,a6
800001a4:	0106c6b3          	xor	a3,a3,a6
800001a8:	41258733          	sub	a4,a1,s2
800001ac:	03512223          	sw	s5,36(sp)
800001b0:	01712e23          	sw	s7,28(sp)
800001b4:	00953533          	sltu	a0,a0,s1
800001b8:	01363633          	sltu	a2,a2,s3
800001bc:	410686b3          	sub	a3,a3,a6
800001c0:	02112e23          	sw	ra,60(sp)
800001c4:	02812c23          	sw	s0,56(sp)
800001c8:	03412423          	sw	s4,40(sp)
800001cc:	03612023          	sw	s6,32(sp)
800001d0:	40a70bb3          	sub	s7,a4,a0
800001d4:	40c68ab3          	sub	s5,a3,a2
800001d8:	01094933          	xor	s2,s2,a6
800001dc:	04049a63          	bnez	s1,80000230 <__divdi3+0xb8>
800001e0:	00000a13          	li	s4,0
800001e4:	00099463          	bnez	s3,800001ec <__divdi3+0x74>
800001e8:	035bd4b3          	divu	s1,s7,s5
800001ec:	009944b3          	xor	s1,s2,s1
800001f0:	03c12083          	lw	ra,60(sp)
800001f4:	03812403          	lw	s0,56(sp)
800001f8:	41248533          	sub	a0,s1,s2
800001fc:	014945b3          	xor	a1,s2,s4
80000200:	00a4b4b3          	sltu	s1,s1,a0
80000204:	412585b3          	sub	a1,a1,s2
80000208:	02c12983          	lw	s3,44(sp)
8000020c:	03012903          	lw	s2,48(sp)
80000210:	02812a03          	lw	s4,40(sp)
80000214:	02412a83          	lw	s5,36(sp)
80000218:	02012b03          	lw	s6,32(sp)
8000021c:	01c12b83          	lw	s7,28(sp)
80000220:	409585b3          	sub	a1,a1,s1
80000224:	03412483          	lw	s1,52(sp)
80000228:	04010113          	add	sp,sp,64
8000022c:	00008067          	ret
80000230:	000b8a13          	mv	s4,s7
80000234:	00048413          	mv	s0,s1
80000238:	000a8b13          	mv	s6,s5
8000023c:	0e0a9063          	bnez	s5,8000031c <__divdi3+0x1a4>
80000240:	16098463          	beqz	s3,800003a8 <__divdi3+0x230>
80000244:	1c0b8663          	beqz	s7,80000410 <__divdi3+0x298>
80000248:	fff98793          	add	a5,s3,-1
8000024c:	0137f7b3          	and	a5,a5,s3
80000250:	00098513          	mv	a0,s3
80000254:	1c078263          	beqz	a5,80000418 <__divdi3+0x2a0>
80000258:	010010ef          	jal	80001268 <__clzsi2>
8000025c:	00050493          	mv	s1,a0
80000260:	00040513          	mv	a0,s0
80000264:	004010ef          	jal	80001268 <__clzsi2>
80000268:	40a48333          	sub	t1,s1,a0
8000026c:	01e00793          	li	a5,30
80000270:	1267ee63          	bltu	a5,t1,800003ac <__divdi3+0x234>
80000274:	00130313          	add	t1,t1,1
80000278:	02000793          	li	a5,32
8000027c:	406787b3          	sub	a5,a5,t1
80000280:	00f416b3          	sll	a3,s0,a5
80000284:	006bd733          	srl	a4,s7,t1
80000288:	00645833          	srl	a6,s0,t1
8000028c:	00fb97b3          	sll	a5,s7,a5
80000290:	00e6e433          	or	s0,a3,a4
80000294:	00000593          	li	a1,0
80000298:	01f45693          	srl	a3,s0,0x1f
8000029c:	00181713          	sll	a4,a6,0x1
800002a0:	00d76733          	or	a4,a4,a3
800002a4:	00141413          	sll	s0,s0,0x1
800002a8:	01f7d693          	srl	a3,a5,0x1f
800002ac:	40e98633          	sub	a2,s3,a4
800002b0:	00d46433          	or	s0,s0,a3
800002b4:	00c9b533          	sltu	a0,s3,a2
800002b8:	408a86b3          	sub	a3,s5,s0
800002bc:	00163613          	seqz	a2,a2
800002c0:	40a686b3          	sub	a3,a3,a0
800002c4:	40c686b3          	sub	a3,a3,a2
800002c8:	41f6d613          	sra	a2,a3,0x1f
800002cc:	00c9f833          	and	a6,s3,a2
800002d0:	41070833          	sub	a6,a4,a6
800002d4:	00caf633          	and	a2,s5,a2
800002d8:	01fb5893          	srl	a7,s6,0x1f
800002dc:	00179793          	sll	a5,a5,0x1
800002e0:	001b1b13          	sll	s6,s6,0x1
800002e4:	01073733          	sltu	a4,a4,a6
800002e8:	40c40433          	sub	s0,s0,a2
800002ec:	fff30313          	add	t1,t1,-1
800002f0:	00bb6b33          	or	s6,s6,a1
800002f4:	0117e7b3          	or	a5,a5,a7
800002f8:	01f6d593          	srl	a1,a3,0x1f
800002fc:	40e40433          	sub	s0,s0,a4
80000300:	f8031ce3          	bnez	t1,80000298 <__divdi3+0x120>
80000304:	01f7da13          	srl	s4,a5,0x1f
80000308:	001b1713          	sll	a4,s6,0x1
8000030c:	00179793          	sll	a5,a5,0x1
80000310:	00b7e4b3          	or	s1,a5,a1
80000314:	00ea6a33          	or	s4,s4,a4
80000318:	ed5ff06f          	j	800001ec <__divdi3+0x74>
8000031c:	04098a63          	beqz	s3,80000370 <__divdi3+0x1f8>
80000320:	00098513          	mv	a0,s3
80000324:	745000ef          	jal	80001268 <__clzsi2>
80000328:	00050493          	mv	s1,a0
8000032c:	00040513          	mv	a0,s0
80000330:	739000ef          	jal	80001268 <__clzsi2>
80000334:	40a48333          	sub	t1,s1,a0
80000338:	01f00793          	li	a5,31
8000033c:	0667e863          	bltu	a5,t1,800003ac <__divdi3+0x234>
80000340:	00130313          	add	t1,t1,1
80000344:	02000713          	li	a4,32
80000348:	000b8793          	mv	a5,s7
8000034c:	0ce30e63          	beq	t1,a4,80000428 <__divdi3+0x2b0>
80000350:	40670733          	sub	a4,a4,t1
80000354:	006bd6b3          	srl	a3,s7,t1
80000358:	00e41633          	sll	a2,s0,a4
8000035c:	00645833          	srl	a6,s0,t1
80000360:	00eb97b3          	sll	a5,s7,a4
80000364:	00d66433          	or	s0,a2,a3
80000368:	00000b13          	li	s6,0
8000036c:	f29ff06f          	j	80000294 <__divdi3+0x11c>
80000370:	fffa8793          	add	a5,s5,-1
80000374:	0157f7b3          	and	a5,a5,s5
80000378:	04079063          	bnez	a5,800003b8 <__divdi3+0x240>
8000037c:	00100793          	li	a5,1
80000380:	e6fa86e3          	beq	s5,a5,800001ec <__divdi3+0x74>
80000384:	000a8513          	mv	a0,s5
80000388:	771000ef          	jal	800012f8 <__ctzsi2>
8000038c:	02000793          	li	a5,32
80000390:	40a787b3          	sub	a5,a5,a0
80000394:	00f497b3          	sll	a5,s1,a5
80000398:	00abda33          	srl	s4,s7,a0
8000039c:	00a4d4b3          	srl	s1,s1,a0
800003a0:	0147ea33          	or	s4,a5,s4
800003a4:	e49ff06f          	j	800001ec <__divdi3+0x74>
800003a8:	00100073          	ebreak
800003ac:	00000493          	li	s1,0
800003b0:	00000a13          	li	s4,0
800003b4:	e39ff06f          	j	800001ec <__divdi3+0x74>
800003b8:	000a8513          	mv	a0,s5
800003bc:	01312623          	sw	s3,12(sp)
800003c0:	6a9000ef          	jal	80001268 <__clzsi2>
800003c4:	00050493          	mv	s1,a0
800003c8:	00040513          	mv	a0,s0
800003cc:	69d000ef          	jal	80001268 <__clzsi2>
800003d0:	40a48533          	sub	a0,s1,a0
800003d4:	02150313          	add	t1,a0,33
800003d8:	02000713          	li	a4,32
800003dc:	00c12803          	lw	a6,12(sp)
800003e0:	000b8793          	mv	a5,s7
800003e4:	00000b13          	li	s6,0
800003e8:	eae306e3          	beq	t1,a4,80000294 <__divdi3+0x11c>
800003ec:	01f00693          	li	a3,31
800003f0:	0466e263          	bltu	a3,t1,80000434 <__divdi3+0x2bc>
800003f4:	40670733          	sub	a4,a4,t1
800003f8:	00645833          	srl	a6,s0,t1
800003fc:	006bd6b3          	srl	a3,s7,t1
80000400:	00e41433          	sll	s0,s0,a4
80000404:	00d46433          	or	s0,s0,a3
80000408:	00eb97b3          	sll	a5,s7,a4
8000040c:	e89ff06f          	j	80000294 <__divdi3+0x11c>
80000410:	0334d4b3          	divu	s1,s1,s3
80000414:	dd9ff06f          	j	800001ec <__divdi3+0x74>
80000418:	6e1000ef          	jal	800012f8 <__ctzsi2>
8000041c:	00a4d4b3          	srl	s1,s1,a0
80000420:	00000a13          	li	s4,0
80000424:	dc9ff06f          	j	800001ec <__divdi3+0x74>
80000428:	00000813          	li	a6,0
8000042c:	00000b13          	li	s6,0
80000430:	e65ff06f          	j	80000294 <__divdi3+0x11c>
80000434:	04000713          	li	a4,64
80000438:	40670733          	sub	a4,a4,t1
8000043c:	00150513          	add	a0,a0,1
80000440:	00e41633          	sll	a2,s0,a4
80000444:	00abd6b3          	srl	a3,s7,a0
80000448:	00eb9b33          	sll	s6,s7,a4
8000044c:	00a45433          	srl	s0,s0,a0
80000450:	00d667b3          	or	a5,a2,a3
80000454:	e41ff06f          	j	80000294 <__divdi3+0x11c>

80000458 <__divmoddi4>:
80000458:	fb010113          	add	sp,sp,-80
8000045c:	03712623          	sw	s7,44(sp)
80000460:	03812423          	sw	s8,40(sp)
80000464:	00068b93          	mv	s7,a3
80000468:	41f5dc13          	sra	s8,a1,0x1f
8000046c:	41f6d693          	sra	a3,a3,0x1f
80000470:	03312e23          	sw	s3,60(sp)
80000474:	03412c23          	sw	s4,56(sp)
80000478:	00058993          	mv	s3,a1
8000047c:	00060a13          	mv	s4,a2
80000480:	018545b3          	xor	a1,a0,s8
80000484:	00d64633          	xor	a2,a2,a3
80000488:	04912223          	sw	s1,68(sp)
8000048c:	03512a23          	sw	s5,52(sp)
80000490:	418584b3          	sub	s1,a1,s8
80000494:	03912223          	sw	s9,36(sp)
80000498:	01b12e23          	sw	s11,28(sp)
8000049c:	00050a93          	mv	s5,a0
800004a0:	40d60cb3          	sub	s9,a2,a3
800004a4:	0189c533          	xor	a0,s3,s8
800004a8:	00dbcdb3          	xor	s11,s7,a3
800004ac:	41850533          	sub	a0,a0,s8
800004b0:	03612823          	sw	s6,48(sp)
800004b4:	0095b5b3          	sltu	a1,a1,s1
800004b8:	01963633          	sltu	a2,a2,s9
800004bc:	40dd8db3          	sub	s11,s11,a3
800004c0:	04112623          	sw	ra,76(sp)
800004c4:	04812423          	sw	s0,72(sp)
800004c8:	05212023          	sw	s2,64(sp)
800004cc:	03a12023          	sw	s10,32(sp)
800004d0:	40b505b3          	sub	a1,a0,a1
800004d4:	00070b13          	mv	s6,a4
800004d8:	40cd8db3          	sub	s11,s11,a2
800004dc:	00dc4c33          	xor	s8,s8,a3
800004e0:	08049a63          	bnez	s1,80000574 <__divmoddi4+0x11c>
800004e4:	00000913          	li	s2,0
800004e8:	000c9463          	bnez	s9,800004f0 <__divmoddi4+0x98>
800004ec:	03b5d4b3          	divu	s1,a1,s11
800004f0:	009c44b3          	xor	s1,s8,s1
800004f4:	41848533          	sub	a0,s1,s8
800004f8:	012c4933          	xor	s2,s8,s2
800004fc:	41890933          	sub	s2,s2,s8
80000500:	00a4b4b3          	sltu	s1,s1,a0
80000504:	409905b3          	sub	a1,s2,s1
80000508:	04c12083          	lw	ra,76(sp)
8000050c:	04812403          	lw	s0,72(sp)
80000510:	04412483          	lw	s1,68(sp)
80000514:	02812c03          	lw	s8,40(sp)
80000518:	02412c83          	lw	s9,36(sp)
8000051c:	02012d03          	lw	s10,32(sp)
80000520:	01c12d83          	lw	s11,28(sp)
80000524:	03458933          	mul	s2,a1,s4
80000528:	02ab86b3          	mul	a3,s7,a0
8000052c:	02c12b83          	lw	s7,44(sp)
80000530:	02aa07b3          	mul	a5,s4,a0
80000534:	012686b3          	add	a3,a3,s2
80000538:	04012903          	lw	s2,64(sp)
8000053c:	02aa3a33          	mulhu	s4,s4,a0
80000540:	40fa87b3          	sub	a5,s5,a5
80000544:	00fabab3          	sltu	s5,s5,a5
80000548:	00fb2023          	sw	a5,0(s6)
8000054c:	014686b3          	add	a3,a3,s4
80000550:	40d989b3          	sub	s3,s3,a3
80000554:	415989b3          	sub	s3,s3,s5
80000558:	013b2223          	sw	s3,4(s6)
8000055c:	03812a03          	lw	s4,56(sp)
80000560:	03c12983          	lw	s3,60(sp)
80000564:	03412a83          	lw	s5,52(sp)
80000568:	03012b03          	lw	s6,48(sp)
8000056c:	05010113          	add	sp,sp,80
80000570:	00008067          	ret
80000574:	00058913          	mv	s2,a1
80000578:	00048413          	mv	s0,s1
8000057c:	000d8d13          	mv	s10,s11
80000580:	0e0d9463          	bnez	s11,80000668 <__divmoddi4+0x210>
80000584:	160c8c63          	beqz	s9,800006fc <__divmoddi4+0x2a4>
80000588:	1e058263          	beqz	a1,8000076c <__divmoddi4+0x314>
8000058c:	fffc8793          	add	a5,s9,-1
80000590:	0197f7b3          	and	a5,a5,s9
80000594:	1e078063          	beqz	a5,80000774 <__divmoddi4+0x31c>
80000598:	000c8513          	mv	a0,s9
8000059c:	00b12423          	sw	a1,8(sp)
800005a0:	4c9000ef          	jal	80001268 <__clzsi2>
800005a4:	00050493          	mv	s1,a0
800005a8:	00040513          	mv	a0,s0
800005ac:	4bd000ef          	jal	80001268 <__clzsi2>
800005b0:	40a488b3          	sub	a7,s1,a0
800005b4:	01e00793          	li	a5,30
800005b8:	1517e463          	bltu	a5,a7,80000700 <__divmoddi4+0x2a8>
800005bc:	00812583          	lw	a1,8(sp)
800005c0:	00188893          	add	a7,a7,1
800005c4:	02000793          	li	a5,32
800005c8:	411787b3          	sub	a5,a5,a7
800005cc:	00f416b3          	sll	a3,s0,a5
800005d0:	0115d733          	srl	a4,a1,a7
800005d4:	01145633          	srl	a2,s0,a7
800005d8:	00f597b3          	sll	a5,a1,a5
800005dc:	00e6e433          	or	s0,a3,a4
800005e0:	00000593          	li	a1,0
800005e4:	00161613          	sll	a2,a2,0x1
800005e8:	01f45713          	srl	a4,s0,0x1f
800005ec:	00e66733          	or	a4,a2,a4
800005f0:	01f7d693          	srl	a3,a5,0x1f
800005f4:	00141413          	sll	s0,s0,0x1
800005f8:	00d46433          	or	s0,s0,a3
800005fc:	40ec86b3          	sub	a3,s9,a4
80000600:	00dcb633          	sltu	a2,s9,a3
80000604:	408d8833          	sub	a6,s11,s0
80000608:	40c80833          	sub	a6,a6,a2
8000060c:	0016b693          	seqz	a3,a3
80000610:	40d80833          	sub	a6,a6,a3
80000614:	41f85693          	sra	a3,a6,0x1f
80000618:	00dcf633          	and	a2,s9,a3
8000061c:	40c70633          	sub	a2,a4,a2
80000620:	00ddf6b3          	and	a3,s11,a3
80000624:	01fd5513          	srl	a0,s10,0x1f
80000628:	00179793          	sll	a5,a5,0x1
8000062c:	001d1d13          	sll	s10,s10,0x1
80000630:	00c73733          	sltu	a4,a4,a2
80000634:	40d40433          	sub	s0,s0,a3
80000638:	fff88893          	add	a7,a7,-1
8000063c:	00bd6d33          	or	s10,s10,a1
80000640:	00a7e7b3          	or	a5,a5,a0
80000644:	01f85593          	srl	a1,a6,0x1f
80000648:	40e40433          	sub	s0,s0,a4
8000064c:	f8089ce3          	bnez	a7,800005e4 <__divmoddi4+0x18c>
80000650:	01f7d913          	srl	s2,a5,0x1f
80000654:	001d1d13          	sll	s10,s10,0x1
80000658:	00179793          	sll	a5,a5,0x1
8000065c:	00b7e4b3          	or	s1,a5,a1
80000660:	01a96933          	or	s2,s2,s10
80000664:	e8dff06f          	j	800004f0 <__divmoddi4+0x98>
80000668:	040c8e63          	beqz	s9,800006c4 <__divmoddi4+0x26c>
8000066c:	000c8513          	mv	a0,s9
80000670:	00b12423          	sw	a1,8(sp)
80000674:	3f5000ef          	jal	80001268 <__clzsi2>
80000678:	00050493          	mv	s1,a0
8000067c:	00040513          	mv	a0,s0
80000680:	3e9000ef          	jal	80001268 <__clzsi2>
80000684:	40a488b3          	sub	a7,s1,a0
80000688:	01f00793          	li	a5,31
8000068c:	0717ea63          	bltu	a5,a7,80000700 <__divmoddi4+0x2a8>
80000690:	00812583          	lw	a1,8(sp)
80000694:	00188893          	add	a7,a7,1
80000698:	02000713          	li	a4,32
8000069c:	00058793          	mv	a5,a1
800006a0:	0ee88463          	beq	a7,a4,80000788 <__divmoddi4+0x330>
800006a4:	41170733          	sub	a4,a4,a7
800006a8:	0115d6b3          	srl	a3,a1,a7
800006ac:	00e415b3          	sll	a1,s0,a4
800006b0:	01145633          	srl	a2,s0,a7
800006b4:	00e797b3          	sll	a5,a5,a4
800006b8:	00d5e433          	or	s0,a1,a3
800006bc:	00000d13          	li	s10,0
800006c0:	f21ff06f          	j	800005e0 <__divmoddi4+0x188>
800006c4:	fffd8793          	add	a5,s11,-1
800006c8:	01b7f7b3          	and	a5,a5,s11
800006cc:	04079063          	bnez	a5,8000070c <__divmoddi4+0x2b4>
800006d0:	00100793          	li	a5,1
800006d4:	e0fd8ee3          	beq	s11,a5,800004f0 <__divmoddi4+0x98>
800006d8:	000d8513          	mv	a0,s11
800006dc:	41d000ef          	jal	800012f8 <__ctzsi2>
800006e0:	02000793          	li	a5,32
800006e4:	40a787b3          	sub	a5,a5,a0
800006e8:	00f497b3          	sll	a5,s1,a5
800006ec:	00a95933          	srl	s2,s2,a0
800006f0:	00a4d4b3          	srl	s1,s1,a0
800006f4:	0127e933          	or	s2,a5,s2
800006f8:	df9ff06f          	j	800004f0 <__divmoddi4+0x98>
800006fc:	00100073          	ebreak
80000700:	00000493          	li	s1,0
80000704:	00000913          	li	s2,0
80000708:	de9ff06f          	j	800004f0 <__divmoddi4+0x98>
8000070c:	000d8513          	mv	a0,s11
80000710:	00b12623          	sw	a1,12(sp)
80000714:	01912423          	sw	s9,8(sp)
80000718:	351000ef          	jal	80001268 <__clzsi2>
8000071c:	00050493          	mv	s1,a0
80000720:	00040513          	mv	a0,s0
80000724:	345000ef          	jal	80001268 <__clzsi2>
80000728:	00c12583          	lw	a1,12(sp)
8000072c:	40a48533          	sub	a0,s1,a0
80000730:	02150893          	add	a7,a0,33
80000734:	02000713          	li	a4,32
80000738:	00812603          	lw	a2,8(sp)
8000073c:	00058793          	mv	a5,a1
80000740:	00000d13          	li	s10,0
80000744:	e8e88ee3          	beq	a7,a4,800005e0 <__divmoddi4+0x188>
80000748:	01f00693          	li	a3,31
8000074c:	0516e463          	bltu	a3,a7,80000794 <__divmoddi4+0x33c>
80000750:	41170733          	sub	a4,a4,a7
80000754:	01145633          	srl	a2,s0,a7
80000758:	0115d6b3          	srl	a3,a1,a7
8000075c:	00e41433          	sll	s0,s0,a4
80000760:	00d46433          	or	s0,s0,a3
80000764:	00e597b3          	sll	a5,a1,a4
80000768:	e79ff06f          	j	800005e0 <__divmoddi4+0x188>
8000076c:	0394d4b3          	divu	s1,s1,s9
80000770:	d81ff06f          	j	800004f0 <__divmoddi4+0x98>
80000774:	000c8513          	mv	a0,s9
80000778:	381000ef          	jal	800012f8 <__ctzsi2>
8000077c:	00a4d4b3          	srl	s1,s1,a0
80000780:	00000913          	li	s2,0
80000784:	d6dff06f          	j	800004f0 <__divmoddi4+0x98>
80000788:	00000613          	li	a2,0
8000078c:	00000d13          	li	s10,0
80000790:	e51ff06f          	j	800005e0 <__divmoddi4+0x188>
80000794:	04000d13          	li	s10,64
80000798:	411d0d33          	sub	s10,s10,a7
8000079c:	00150513          	add	a0,a0,1
800007a0:	01a416b3          	sll	a3,s0,s10
800007a4:	00a5d733          	srl	a4,a1,a0
800007a8:	01a59d33          	sll	s10,a1,s10
800007ac:	00a45433          	srl	s0,s0,a0
800007b0:	00e6e7b3          	or	a5,a3,a4
800007b4:	e2dff06f          	j	800005e0 <__divmoddi4+0x188>

800007b8 <__moddi3>:
800007b8:	fc010113          	add	sp,sp,-64
800007bc:	03312623          	sw	s3,44(sp)
800007c0:	41f5d993          	sra	s3,a1,0x1f
800007c4:	41f6d793          	sra	a5,a3,0x1f
800007c8:	01354533          	xor	a0,a0,s3
800007cc:	00f64633          	xor	a2,a2,a5
800007d0:	02912a23          	sw	s1,52(sp)
800007d4:	03212823          	sw	s2,48(sp)
800007d8:	0135c4b3          	xor	s1,a1,s3
800007dc:	41350933          	sub	s2,a0,s3
800007e0:	03412423          	sw	s4,40(sp)
800007e4:	00f6c6b3          	xor	a3,a3,a5
800007e8:	40f60a33          	sub	s4,a2,a5
800007ec:	01253533          	sltu	a0,a0,s2
800007f0:	413484b3          	sub	s1,s1,s3
800007f4:	03512223          	sw	s5,36(sp)
800007f8:	01712e23          	sw	s7,28(sp)
800007fc:	01463633          	sltu	a2,a2,s4
80000800:	40f686b3          	sub	a3,a3,a5
80000804:	40a484b3          	sub	s1,s1,a0
80000808:	02112e23          	sw	ra,60(sp)
8000080c:	02812c23          	sw	s0,56(sp)
80000810:	03612023          	sw	s6,32(sp)
80000814:	01812c23          	sw	s8,24(sp)
80000818:	40c68ab3          	sub	s5,a3,a2
8000081c:	00048b93          	mv	s7,s1
80000820:	04091c63          	bnez	s2,80000878 <__moddi3+0xc0>
80000824:	180a0063          	beqz	s4,800009a4 <__moddi3+0x1ec>
80000828:	00048913          	mv	s2,s1
8000082c:	00000b93          	li	s7,0
80000830:	0129c933          	xor	s2,s3,s2
80000834:	03c12083          	lw	ra,60(sp)
80000838:	03812403          	lw	s0,56(sp)
8000083c:	41390533          	sub	a0,s2,s3
80000840:	0179c5b3          	xor	a1,s3,s7
80000844:	00a93933          	sltu	s2,s2,a0
80000848:	413585b3          	sub	a1,a1,s3
8000084c:	03412483          	lw	s1,52(sp)
80000850:	02c12983          	lw	s3,44(sp)
80000854:	02812a03          	lw	s4,40(sp)
80000858:	02412a83          	lw	s5,36(sp)
8000085c:	02012b03          	lw	s6,32(sp)
80000860:	01c12b83          	lw	s7,28(sp)
80000864:	01812c03          	lw	s8,24(sp)
80000868:	412585b3          	sub	a1,a1,s2
8000086c:	03012903          	lw	s2,48(sp)
80000870:	04010113          	add	sp,sp,64
80000874:	00008067          	ret
80000878:	00090413          	mv	s0,s2
8000087c:	000a8b13          	mv	s6,s5
80000880:	0c0a9a63          	bnez	s5,80000954 <__moddi3+0x19c>
80000884:	140a0263          	beqz	s4,800009c8 <__moddi3+0x210>
80000888:	18048c63          	beqz	s1,80000a20 <__moddi3+0x268>
8000088c:	fffa0793          	add	a5,s4,-1
80000890:	0147f733          	and	a4,a5,s4
80000894:	18070a63          	beqz	a4,80000a28 <__moddi3+0x270>
80000898:	000a0513          	mv	a0,s4
8000089c:	1cd000ef          	jal	80001268 <__clzsi2>
800008a0:	00050c13          	mv	s8,a0
800008a4:	00090513          	mv	a0,s2
800008a8:	1c1000ef          	jal	80001268 <__clzsi2>
800008ac:	40ac05b3          	sub	a1,s8,a0
800008b0:	01e00793          	li	a5,30
800008b4:	f6b7eee3          	bltu	a5,a1,80000830 <__moddi3+0x78>
800008b8:	00158593          	add	a1,a1,1
800008bc:	02000793          	li	a5,32
800008c0:	40b787b3          	sub	a5,a5,a1
800008c4:	00b4d6b3          	srl	a3,s1,a1
800008c8:	00f91633          	sll	a2,s2,a5
800008cc:	00b95733          	srl	a4,s2,a1
800008d0:	00f494b3          	sll	s1,s1,a5
800008d4:	00d66433          	or	s0,a2,a3
800008d8:	00000513          	li	a0,0
800008dc:	00171793          	sll	a5,a4,0x1
800008e0:	01f45713          	srl	a4,s0,0x1f
800008e4:	00e7e7b3          	or	a5,a5,a4
800008e8:	00141413          	sll	s0,s0,0x1
800008ec:	01f4d713          	srl	a4,s1,0x1f
800008f0:	00e46433          	or	s0,s0,a4
800008f4:	40fa0733          	sub	a4,s4,a5
800008f8:	00ea3633          	sltu	a2,s4,a4
800008fc:	408a86b3          	sub	a3,s5,s0
80000900:	40c686b3          	sub	a3,a3,a2
80000904:	00173713          	seqz	a4,a4
80000908:	40e686b3          	sub	a3,a3,a4
8000090c:	41f6d613          	sra	a2,a3,0x1f
80000910:	00ca7733          	and	a4,s4,a2
80000914:	40e78733          	sub	a4,a5,a4
80000918:	00caf633          	and	a2,s5,a2
8000091c:	01fb5813          	srl	a6,s6,0x1f
80000920:	00149493          	sll	s1,s1,0x1
80000924:	001b1b13          	sll	s6,s6,0x1
80000928:	00e7b7b3          	sltu	a5,a5,a4
8000092c:	40c40433          	sub	s0,s0,a2
80000930:	fff58593          	add	a1,a1,-1
80000934:	00ab6b33          	or	s6,s6,a0
80000938:	0104e4b3          	or	s1,s1,a6
8000093c:	01f6d513          	srl	a0,a3,0x1f
80000940:	40f40433          	sub	s0,s0,a5
80000944:	f8059ce3          	bnez	a1,800008dc <__moddi3+0x124>
80000948:	00070913          	mv	s2,a4
8000094c:	00040b93          	mv	s7,s0
80000950:	ee1ff06f          	j	80000830 <__moddi3+0x78>
80000954:	040a0e63          	beqz	s4,800009b0 <__moddi3+0x1f8>
80000958:	000a0513          	mv	a0,s4
8000095c:	10d000ef          	jal	80001268 <__clzsi2>
80000960:	00050b13          	mv	s6,a0
80000964:	00090513          	mv	a0,s2
80000968:	101000ef          	jal	80001268 <__clzsi2>
8000096c:	40ab05b3          	sub	a1,s6,a0
80000970:	01f00793          	li	a5,31
80000974:	eab7eee3          	bltu	a5,a1,80000830 <__moddi3+0x78>
80000978:	00158593          	add	a1,a1,1
8000097c:	02000793          	li	a5,32
80000980:	0af58863          	beq	a1,a5,80000a30 <__moddi3+0x278>
80000984:	40b787b3          	sub	a5,a5,a1
80000988:	00b4d6b3          	srl	a3,s1,a1
8000098c:	00f91633          	sll	a2,s2,a5
80000990:	00b95733          	srl	a4,s2,a1
80000994:	00f494b3          	sll	s1,s1,a5
80000998:	00d66433          	or	s0,a2,a3
8000099c:	00000b13          	li	s6,0
800009a0:	f39ff06f          	j	800008d8 <__moddi3+0x120>
800009a4:	0354f933          	remu	s2,s1,s5
800009a8:	00000b93          	li	s7,0
800009ac:	e85ff06f          	j	80000830 <__moddi3+0x78>
800009b0:	fffa8913          	add	s2,s5,-1
800009b4:	012af7b3          	and	a5,s5,s2
800009b8:	00079a63          	bnez	a5,800009cc <__moddi3+0x214>
800009bc:	00997933          	and	s2,s2,s1
800009c0:	00000b93          	li	s7,0
800009c4:	e6dff06f          	j	80000830 <__moddi3+0x78>
800009c8:	00100073          	ebreak
800009cc:	000a8513          	mv	a0,s5
800009d0:	01412623          	sw	s4,12(sp)
800009d4:	095000ef          	jal	80001268 <__clzsi2>
800009d8:	00050913          	mv	s2,a0
800009dc:	00040513          	mv	a0,s0
800009e0:	089000ef          	jal	80001268 <__clzsi2>
800009e4:	40a90533          	sub	a0,s2,a0
800009e8:	02150593          	add	a1,a0,33
800009ec:	02000793          	li	a5,32
800009f0:	00c12703          	lw	a4,12(sp)
800009f4:	00000b13          	li	s6,0
800009f8:	eef580e3          	beq	a1,a5,800008d8 <__moddi3+0x120>
800009fc:	01f00693          	li	a3,31
80000a00:	02b6ee63          	bltu	a3,a1,80000a3c <__moddi3+0x284>
80000a04:	40b787b3          	sub	a5,a5,a1
80000a08:	00b4d6b3          	srl	a3,s1,a1
80000a0c:	00b45733          	srl	a4,s0,a1
80000a10:	00f41433          	sll	s0,s0,a5
80000a14:	00d46433          	or	s0,s0,a3
80000a18:	00f494b3          	sll	s1,s1,a5
80000a1c:	ebdff06f          	j	800008d8 <__moddi3+0x120>
80000a20:	03497933          	remu	s2,s2,s4
80000a24:	e0dff06f          	j	80000830 <__moddi3+0x78>
80000a28:	00f97933          	and	s2,s2,a5
80000a2c:	e05ff06f          	j	80000830 <__moddi3+0x78>
80000a30:	00000713          	li	a4,0
80000a34:	00000b13          	li	s6,0
80000a38:	ea1ff06f          	j	800008d8 <__moddi3+0x120>
80000a3c:	04000b13          	li	s6,64
80000a40:	40bb0b33          	sub	s6,s6,a1
80000a44:	00150513          	add	a0,a0,1
80000a48:	016416b3          	sll	a3,s0,s6
80000a4c:	00a4d7b3          	srl	a5,s1,a0
80000a50:	01649b33          	sll	s6,s1,s6
80000a54:	00a45433          	srl	s0,s0,a0
80000a58:	00f6e4b3          	or	s1,a3,a5
80000a5c:	e7dff06f          	j	800008d8 <__moddi3+0x120>

80000a60 <__udivdi3>:
80000a60:	fd010113          	add	sp,sp,-48
80000a64:	02912223          	sw	s1,36(sp)
80000a68:	03212023          	sw	s2,32(sp)
80000a6c:	01512a23          	sw	s5,20(sp)
80000a70:	02112623          	sw	ra,44(sp)
80000a74:	02812423          	sw	s0,40(sp)
80000a78:	01312e23          	sw	s3,28(sp)
80000a7c:	01412c23          	sw	s4,24(sp)
80000a80:	00060493          	mv	s1,a2
80000a84:	00058a93          	mv	s5,a1
80000a88:	00068913          	mv	s2,a3
80000a8c:	02051a63          	bnez	a0,80000ac0 <__udivdi3+0x60>
80000a90:	10060e63          	beqz	a2,80000bac <__udivdi3+0x14c>
80000a94:	00000513          	li	a0,0
80000a98:	00000593          	li	a1,0
80000a9c:	02c12083          	lw	ra,44(sp)
80000aa0:	02812403          	lw	s0,40(sp)
80000aa4:	02412483          	lw	s1,36(sp)
80000aa8:	02012903          	lw	s2,32(sp)
80000aac:	01c12983          	lw	s3,28(sp)
80000ab0:	01812a03          	lw	s4,24(sp)
80000ab4:	01412a83          	lw	s5,20(sp)
80000ab8:	03010113          	add	sp,sp,48
80000abc:	00008067          	ret
80000ac0:	00050a13          	mv	s4,a0
80000ac4:	00050413          	mv	s0,a0
80000ac8:	00068993          	mv	s3,a3
80000acc:	0e069663          	bnez	a3,80000bb8 <__udivdi3+0x158>
80000ad0:	16060a63          	beqz	a2,80000c44 <__udivdi3+0x1e4>
80000ad4:	1c058663          	beqz	a1,80000ca0 <__udivdi3+0x240>
80000ad8:	fff60793          	add	a5,a2,-1
80000adc:	00c7f7b3          	and	a5,a5,a2
80000ae0:	00060513          	mv	a0,a2
80000ae4:	1c078463          	beqz	a5,80000cac <__udivdi3+0x24c>
80000ae8:	780000ef          	jal	80001268 <__clzsi2>
80000aec:	00050a13          	mv	s4,a0
80000af0:	00040513          	mv	a0,s0
80000af4:	774000ef          	jal	80001268 <__clzsi2>
80000af8:	40aa0333          	sub	t1,s4,a0
80000afc:	01e00793          	li	a5,30
80000b00:	f867eae3          	bltu	a5,t1,80000a94 <__udivdi3+0x34>
80000b04:	00130313          	add	t1,t1,1
80000b08:	02000693          	li	a3,32
80000b0c:	406686b3          	sub	a3,a3,t1
80000b10:	00d41733          	sll	a4,s0,a3
80000b14:	006ad7b3          	srl	a5,s5,t1
80000b18:	006458b3          	srl	a7,s0,t1
80000b1c:	00da96b3          	sll	a3,s5,a3
80000b20:	00f76433          	or	s0,a4,a5
80000b24:	00000613          	li	a2,0
80000b28:	01f45713          	srl	a4,s0,0x1f
80000b2c:	00189793          	sll	a5,a7,0x1
80000b30:	00e7e7b3          	or	a5,a5,a4
80000b34:	00141413          	sll	s0,s0,0x1
80000b38:	01f6d713          	srl	a4,a3,0x1f
80000b3c:	40f48833          	sub	a6,s1,a5
80000b40:	00e46433          	or	s0,s0,a4
80000b44:	0104b5b3          	sltu	a1,s1,a6
80000b48:	40890733          	sub	a4,s2,s0
80000b4c:	40b70733          	sub	a4,a4,a1
80000b50:	00183813          	seqz	a6,a6
80000b54:	41070733          	sub	a4,a4,a6
80000b58:	41f75813          	sra	a6,a4,0x1f
80000b5c:	009878b3          	and	a7,a6,s1
80000b60:	411788b3          	sub	a7,a5,a7
80000b64:	01287833          	and	a6,a6,s2
80000b68:	01f9d593          	srl	a1,s3,0x1f
80000b6c:	00169693          	sll	a3,a3,0x1
80000b70:	00199993          	sll	s3,s3,0x1
80000b74:	0117b7b3          	sltu	a5,a5,a7
80000b78:	41040433          	sub	s0,s0,a6
80000b7c:	fff30313          	add	t1,t1,-1
80000b80:	00c9e9b3          	or	s3,s3,a2
80000b84:	00b6e6b3          	or	a3,a3,a1
80000b88:	01f75613          	srl	a2,a4,0x1f
80000b8c:	40f40433          	sub	s0,s0,a5
80000b90:	f8031ce3          	bnez	t1,80000b28 <__udivdi3+0xc8>
80000b94:	01f6d593          	srl	a1,a3,0x1f
80000b98:	00199793          	sll	a5,s3,0x1
80000b9c:	00169693          	sll	a3,a3,0x1
80000ba0:	00c6e533          	or	a0,a3,a2
80000ba4:	00f5e5b3          	or	a1,a1,a5
80000ba8:	ef5ff06f          	j	80000a9c <__udivdi3+0x3c>
80000bac:	02d5d533          	divu	a0,a1,a3
80000bb0:	00000593          	li	a1,0
80000bb4:	ee9ff06f          	j	80000a9c <__udivdi3+0x3c>
80000bb8:	04060a63          	beqz	a2,80000c0c <__udivdi3+0x1ac>
80000bbc:	00060513          	mv	a0,a2
80000bc0:	6a8000ef          	jal	80001268 <__clzsi2>
80000bc4:	00050993          	mv	s3,a0
80000bc8:	000a0513          	mv	a0,s4
80000bcc:	69c000ef          	jal	80001268 <__clzsi2>
80000bd0:	40a98333          	sub	t1,s3,a0
80000bd4:	01f00793          	li	a5,31
80000bd8:	ea67eee3          	bltu	a5,t1,80000a94 <__udivdi3+0x34>
80000bdc:	00130313          	add	t1,t1,1
80000be0:	02000793          	li	a5,32
80000be4:	000a8693          	mv	a3,s5
80000be8:	0cf30a63          	beq	t1,a5,80000cbc <__udivdi3+0x25c>
80000bec:	406787b3          	sub	a5,a5,t1
80000bf0:	006ad733          	srl	a4,s5,t1
80000bf4:	00fa1633          	sll	a2,s4,a5
80000bf8:	006a58b3          	srl	a7,s4,t1
80000bfc:	00fa96b3          	sll	a3,s5,a5
80000c00:	00e66433          	or	s0,a2,a4
80000c04:	00000993          	li	s3,0
80000c08:	f1dff06f          	j	80000b24 <__udivdi3+0xc4>
80000c0c:	fff68793          	add	a5,a3,-1
80000c10:	00d7f7b3          	and	a5,a5,a3
80000c14:	02079a63          	bnez	a5,80000c48 <__udivdi3+0x1e8>
80000c18:	00100793          	li	a5,1
80000c1c:	e8f680e3          	beq	a3,a5,80000a9c <__udivdi3+0x3c>
80000c20:	00068513          	mv	a0,a3
80000c24:	6d4000ef          	jal	800012f8 <__ctzsi2>
80000c28:	02000713          	li	a4,32
80000c2c:	40a70733          	sub	a4,a4,a0
80000c30:	00aad5b3          	srl	a1,s5,a0
80000c34:	00ea1733          	sll	a4,s4,a4
80000c38:	00aa5533          	srl	a0,s4,a0
80000c3c:	00b765b3          	or	a1,a4,a1
80000c40:	e5dff06f          	j	80000a9c <__udivdi3+0x3c>
80000c44:	00100073          	ebreak
80000c48:	00068513          	mv	a0,a3
80000c4c:	00c12623          	sw	a2,12(sp)
80000c50:	618000ef          	jal	80001268 <__clzsi2>
80000c54:	00050993          	mv	s3,a0
80000c58:	000a0513          	mv	a0,s4
80000c5c:	60c000ef          	jal	80001268 <__clzsi2>
80000c60:	40a98533          	sub	a0,s3,a0
80000c64:	02150313          	add	t1,a0,33
80000c68:	02000793          	li	a5,32
80000c6c:	00c12883          	lw	a7,12(sp)
80000c70:	000a8693          	mv	a3,s5
80000c74:	00000993          	li	s3,0
80000c78:	eaf306e3          	beq	t1,a5,80000b24 <__udivdi3+0xc4>
80000c7c:	01f00713          	li	a4,31
80000c80:	04676463          	bltu	a4,t1,80000cc8 <__udivdi3+0x268>
80000c84:	406787b3          	sub	a5,a5,t1
80000c88:	006ad733          	srl	a4,s5,t1
80000c8c:	00fa1433          	sll	s0,s4,a5
80000c90:	006a58b3          	srl	a7,s4,t1
80000c94:	00e46433          	or	s0,s0,a4
80000c98:	00fa96b3          	sll	a3,s5,a5
80000c9c:	e89ff06f          	j	80000b24 <__udivdi3+0xc4>
80000ca0:	02c55533          	divu	a0,a0,a2
80000ca4:	00000593          	li	a1,0
80000ca8:	df5ff06f          	j	80000a9c <__udivdi3+0x3c>
80000cac:	64c000ef          	jal	800012f8 <__ctzsi2>
80000cb0:	00aa5533          	srl	a0,s4,a0
80000cb4:	00000593          	li	a1,0
80000cb8:	de5ff06f          	j	80000a9c <__udivdi3+0x3c>
80000cbc:	00000893          	li	a7,0
80000cc0:	00000993          	li	s3,0
80000cc4:	e61ff06f          	j	80000b24 <__udivdi3+0xc4>
80000cc8:	04000793          	li	a5,64
80000ccc:	406787b3          	sub	a5,a5,t1
80000cd0:	00150513          	add	a0,a0,1
80000cd4:	00fa1633          	sll	a2,s4,a5
80000cd8:	00aad733          	srl	a4,s5,a0
80000cdc:	00fa99b3          	sll	s3,s5,a5
80000ce0:	00aa5433          	srl	s0,s4,a0
80000ce4:	00e666b3          	or	a3,a2,a4
80000ce8:	e3dff06f          	j	80000b24 <__udivdi3+0xc4>

80000cec <__umoddi3>:
80000cec:	fd010113          	add	sp,sp,-48
80000cf0:	02912223          	sw	s1,36(sp)
80000cf4:	01412c23          	sw	s4,24(sp)
80000cf8:	02112623          	sw	ra,44(sp)
80000cfc:	02812423          	sw	s0,40(sp)
80000d00:	03212023          	sw	s2,32(sp)
80000d04:	01312e23          	sw	s3,28(sp)
80000d08:	01612a23          	sw	s6,20(sp)
80000d0c:	00060493          	mv	s1,a2
80000d10:	00068a13          	mv	s4,a3
80000d14:	02051a63          	bnez	a0,80000d48 <__umoddi3+0x5c>
80000d18:	16060c63          	beqz	a2,80000e90 <__umoddi3+0x1a4>
80000d1c:	00058513          	mv	a0,a1
80000d20:	00000593          	li	a1,0
80000d24:	02c12083          	lw	ra,44(sp)
80000d28:	02812403          	lw	s0,40(sp)
80000d2c:	02412483          	lw	s1,36(sp)
80000d30:	02012903          	lw	s2,32(sp)
80000d34:	01c12983          	lw	s3,28(sp)
80000d38:	01812a03          	lw	s4,24(sp)
80000d3c:	01412b03          	lw	s6,20(sp)
80000d40:	03010113          	add	sp,sp,48
80000d44:	00008067          	ret
80000d48:	00050913          	mv	s2,a0
80000d4c:	00050413          	mv	s0,a0
80000d50:	00068993          	mv	s3,a3
80000d54:	0e069063          	bnez	a3,80000e34 <__umoddi3+0x148>
80000d58:	16060063          	beqz	a2,80000eb8 <__umoddi3+0x1cc>
80000d5c:	1a058e63          	beqz	a1,80000f18 <__umoddi3+0x22c>
80000d60:	fff60793          	add	a5,a2,-1
80000d64:	00c7f733          	and	a4,a5,a2
80000d68:	00f57533          	and	a0,a0,a5
80000d6c:	fa070ce3          	beqz	a4,80000d24 <__umoddi3+0x38>
80000d70:	00060513          	mv	a0,a2
80000d74:	00b12623          	sw	a1,12(sp)
80000d78:	4f0000ef          	jal	80001268 <__clzsi2>
80000d7c:	00050b13          	mv	s6,a0
80000d80:	00090513          	mv	a0,s2
80000d84:	4e4000ef          	jal	80001268 <__clzsi2>
80000d88:	40ab06b3          	sub	a3,s6,a0
80000d8c:	01e00793          	li	a5,30
80000d90:	00c12583          	lw	a1,12(sp)
80000d94:	12d7e463          	bltu	a5,a3,80000ebc <__umoddi3+0x1d0>
80000d98:	00168693          	add	a3,a3,1
80000d9c:	02000913          	li	s2,32
80000da0:	40d90933          	sub	s2,s2,a3
80000da4:	01241733          	sll	a4,s0,s2
80000da8:	00d5d7b3          	srl	a5,a1,a3
80000dac:	00d45833          	srl	a6,s0,a3
80000db0:	01259933          	sll	s2,a1,s2
80000db4:	00f76433          	or	s0,a4,a5
80000db8:	00000893          	li	a7,0
80000dbc:	01f45713          	srl	a4,s0,0x1f
80000dc0:	00181793          	sll	a5,a6,0x1
80000dc4:	00e7e7b3          	or	a5,a5,a4
80000dc8:	00141413          	sll	s0,s0,0x1
80000dcc:	01f95713          	srl	a4,s2,0x1f
80000dd0:	40f48633          	sub	a2,s1,a5
80000dd4:	00e46433          	or	s0,s0,a4
80000dd8:	00c4b5b3          	sltu	a1,s1,a2
80000ddc:	408a0733          	sub	a4,s4,s0
80000de0:	40b70733          	sub	a4,a4,a1
80000de4:	00163613          	seqz	a2,a2
80000de8:	40c70733          	sub	a4,a4,a2
80000dec:	41f75613          	sra	a2,a4,0x1f
80000df0:	00967833          	and	a6,a2,s1
80000df4:	41078833          	sub	a6,a5,a6
80000df8:	01467633          	and	a2,a2,s4
80000dfc:	40c40433          	sub	s0,s0,a2
80000e00:	0107b7b3          	sltu	a5,a5,a6
80000e04:	01f9d613          	srl	a2,s3,0x1f
80000e08:	00191913          	sll	s2,s2,0x1
80000e0c:	00199993          	sll	s3,s3,0x1
80000e10:	40f40433          	sub	s0,s0,a5
80000e14:	fff68693          	add	a3,a3,-1
80000e18:	0119e9b3          	or	s3,s3,a7
80000e1c:	00c96933          	or	s2,s2,a2
80000e20:	01f75893          	srl	a7,a4,0x1f
80000e24:	00080513          	mv	a0,a6
80000e28:	00040593          	mv	a1,s0
80000e2c:	f80698e3          	bnez	a3,80000dbc <__umoddi3+0xd0>
80000e30:	ef5ff06f          	j	80000d24 <__umoddi3+0x38>
80000e34:	06060463          	beqz	a2,80000e9c <__umoddi3+0x1b0>
80000e38:	00060513          	mv	a0,a2
80000e3c:	00b12623          	sw	a1,12(sp)
80000e40:	428000ef          	jal	80001268 <__clzsi2>
80000e44:	00050993          	mv	s3,a0
80000e48:	00090513          	mv	a0,s2
80000e4c:	41c000ef          	jal	80001268 <__clzsi2>
80000e50:	40a986b3          	sub	a3,s3,a0
80000e54:	01f00793          	li	a5,31
80000e58:	00c12583          	lw	a1,12(sp)
80000e5c:	06d7e063          	bltu	a5,a3,80000ebc <__umoddi3+0x1d0>
80000e60:	00168693          	add	a3,a3,1
80000e64:	02000793          	li	a5,32
80000e68:	00058913          	mv	s2,a1
80000e6c:	0af68a63          	beq	a3,a5,80000f20 <__umoddi3+0x234>
80000e70:	40d787b3          	sub	a5,a5,a3
80000e74:	00d5d733          	srl	a4,a1,a3
80000e78:	00f41633          	sll	a2,s0,a5
80000e7c:	00d45833          	srl	a6,s0,a3
80000e80:	00f59933          	sll	s2,a1,a5
80000e84:	00e66433          	or	s0,a2,a4
80000e88:	00000993          	li	s3,0
80000e8c:	f2dff06f          	j	80000db8 <__umoddi3+0xcc>
80000e90:	02d5f533          	remu	a0,a1,a3
80000e94:	00000593          	li	a1,0
80000e98:	e8dff06f          	j	80000d24 <__umoddi3+0x38>
80000e9c:	fff68513          	add	a0,a3,-1
80000ea0:	00a6f7b3          	and	a5,a3,a0
80000ea4:	00058913          	mv	s2,a1
80000ea8:	00079e63          	bnez	a5,80000ec4 <__umoddi3+0x1d8>
80000eac:	00b57533          	and	a0,a0,a1
80000eb0:	00000593          	li	a1,0
80000eb4:	e71ff06f          	j	80000d24 <__umoddi3+0x38>
80000eb8:	00100073          	ebreak
80000ebc:	00090513          	mv	a0,s2
80000ec0:	e65ff06f          	j	80000d24 <__umoddi3+0x38>
80000ec4:	00068513          	mv	a0,a3
80000ec8:	00c12623          	sw	a2,12(sp)
80000ecc:	39c000ef          	jal	80001268 <__clzsi2>
80000ed0:	00050993          	mv	s3,a0
80000ed4:	00040513          	mv	a0,s0
80000ed8:	390000ef          	jal	80001268 <__clzsi2>
80000edc:	40a98533          	sub	a0,s3,a0
80000ee0:	02150693          	add	a3,a0,33
80000ee4:	02000793          	li	a5,32
80000ee8:	00c12803          	lw	a6,12(sp)
80000eec:	00000993          	li	s3,0
80000ef0:	ecf684e3          	beq	a3,a5,80000db8 <__umoddi3+0xcc>
80000ef4:	01f00713          	li	a4,31
80000ef8:	02d76a63          	bltu	a4,a3,80000f2c <__umoddi3+0x240>
80000efc:	40d787b3          	sub	a5,a5,a3
80000f00:	00d95733          	srl	a4,s2,a3
80000f04:	00d45833          	srl	a6,s0,a3
80000f08:	00f41433          	sll	s0,s0,a5
80000f0c:	00e46433          	or	s0,s0,a4
80000f10:	00f91933          	sll	s2,s2,a5
80000f14:	ea5ff06f          	j	80000db8 <__umoddi3+0xcc>
80000f18:	02c57533          	remu	a0,a0,a2
80000f1c:	e09ff06f          	j	80000d24 <__umoddi3+0x38>
80000f20:	00000813          	li	a6,0
80000f24:	00000993          	li	s3,0
80000f28:	e91ff06f          	j	80000db8 <__umoddi3+0xcc>
80000f2c:	04000993          	li	s3,64
80000f30:	40d989b3          	sub	s3,s3,a3
80000f34:	00150513          	add	a0,a0,1
80000f38:	01341733          	sll	a4,s0,s3
80000f3c:	00a957b3          	srl	a5,s2,a0
80000f40:	013919b3          	sll	s3,s2,s3
80000f44:	00a45433          	srl	s0,s0,a0
80000f48:	00f76933          	or	s2,a4,a5
80000f4c:	e6dff06f          	j	80000db8 <__umoddi3+0xcc>

80000f50 <__udivmoddi4>:
80000f50:	fc010113          	add	sp,sp,-64
80000f54:	02912a23          	sw	s1,52(sp)
80000f58:	03212823          	sw	s2,48(sp)
80000f5c:	03412423          	sw	s4,40(sp)
80000f60:	03512223          	sw	s5,36(sp)
80000f64:	02112e23          	sw	ra,60(sp)
80000f68:	02812c23          	sw	s0,56(sp)
80000f6c:	03312623          	sw	s3,44(sp)
80000f70:	03612023          	sw	s6,32(sp)
80000f74:	01712e23          	sw	s7,28(sp)
80000f78:	00060493          	mv	s1,a2
80000f7c:	00058a13          	mv	s4,a1
80000f80:	00068913          	mv	s2,a3
80000f84:	00070a93          	mv	s5,a4
80000f88:	04051663          	bnez	a0,80000fd4 <__udivmoddi4+0x84>
80000f8c:	18061a63          	bnez	a2,80001120 <__udivmoddi4+0x1d0>
80000f90:	00070863          	beqz	a4,80000fa0 <__udivmoddi4+0x50>
80000f94:	02d5f7b3          	remu	a5,a1,a3
80000f98:	00072223          	sw	zero,4(a4)
80000f9c:	00f72023          	sw	a5,0(a4)
80000fa0:	032a5533          	divu	a0,s4,s2
80000fa4:	00000593          	li	a1,0
80000fa8:	03c12083          	lw	ra,60(sp)
80000fac:	03812403          	lw	s0,56(sp)
80000fb0:	03412483          	lw	s1,52(sp)
80000fb4:	03012903          	lw	s2,48(sp)
80000fb8:	02c12983          	lw	s3,44(sp)
80000fbc:	02812a03          	lw	s4,40(sp)
80000fc0:	02412a83          	lw	s5,36(sp)
80000fc4:	02012b03          	lw	s6,32(sp)
80000fc8:	01c12b83          	lw	s7,28(sp)
80000fcc:	04010113          	add	sp,sp,64
80000fd0:	00008067          	ret
80000fd4:	00050b13          	mv	s6,a0
80000fd8:	00050413          	mv	s0,a0
80000fdc:	00068993          	mv	s3,a3
80000fe0:	0e069663          	bnez	a3,800010cc <__udivmoddi4+0x17c>
80000fe4:	18060e63          	beqz	a2,80001180 <__udivmoddi4+0x230>
80000fe8:	20058263          	beqz	a1,800011ec <__udivmoddi4+0x29c>
80000fec:	fff60793          	add	a5,a2,-1
80000ff0:	00c7f733          	and	a4,a5,a2
80000ff4:	22070063          	beqz	a4,80001214 <__udivmoddi4+0x2c4>
80000ff8:	00060513          	mv	a0,a2
80000ffc:	26c000ef          	jal	80001268 <__clzsi2>
80001000:	00050b93          	mv	s7,a0
80001004:	000b0513          	mv	a0,s6
80001008:	260000ef          	jal	80001268 <__clzsi2>
8000100c:	40ab88b3          	sub	a7,s7,a0
80001010:	01e00793          	li	a5,30
80001014:	1717e863          	bltu	a5,a7,80001184 <__udivmoddi4+0x234>
80001018:	00188893          	add	a7,a7,1
8000101c:	02000693          	li	a3,32
80001020:	411686b3          	sub	a3,a3,a7
80001024:	00db1733          	sll	a4,s6,a3
80001028:	011a57b3          	srl	a5,s4,a7
8000102c:	011b55b3          	srl	a1,s6,a7
80001030:	00da16b3          	sll	a3,s4,a3
80001034:	00f76433          	or	s0,a4,a5
80001038:	00000713          	li	a4,0
8000103c:	01f45613          	srl	a2,s0,0x1f
80001040:	00159793          	sll	a5,a1,0x1
80001044:	00c7e7b3          	or	a5,a5,a2
80001048:	00141413          	sll	s0,s0,0x1
8000104c:	01f6d613          	srl	a2,a3,0x1f
80001050:	00c46433          	or	s0,s0,a2
80001054:	40f48633          	sub	a2,s1,a5
80001058:	00c4b5b3          	sltu	a1,s1,a2
8000105c:	40890833          	sub	a6,s2,s0
80001060:	40b80833          	sub	a6,a6,a1
80001064:	00163613          	seqz	a2,a2
80001068:	40c80833          	sub	a6,a6,a2
8000106c:	41f85613          	sra	a2,a6,0x1f
80001070:	009675b3          	and	a1,a2,s1
80001074:	40b785b3          	sub	a1,a5,a1
80001078:	01267633          	and	a2,a2,s2
8000107c:	01f9d513          	srl	a0,s3,0x1f
80001080:	00169693          	sll	a3,a3,0x1
80001084:	00199993          	sll	s3,s3,0x1
80001088:	00b7b7b3          	sltu	a5,a5,a1
8000108c:	40c40433          	sub	s0,s0,a2
80001090:	fff88893          	add	a7,a7,-1
80001094:	00e9e9b3          	or	s3,s3,a4
80001098:	00a6e6b3          	or	a3,a3,a0
8000109c:	01f85713          	srl	a4,a6,0x1f
800010a0:	40f40433          	sub	s0,s0,a5
800010a4:	f8089ce3          	bnez	a7,8000103c <__udivmoddi4+0xec>
800010a8:	000a8663          	beqz	s5,800010b4 <__udivmoddi4+0x164>
800010ac:	00baa023          	sw	a1,0(s5)
800010b0:	008aa223          	sw	s0,4(s5)
800010b4:	01f6da13          	srl	s4,a3,0x1f
800010b8:	00199993          	sll	s3,s3,0x1
800010bc:	00169513          	sll	a0,a3,0x1
800010c0:	00e56533          	or	a0,a0,a4
800010c4:	013a65b3          	or	a1,s4,s3
800010c8:	ee1ff06f          	j	80000fa8 <__udivmoddi4+0x58>
800010cc:	06060663          	beqz	a2,80001138 <__udivmoddi4+0x1e8>
800010d0:	00060513          	mv	a0,a2
800010d4:	194000ef          	jal	80001268 <__clzsi2>
800010d8:	00050993          	mv	s3,a0
800010dc:	000b0513          	mv	a0,s6
800010e0:	188000ef          	jal	80001268 <__clzsi2>
800010e4:	40a988b3          	sub	a7,s3,a0
800010e8:	01f00793          	li	a5,31
800010ec:	0917ec63          	bltu	a5,a7,80001184 <__udivmoddi4+0x234>
800010f0:	00188893          	add	a7,a7,1
800010f4:	02000793          	li	a5,32
800010f8:	000a0693          	mv	a3,s4
800010fc:	12f88e63          	beq	a7,a5,80001238 <__udivmoddi4+0x2e8>
80001100:	411787b3          	sub	a5,a5,a7
80001104:	011a5733          	srl	a4,s4,a7
80001108:	00fb1633          	sll	a2,s6,a5
8000110c:	011b55b3          	srl	a1,s6,a7
80001110:	00fa16b3          	sll	a3,s4,a5
80001114:	00e66433          	or	s0,a2,a4
80001118:	00000993          	li	s3,0
8000111c:	f1dff06f          	j	80001038 <__udivmoddi4+0xe8>
80001120:	00070663          	beqz	a4,8000112c <__udivmoddi4+0x1dc>
80001124:	00baa023          	sw	a1,0(s5)
80001128:	00072223          	sw	zero,4(a4)
8000112c:	00000513          	li	a0,0
80001130:	00000593          	li	a1,0
80001134:	e75ff06f          	j	80000fa8 <__udivmoddi4+0x58>
80001138:	fff68793          	add	a5,a3,-1
8000113c:	00d7f733          	and	a4,a5,a3
80001140:	04071a63          	bnez	a4,80001194 <__udivmoddi4+0x244>
80001144:	000a8863          	beqz	s5,80001154 <__udivmoddi4+0x204>
80001148:	00b7f7b3          	and	a5,a5,a1
8000114c:	00faa023          	sw	a5,0(s5)
80001150:	000aa223          	sw	zero,4(s5)
80001154:	00100793          	li	a5,1
80001158:	0af90863          	beq	s2,a5,80001208 <__udivmoddi4+0x2b8>
8000115c:	00090513          	mv	a0,s2
80001160:	198000ef          	jal	800012f8 <__ctzsi2>
80001164:	02000793          	li	a5,32
80001168:	40a787b3          	sub	a5,a5,a0
8000116c:	00aa5a33          	srl	s4,s4,a0
80001170:	00fb17b3          	sll	a5,s6,a5
80001174:	00ab5533          	srl	a0,s6,a0
80001178:	0147e5b3          	or	a1,a5,s4
8000117c:	e2dff06f          	j	80000fa8 <__udivmoddi4+0x58>
80001180:	00100073          	ebreak
80001184:	fa0a84e3          	beqz	s5,8000112c <__udivmoddi4+0x1dc>
80001188:	016aa023          	sw	s6,0(s5)
8000118c:	014aa223          	sw	s4,4(s5)
80001190:	f9dff06f          	j	8000112c <__udivmoddi4+0x1dc>
80001194:	00068513          	mv	a0,a3
80001198:	00c12623          	sw	a2,12(sp)
8000119c:	0cc000ef          	jal	80001268 <__clzsi2>
800011a0:	00050993          	mv	s3,a0
800011a4:	000b0513          	mv	a0,s6
800011a8:	0c0000ef          	jal	80001268 <__clzsi2>
800011ac:	40a98533          	sub	a0,s3,a0
800011b0:	02150893          	add	a7,a0,33
800011b4:	02000793          	li	a5,32
800011b8:	00c12583          	lw	a1,12(sp)
800011bc:	000a0693          	mv	a3,s4
800011c0:	00000993          	li	s3,0
800011c4:	e6f88ae3          	beq	a7,a5,80001038 <__udivmoddi4+0xe8>
800011c8:	01f00713          	li	a4,31
800011cc:	07176c63          	bltu	a4,a7,80001244 <__udivmoddi4+0x2f4>
800011d0:	411787b3          	sub	a5,a5,a7
800011d4:	011a5733          	srl	a4,s4,a7
800011d8:	00fb1433          	sll	s0,s6,a5
800011dc:	011b55b3          	srl	a1,s6,a7
800011e0:	00e46433          	or	s0,s0,a4
800011e4:	00fa16b3          	sll	a3,s4,a5
800011e8:	e51ff06f          	j	80001038 <__udivmoddi4+0xe8>
800011ec:	00070863          	beqz	a4,800011fc <__udivmoddi4+0x2ac>
800011f0:	02c577b3          	remu	a5,a0,a2
800011f4:	00072223          	sw	zero,4(a4)
800011f8:	00f72023          	sw	a5,0(a4)
800011fc:	029b5533          	divu	a0,s6,s1
80001200:	00000593          	li	a1,0
80001204:	da5ff06f          	j	80000fa8 <__udivmoddi4+0x58>
80001208:	000b0513          	mv	a0,s6
8000120c:	000a0593          	mv	a1,s4
80001210:	d99ff06f          	j	80000fa8 <__udivmoddi4+0x58>
80001214:	000a8863          	beqz	s5,80001224 <__udivmoddi4+0x2d4>
80001218:	00a7f7b3          	and	a5,a5,a0
8000121c:	00faa023          	sw	a5,0(s5)
80001220:	00baa223          	sw	a1,4(s5)
80001224:	00048513          	mv	a0,s1
80001228:	0d0000ef          	jal	800012f8 <__ctzsi2>
8000122c:	00ab5533          	srl	a0,s6,a0
80001230:	00000593          	li	a1,0
80001234:	d75ff06f          	j	80000fa8 <__udivmoddi4+0x58>
80001238:	00000593          	li	a1,0
8000123c:	00000993          	li	s3,0
80001240:	df9ff06f          	j	80001038 <__udivmoddi4+0xe8>
80001244:	04000993          	li	s3,64
80001248:	411989b3          	sub	s3,s3,a7
8000124c:	00150513          	add	a0,a0,1
80001250:	013b1733          	sll	a4,s6,s3
80001254:	00aa57b3          	srl	a5,s4,a0
80001258:	013a19b3          	sll	s3,s4,s3
8000125c:	00ab5433          	srl	s0,s6,a0
80001260:	00f766b3          	or	a3,a4,a5
80001264:	dd5ff06f          	j	80001038 <__udivmoddi4+0xe8>

80001268 <__clzsi2>:
80001268:	00010737          	lui	a4,0x10
8000126c:	00e53833          	sltu	a6,a0,a4
80001270:	00481813          	sll	a6,a6,0x4
80001274:	01000793          	li	a5,16
80001278:	410787b3          	sub	a5,a5,a6
8000127c:	00f557b3          	srl	a5,a0,a5
80001280:	f0070713          	add	a4,a4,-256 # ff00 <_entry_offset+0xff00>
80001284:	00e7f733          	and	a4,a5,a4
80001288:	00173713          	seqz	a4,a4
8000128c:	00371713          	sll	a4,a4,0x3
80001290:	00800693          	li	a3,8
80001294:	40e686b3          	sub	a3,a3,a4
80001298:	00d7d7b3          	srl	a5,a5,a3
8000129c:	0f07f613          	and	a2,a5,240
800012a0:	00163613          	seqz	a2,a2
800012a4:	00261613          	sll	a2,a2,0x2
800012a8:	00400693          	li	a3,4
800012ac:	40c686b3          	sub	a3,a3,a2
800012b0:	00d7d7b3          	srl	a5,a5,a3
800012b4:	00c7f693          	and	a3,a5,12
800012b8:	0016b693          	seqz	a3,a3
800012bc:	00169693          	sll	a3,a3,0x1
800012c0:	00200593          	li	a1,2
800012c4:	40d58533          	sub	a0,a1,a3
800012c8:	00a7d7b3          	srl	a5,a5,a0
800012cc:	0017d513          	srl	a0,a5,0x1
800012d0:	00154513          	xor	a0,a0,1
800012d4:	01070733          	add	a4,a4,a6
800012d8:	00157513          	and	a0,a0,1
800012dc:	00e60633          	add	a2,a2,a4
800012e0:	40f585b3          	sub	a1,a1,a5
800012e4:	40a00733          	neg	a4,a0
800012e8:	00b77733          	and	a4,a4,a1
800012ec:	00c68533          	add	a0,a3,a2
800012f0:	00a70533          	add	a0,a4,a0
800012f4:	00008067          	ret

800012f8 <__ctzsi2>:
800012f8:	01051593          	sll	a1,a0,0x10
800012fc:	0105d593          	srl	a1,a1,0x10
80001300:	0015b593          	seqz	a1,a1
80001304:	00459593          	sll	a1,a1,0x4
80001308:	00b557b3          	srl	a5,a0,a1
8000130c:	0ff7f613          	zext.b	a2,a5
80001310:	00163613          	seqz	a2,a2
80001314:	00361613          	sll	a2,a2,0x3
80001318:	00c7d7b3          	srl	a5,a5,a2
8000131c:	00f7f693          	and	a3,a5,15
80001320:	0016b693          	seqz	a3,a3
80001324:	00269693          	sll	a3,a3,0x2
80001328:	00d7d7b3          	srl	a5,a5,a3
8000132c:	0037f713          	and	a4,a5,3
80001330:	00173713          	seqz	a4,a4
80001334:	00171713          	sll	a4,a4,0x1
80001338:	00e7d7b3          	srl	a5,a5,a4
8000133c:	0017d513          	srl	a0,a5,0x1
80001340:	00b60633          	add	a2,a2,a1
80001344:	0017f793          	and	a5,a5,1
80001348:	00157593          	and	a1,a0,1
8000134c:	00200513          	li	a0,2
80001350:	00c686b3          	add	a3,a3,a2
80001354:	40b50533          	sub	a0,a0,a1
80001358:	fff78793          	add	a5,a5,-1
8000135c:	00f57533          	and	a0,a0,a5
80001360:	00d70733          	add	a4,a4,a3
80001364:	00e50533          	add	a0,a0,a4
80001368:	00008067          	ret
