
/home/xxa/Desktop/CECS-Lab/software/functest/build/min3-riscv32.elf:     file format elf32-littleriscv


Disassembly of section .text:

80000000 <_start>:
80000000:	00000413          	li	s0,0
80000004:	00009117          	auipc	sp,0x9
80000008:	ffc10113          	add	sp,sp,-4 # 80009000 <_end>
8000000c:	124000ef          	jal	80000130 <call_main>

80000010 <check>:
80000010:	00050463          	beqz	a0,80000018 <check+0x8>
80000014:	00008067          	ret
80000018:	00100513          	li	a0,1
8000001c:	1080006f          	j	80000124 <halt>

80000020 <main>:
80000020:	fd010113          	add	sp,sp,-48
80000024:	02912223          	sw	s1,36(sp)
80000028:	03212023          	sw	s2,32(sp)
8000002c:	800004b7          	lui	s1,0x80000
80000030:	01712623          	sw	s7,12(sp)
80000034:	80000937          	lui	s2,0x80000
80000038:	80000bb7          	lui	s7,0x80000
8000003c:	01512a23          	sw	s5,20(sp)
80000040:	01612823          	sw	s6,16(sp)
80000044:	01812423          	sw	s8,8(sp)
80000048:	25448b13          	add	s6,s1,596 # 80000254 <test_data>
8000004c:	02112623          	sw	ra,44(sp)
80000050:	02812423          	sw	s0,40(sp)
80000054:	01312e23          	sw	s3,28(sp)
80000058:	01412c23          	sw	s4,24(sp)
8000005c:	01912223          	sw	s9,4(sp)
80000060:	01a12023          	sw	s10,0(sp)
80000064:	154b8b93          	add	s7,s7,340 # 80000154 <ans>
80000068:	25448493          	add	s1,s1,596
8000006c:	01000a93          	li	s5,16
80000070:	26490913          	add	s2,s2,612 # 80000264 <_bss_start>
80000074:	05000c13          	li	s8,80
80000078:	ff0a8993          	add	s3,s5,-16
8000007c:	000b0413          	mv	s0,s6
80000080:	000b8a13          	mv	s4,s7
80000084:	000a0d13          	mv	s10,s4
80000088:	000b0c93          	mv	s9,s6
8000008c:	0004a503          	lw	a0,0(s1)
80000090:	00042783          	lw	a5,0(s0)
80000094:	00a7d463          	bge	a5,a0,8000009c <main+0x7c>
80000098:	00078513          	mv	a0,a5
8000009c:	000ca783          	lw	a5,0(s9)
800000a0:	004c8c93          	add	s9,s9,4
800000a4:	00a7d463          	bge	a5,a0,800000ac <main+0x8c>
800000a8:	00078513          	mv	a0,a5
800000ac:	000d2783          	lw	a5,0(s10)
800000b0:	004d0d13          	add	s10,s10,4
800000b4:	40f50533          	sub	a0,a0,a5
800000b8:	00153513          	seqz	a0,a0
800000bc:	f55ff0ef          	jal	80000010 <check>
800000c0:	fd9916e3          	bne	s2,s9,8000008c <main+0x6c>
800000c4:	00498993          	add	s3,s3,4
800000c8:	010a0a13          	add	s4,s4,16
800000cc:	00440413          	add	s0,s0,4
800000d0:	fb599ae3          	bne	s3,s5,80000084 <main+0x64>
800000d4:	01098a93          	add	s5,s3,16
800000d8:	00448493          	add	s1,s1,4
800000dc:	040b8b93          	add	s7,s7,64
800000e0:	f98a9ce3          	bne	s5,s8,80000078 <main+0x58>
800000e4:	02c12083          	lw	ra,44(sp)
800000e8:	02812403          	lw	s0,40(sp)
800000ec:	02412483          	lw	s1,36(sp)
800000f0:	02012903          	lw	s2,32(sp)
800000f4:	01c12983          	lw	s3,28(sp)
800000f8:	01812a03          	lw	s4,24(sp)
800000fc:	01412a83          	lw	s5,20(sp)
80000100:	01012b03          	lw	s6,16(sp)
80000104:	00c12b83          	lw	s7,12(sp)
80000108:	00812c03          	lw	s8,8(sp)
8000010c:	00412c83          	lw	s9,4(sp)
80000110:	00012d03          	lw	s10,0(sp)
80000114:	00000513          	li	a0,0
80000118:	03010113          	add	sp,sp,48
8000011c:	00008067          	ret

80000120 <putch>:
80000120:	00008067          	ret

80000124 <halt>:
80000124:	00050513          	mv	a0,a0
80000128:	00100073          	ebreak
8000012c:	0000006f          	j	8000012c <halt+0x8>

80000130 <call_main>:
80000130:	80000537          	lui	a0,0x80000
80000134:	ff010113          	add	sp,sp,-16
80000138:	15050513          	add	a0,a0,336 # 80000150 <_etext>
8000013c:	00112623          	sw	ra,12(sp)
80000140:	ee1ff0ef          	jal	80000020 <main>
80000144:	00050513          	mv	a0,a0
80000148:	00100073          	ebreak
8000014c:	0000006f          	j	8000014c <call_main+0x1c>
