
/home/xxa/Desktop/CECS-Lab/software/functest/build/shift-riscv32.elf:     file format elf32-littleriscv


Disassembly of section .text:

80000000 <_start>:
80000000:	00000413          	li	s0,0
80000004:	00009117          	auipc	sp,0x9
80000008:	ffc10113          	add	sp,sp,-4 # 80009000 <_end>
8000000c:	114000ef          	jal	80000120 <call_main>

80000010 <check>:
80000010:	00050463          	beqz	a0,80000018 <check+0x8>
80000014:	00008067          	ret
80000018:	00100513          	li	a0,1
8000001c:	0f80006f          	j	80000114 <halt>

80000020 <main>:
80000020:	fe010113          	add	sp,sp,-32
80000024:	00812c23          	sw	s0,24(sp)
80000028:	80000437          	lui	s0,0x80000
8000002c:	00912a23          	sw	s1,20(sp)
80000030:	01212823          	sw	s2,16(sp)
80000034:	1a440493          	add	s1,s0,420 # 800001a4 <test>
80000038:	80000937          	lui	s2,0x80000
8000003c:	01312623          	sw	s3,12(sp)
80000040:	00112e23          	sw	ra,28(sp)
80000044:	01412423          	sw	s4,8(sp)
80000048:	18490913          	add	s2,s2,388 # 80000184 <srl_ans>
8000004c:	02048993          	add	s3,s1,32
80000050:	1a440413          	add	s0,s0,420
80000054:	00042503          	lw	a0,0(s0)
80000058:	00092783          	lw	a5,0(s2)
8000005c:	00440413          	add	s0,s0,4
80000060:	00755513          	srl	a0,a0,0x7
80000064:	40f50533          	sub	a0,a0,a5
80000068:	00153513          	seqz	a0,a0
8000006c:	fa5ff0ef          	jal	80000010 <check>
80000070:	00490913          	add	s2,s2,4
80000074:	ff3410e3          	bne	s0,s3,80000054 <main+0x34>
80000078:	80000937          	lui	s2,0x80000
8000007c:	14490913          	add	s2,s2,324 # 80000144 <srav_ans>
80000080:	00048993          	mv	s3,s1
80000084:	00400413          	li	s0,4
80000088:	00c00a13          	li	s4,12
8000008c:	0009a503          	lw	a0,0(s3)
80000090:	00092783          	lw	a5,0(s2)
80000094:	00498993          	add	s3,s3,4
80000098:	40855533          	sra	a0,a0,s0
8000009c:	40f50533          	sub	a0,a0,a5
800000a0:	00153513          	seqz	a0,a0
800000a4:	00140413          	add	s0,s0,1
800000a8:	f69ff0ef          	jal	80000010 <check>
800000ac:	00490913          	add	s2,s2,4
800000b0:	fd441ee3          	bne	s0,s4,8000008c <main+0x6c>
800000b4:	80000937          	lui	s2,0x80000
800000b8:	16490913          	add	s2,s2,356 # 80000164 <srlv_ans>
800000bc:	00400413          	li	s0,4
800000c0:	00c00993          	li	s3,12
800000c4:	0004a503          	lw	a0,0(s1)
800000c8:	00092783          	lw	a5,0(s2)
800000cc:	00448493          	add	s1,s1,4
800000d0:	00855533          	srl	a0,a0,s0
800000d4:	40f50533          	sub	a0,a0,a5
800000d8:	00153513          	seqz	a0,a0
800000dc:	00140413          	add	s0,s0,1
800000e0:	f31ff0ef          	jal	80000010 <check>
800000e4:	00490913          	add	s2,s2,4
800000e8:	fd341ee3          	bne	s0,s3,800000c4 <main+0xa4>
800000ec:	01c12083          	lw	ra,28(sp)
800000f0:	01812403          	lw	s0,24(sp)
800000f4:	01412483          	lw	s1,20(sp)
800000f8:	01012903          	lw	s2,16(sp)
800000fc:	00c12983          	lw	s3,12(sp)
80000100:	00812a03          	lw	s4,8(sp)
80000104:	00000513          	li	a0,0
80000108:	02010113          	add	sp,sp,32
8000010c:	00008067          	ret

80000110 <putch>:
80000110:	00008067          	ret

80000114 <halt>:
80000114:	00050513          	mv	a0,a0
80000118:	00100073          	ebreak
8000011c:	0000006f          	j	8000011c <halt+0x8>

80000120 <call_main>:
80000120:	80000537          	lui	a0,0x80000
80000124:	ff010113          	add	sp,sp,-16
80000128:	14050513          	add	a0,a0,320 # 80000140 <_etext>
8000012c:	00112623          	sw	ra,12(sp)
80000130:	ef1ff0ef          	jal	80000020 <main>
80000134:	00050513          	mv	a0,a0
80000138:	00100073          	ebreak
8000013c:	0000006f          	j	8000013c <call_main+0x1c>
