
/home/xxa/Desktop/CECS-Lab/software/functest/build/shuixianhua-riscv32.elf:     file format elf32-littleriscv


Disassembly of section .text:

80000000 <_start>:
80000000:	00000413          	li	s0,0
80000004:	00009117          	auipc	sp,0x9
80000008:	ffc10113          	add	sp,sp,-4 # 80009000 <_end>
8000000c:	0f8000ef          	jal	80000104 <call_main>

80000010 <check>:
80000010:	00050463          	beqz	a0,80000018 <check+0x8>
80000014:	00008067          	ret
80000018:	00100513          	li	a0,1
8000001c:	0dc0006f          	j	800000f8 <halt>

80000020 <main>:
80000020:	fe010113          	add	sp,sp,-32
80000024:	00912a23          	sw	s1,20(sp)
80000028:	800004b7          	lui	s1,0x80000
8000002c:	00812c23          	sw	s0,24(sp)
80000030:	01212823          	sw	s2,16(sp)
80000034:	01312623          	sw	s3,12(sp)
80000038:	01412423          	sw	s4,8(sp)
8000003c:	01512223          	sw	s5,4(sp)
80000040:	00112e23          	sw	ra,28(sp)
80000044:	00000a93          	li	s5,0
80000048:	06400413          	li	s0,100
8000004c:	06400993          	li	s3,100
80000050:	00a00913          	li	s2,10
80000054:	1f400a13          	li	s4,500
80000058:	12848493          	add	s1,s1,296 # 80000128 <ans>
8000005c:	03244633          	div	a2,s0,s2
80000060:	033446b3          	div	a3,s0,s3
80000064:	03266633          	rem	a2,a2,s2
80000068:	03246733          	rem	a4,s0,s2
8000006c:	02c607b3          	mul	a5,a2,a2
80000070:	02d68533          	mul	a0,a3,a3
80000074:	02e705b3          	mul	a1,a4,a4
80000078:	02c787b3          	mul	a5,a5,a2
8000007c:	02d506b3          	mul	a3,a0,a3
80000080:	02e58733          	mul	a4,a1,a4
80000084:	00d787b3          	add	a5,a5,a3
80000088:	00e787b3          	add	a5,a5,a4
8000008c:	04878063          	beq	a5,s0,800000cc <main+0xac>
80000090:	00140413          	add	s0,s0,1
80000094:	fd4414e3          	bne	s0,s4,8000005c <main+0x3c>
80000098:	ffca8513          	add	a0,s5,-4
8000009c:	00153513          	seqz	a0,a0
800000a0:	f71ff0ef          	jal	80000010 <check>
800000a4:	01c12083          	lw	ra,28(sp)
800000a8:	01812403          	lw	s0,24(sp)
800000ac:	01412483          	lw	s1,20(sp)
800000b0:	01012903          	lw	s2,16(sp)
800000b4:	00c12983          	lw	s3,12(sp)
800000b8:	00812a03          	lw	s4,8(sp)
800000bc:	00412a83          	lw	s5,4(sp)
800000c0:	00000513          	li	a0,0
800000c4:	02010113          	add	sp,sp,32
800000c8:	00008067          	ret
800000cc:	002a9793          	sll	a5,s5,0x2
800000d0:	00f487b3          	add	a5,s1,a5
800000d4:	0007a503          	lw	a0,0(a5)
800000d8:	001a8a93          	add	s5,s5,1
800000dc:	40850533          	sub	a0,a0,s0
800000e0:	00153513          	seqz	a0,a0
800000e4:	00140413          	add	s0,s0,1
800000e8:	f29ff0ef          	jal	80000010 <check>
800000ec:	f74418e3          	bne	s0,s4,8000005c <main+0x3c>
800000f0:	fa9ff06f          	j	80000098 <main+0x78>

800000f4 <putch>:
800000f4:	00008067          	ret

800000f8 <halt>:
800000f8:	00050513          	mv	a0,a0
800000fc:	00100073          	ebreak
80000100:	0000006f          	j	80000100 <halt+0x8>

80000104 <call_main>:
80000104:	80000537          	lui	a0,0x80000
80000108:	ff010113          	add	sp,sp,-16
8000010c:	12450513          	add	a0,a0,292 # 80000124 <_etext>
80000110:	00112623          	sw	ra,12(sp)
80000114:	f0dff0ef          	jal	80000020 <main>
80000118:	00050513          	mv	a0,a0
8000011c:	00100073          	ebreak
80000120:	0000006f          	j	80000120 <call_main+0x1c>
