
/home/xxa/Desktop/CECS-Lab/software/functest/build/bubble-sort-riscv32.elf:     file format elf32-littleriscv


Disassembly of section .text:

80000000 <_start>:
80000000:	00000413          	li	s0,0
80000004:	00009117          	auipc	sp,0x9
80000008:	ffc10113          	add	sp,sp,-4 # 80009000 <_end>
8000000c:	10c000ef          	jal	80000118 <call_main>

80000010 <check>:
80000010:	00050463          	beqz	a0,80000018 <check+0x8>
80000014:	00008067          	ret
80000018:	00100513          	li	a0,1
8000001c:	0f00006f          	j	8000010c <halt>

80000020 <bubble_sort>:
80000020:	01400593          	li	a1,20
80000024:	fff58593          	add	a1,a1,-1
80000028:	80000537          	lui	a0,0x80000
8000002c:	02058a63          	beqz	a1,80000060 <bubble_sort+0x40>
80000030:	13c50793          	add	a5,a0,316 # 8000013c <a>
80000034:	00000713          	li	a4,0
80000038:	0007a683          	lw	a3,0(a5)
8000003c:	0047a603          	lw	a2,4(a5)
80000040:	00170713          	add	a4,a4,1
80000044:	00d65663          	bge	a2,a3,80000050 <bubble_sort+0x30>
80000048:	00c7a023          	sw	a2,0(a5)
8000004c:	00d7a223          	sw	a3,4(a5)
80000050:	00478793          	add	a5,a5,4
80000054:	feb742e3          	blt	a4,a1,80000038 <bubble_sort+0x18>
80000058:	fff58593          	add	a1,a1,-1
8000005c:	fc059ae3          	bnez	a1,80000030 <bubble_sort+0x10>
80000060:	00008067          	ret

80000064 <main>:
80000064:	fe010113          	add	sp,sp,-32
80000068:	00912a23          	sw	s1,20(sp)
8000006c:	800004b7          	lui	s1,0x80000
80000070:	00812c23          	sw	s0,24(sp)
80000074:	01212823          	sw	s2,16(sp)
80000078:	01312623          	sw	s3,12(sp)
8000007c:	00112e23          	sw	ra,28(sp)
80000080:	13c48913          	add	s2,s1,316 # 8000013c <a>
80000084:	f9dff0ef          	jal	80000020 <bubble_sort>
80000088:	13c48493          	add	s1,s1,316
8000008c:	00000413          	li	s0,0
80000090:	01400993          	li	s3,20
80000094:	0004a503          	lw	a0,0(s1)
80000098:	00448493          	add	s1,s1,4
8000009c:	40850533          	sub	a0,a0,s0
800000a0:	00153513          	seqz	a0,a0
800000a4:	00140413          	add	s0,s0,1
800000a8:	f69ff0ef          	jal	80000010 <check>
800000ac:	ff3414e3          	bne	s0,s3,80000094 <main+0x30>
800000b0:	00100513          	li	a0,1
800000b4:	f5dff0ef          	jal	80000010 <check>
800000b8:	00000413          	li	s0,0
800000bc:	f65ff0ef          	jal	80000020 <bubble_sort>
800000c0:	01400493          	li	s1,20
800000c4:	00092503          	lw	a0,0(s2)
800000c8:	00490913          	add	s2,s2,4
800000cc:	40850533          	sub	a0,a0,s0
800000d0:	00153513          	seqz	a0,a0
800000d4:	00140413          	add	s0,s0,1
800000d8:	f39ff0ef          	jal	80000010 <check>
800000dc:	fe9414e3          	bne	s0,s1,800000c4 <main+0x60>
800000e0:	00100513          	li	a0,1
800000e4:	f2dff0ef          	jal	80000010 <check>
800000e8:	01c12083          	lw	ra,28(sp)
800000ec:	01812403          	lw	s0,24(sp)
800000f0:	01412483          	lw	s1,20(sp)
800000f4:	01012903          	lw	s2,16(sp)
800000f8:	00c12983          	lw	s3,12(sp)
800000fc:	00000513          	li	a0,0
80000100:	02010113          	add	sp,sp,32
80000104:	00008067          	ret

80000108 <putch>:
80000108:	00008067          	ret

8000010c <halt>:
8000010c:	00050513          	mv	a0,a0
80000110:	00100073          	ebreak
80000114:	0000006f          	j	80000114 <halt+0x8>

80000118 <call_main>:
80000118:	80000537          	lui	a0,0x80000
8000011c:	ff010113          	add	sp,sp,-16
80000120:	13850513          	add	a0,a0,312 # 80000138 <_etext>
80000124:	00112623          	sw	ra,12(sp)
80000128:	f3dff0ef          	jal	80000064 <main>
8000012c:	00050513          	mv	a0,a0
80000130:	00100073          	ebreak
80000134:	0000006f          	j	80000134 <call_main+0x1c>
