
/home/xxa/Desktop/CECS-Lab/software/functest/build/crc32-riscv32.elf:     file format elf32-littleriscv


Disassembly of section .text:

80000000 <_start>:
80000000:	00000413          	li	s0,0
80000004:	00009117          	auipc	sp,0x9
80000008:	ffc10113          	add	sp,sp,-4 # 80009000 <_end>
8000000c:	160000ef          	jal	8000016c <call_main>

80000010 <check>:
80000010:	00050463          	beqz	a0,80000018 <check+0x8>
80000014:	00008067          	ret
80000018:	00100513          	li	a0,1
8000001c:	1440006f          	j	80000160 <halt>

80000020 <rc_crc32>:
80000020:	80000337          	lui	t1,0x80000
80000024:	5bc32703          	lw	a4,1468(t1) # 800005bc <have_table.1>
80000028:	0a071863          	bnez	a4,800000d8 <rc_crc32+0xb8>
8000002c:	800007b7          	lui	a5,0x80000
80000030:	edb88837          	lui	a6,0xedb88
80000034:	1bc78893          	add	a7,a5,444 # 800001bc <table.0>
80000038:	32080813          	add	a6,a6,800 # edb88320 <_end+0x6db7f320>
8000003c:	10000e13          	li	t3,256
80000040:	00177693          	and	a3,a4,1
80000044:	00175793          	srl	a5,a4,0x1
80000048:	00068463          	beqz	a3,80000050 <rc_crc32+0x30>
8000004c:	0107c7b3          	xor	a5,a5,a6
80000050:	0017f693          	and	a3,a5,1
80000054:	0017d793          	srl	a5,a5,0x1
80000058:	00068463          	beqz	a3,80000060 <rc_crc32+0x40>
8000005c:	0107c7b3          	xor	a5,a5,a6
80000060:	0017f693          	and	a3,a5,1
80000064:	0017d793          	srl	a5,a5,0x1
80000068:	00068463          	beqz	a3,80000070 <rc_crc32+0x50>
8000006c:	0107c7b3          	xor	a5,a5,a6
80000070:	0017f693          	and	a3,a5,1
80000074:	0017d793          	srl	a5,a5,0x1
80000078:	00068463          	beqz	a3,80000080 <rc_crc32+0x60>
8000007c:	0107c7b3          	xor	a5,a5,a6
80000080:	0017f693          	and	a3,a5,1
80000084:	0017d793          	srl	a5,a5,0x1
80000088:	00068463          	beqz	a3,80000090 <rc_crc32+0x70>
8000008c:	0107c7b3          	xor	a5,a5,a6
80000090:	0017f693          	and	a3,a5,1
80000094:	0017d793          	srl	a5,a5,0x1
80000098:	00068463          	beqz	a3,800000a0 <rc_crc32+0x80>
8000009c:	0107c7b3          	xor	a5,a5,a6
800000a0:	0017f693          	and	a3,a5,1
800000a4:	0017d793          	srl	a5,a5,0x1
800000a8:	00068463          	beqz	a3,800000b0 <rc_crc32+0x90>
800000ac:	0107c7b3          	xor	a5,a5,a6
800000b0:	0017f693          	and	a3,a5,1
800000b4:	0017d793          	srl	a5,a5,0x1
800000b8:	00068463          	beqz	a3,800000c0 <rc_crc32+0xa0>
800000bc:	0107c7b3          	xor	a5,a5,a6
800000c0:	00f8a023          	sw	a5,0(a7)
800000c4:	00170713          	add	a4,a4,1
800000c8:	00488893          	add	a7,a7,4
800000cc:	f7c71ae3          	bne	a4,t3,80000040 <rc_crc32+0x20>
800000d0:	00100793          	li	a5,1
800000d4:	5af32e23          	sw	a5,1468(t1)
800000d8:	00c58833          	add	a6,a1,a2
800000dc:	fff54693          	not	a3,a0
800000e0:	0305fc63          	bgeu	a1,a6,80000118 <rc_crc32+0xf8>
800000e4:	800007b7          	lui	a5,0x80000
800000e8:	1bc78793          	add	a5,a5,444 # 800001bc <table.0>
800000ec:	0005c603          	lbu	a2,0(a1)
800000f0:	0ff6f713          	zext.b	a4,a3
800000f4:	00158593          	add	a1,a1,1
800000f8:	00c74733          	xor	a4,a4,a2
800000fc:	00271713          	sll	a4,a4,0x2
80000100:	00e78733          	add	a4,a5,a4
80000104:	00072703          	lw	a4,0(a4)
80000108:	0086d693          	srl	a3,a3,0x8
8000010c:	00e6c6b3          	xor	a3,a3,a4
80000110:	fcb81ee3          	bne	a6,a1,800000ec <rc_crc32+0xcc>
80000114:	fff6c513          	not	a0,a3
80000118:	00008067          	ret

8000011c <main>:
8000011c:	800005b7          	lui	a1,0x80000
80000120:	ff010113          	add	sp,sp,-16
80000124:	02b00613          	li	a2,43
80000128:	18c58593          	add	a1,a1,396 # 8000018c <_etext>
8000012c:	00000513          	li	a0,0
80000130:	00112623          	sw	ra,12(sp)
80000134:	eedff0ef          	jal	80000020 <rc_crc32>
80000138:	beb067b7          	lui	a5,0xbeb06
8000013c:	cc778793          	add	a5,a5,-825 # beb05cc7 <_end+0x3eafccc7>
80000140:	00f50533          	add	a0,a0,a5
80000144:	00153513          	seqz	a0,a0
80000148:	ec9ff0ef          	jal	80000010 <check>
8000014c:	00c12083          	lw	ra,12(sp)
80000150:	00000513          	li	a0,0
80000154:	01010113          	add	sp,sp,16
80000158:	00008067          	ret

8000015c <putch>:
8000015c:	00008067          	ret

80000160 <halt>:
80000160:	00050513          	mv	a0,a0
80000164:	00100073          	ebreak
80000168:	0000006f          	j	80000168 <halt+0x8>

8000016c <call_main>:
8000016c:	80000537          	lui	a0,0x80000
80000170:	ff010113          	add	sp,sp,-16
80000174:	1b850513          	add	a0,a0,440 # 800001b8 <argv>
80000178:	00112623          	sw	ra,12(sp)
8000017c:	fa1ff0ef          	jal	8000011c <main>
80000180:	00050513          	mv	a0,a0
80000184:	00100073          	ebreak
80000188:	0000006f          	j	80000188 <call_main+0x1c>
