
/home/xxa/Desktop/CECS-Lab/software/functest/build/goldbach-riscv32.elf:     file format elf32-littleriscv


Disassembly of section .text:

80000000 <_start>:
80000000:	00000413          	li	s0,0
80000004:	00009117          	auipc	sp,0x9
80000008:	ffc10113          	add	sp,sp,-4 # 80009000 <_end>
8000000c:	108000ef          	jal	80000114 <call_main>

80000010 <check>:
80000010:	00050463          	beqz	a0,80000018 <check+0x8>
80000014:	00008067          	ret
80000018:	00100513          	li	a0,1
8000001c:	0ec0006f          	j	80000108 <halt>

80000020 <main>:
80000020:	fe010113          	add	sp,sp,-32
80000024:	00812c23          	sw	s0,24(sp)
80000028:	00912a23          	sw	s1,20(sp)
8000002c:	01212823          	sw	s2,16(sp)
80000030:	01312623          	sw	s3,12(sp)
80000034:	00112e23          	sw	ra,28(sp)
80000038:	00400413          	li	s0,4
8000003c:	00200993          	li	s3,2
80000040:	00100913          	li	s2,1
80000044:	02000493          	li	s1,32
80000048:	ffe40593          	add	a1,s0,-2
8000004c:	00200693          	li	a3,2
80000050:	0b358063          	beq	a1,s3,800000f0 <main+0xd0>
80000054:	0015f513          	and	a0,a1,1
80000058:	04050663          	beqz	a0,800000a4 <main+0x84>
8000005c:	00200793          	li	a5,2
80000060:	00c0006f          	j	8000006c <main+0x4c>
80000064:	02f5e733          	rem	a4,a1,a5
80000068:	02070e63          	beqz	a4,800000a4 <main+0x84>
8000006c:	00178793          	add	a5,a5,1
80000070:	feb79ae3          	bne	a5,a1,80000064 <main+0x44>
80000074:	00240413          	add	s0,s0,2
80000078:	f99ff0ef          	jal	80000010 <check>
8000007c:	fc9416e3          	bne	s0,s1,80000048 <main+0x28>
80000080:	01c12083          	lw	ra,28(sp)
80000084:	01812403          	lw	s0,24(sp)
80000088:	01412483          	lw	s1,20(sp)
8000008c:	01012903          	lw	s2,16(sp)
80000090:	00c12983          	lw	s3,12(sp)
80000094:	00000513          	li	a0,0
80000098:	02010113          	add	sp,sp,32
8000009c:	00008067          	ret
800000a0:	fb2598e3          	bne	a1,s2,80000050 <main+0x30>
800000a4:	00068613          	mv	a2,a3
800000a8:	00168693          	add	a3,a3,1
800000ac:	fff58593          	add	a1,a1,-1
800000b0:	02868663          	beq	a3,s0,800000dc <main+0xbc>
800000b4:	0016f793          	and	a5,a3,1
800000b8:	fe0786e3          	beqz	a5,800000a4 <main+0x84>
800000bc:	00200793          	li	a5,2
800000c0:	00c0006f          	j	800000cc <main+0xac>
800000c4:	02f6e733          	rem	a4,a3,a5
800000c8:	fc070ee3          	beqz	a4,800000a4 <main+0x84>
800000cc:	00078713          	mv	a4,a5
800000d0:	00178793          	add	a5,a5,1
800000d4:	fec718e3          	bne	a4,a2,800000c4 <main+0xa4>
800000d8:	fc9ff06f          	j	800000a0 <main+0x80>
800000dc:	00240413          	add	s0,s0,2
800000e0:	00000513          	li	a0,0
800000e4:	f2dff0ef          	jal	80000010 <check>
800000e8:	f69410e3          	bne	s0,s1,80000048 <main+0x28>
800000ec:	f95ff06f          	j	80000080 <main+0x60>
800000f0:	00240413          	add	s0,s0,2
800000f4:	00100513          	li	a0,1
800000f8:	f19ff0ef          	jal	80000010 <check>
800000fc:	f49416e3          	bne	s0,s1,80000048 <main+0x28>
80000100:	f81ff06f          	j	80000080 <main+0x60>

80000104 <putch>:
80000104:	00008067          	ret

80000108 <halt>:
80000108:	00050513          	mv	a0,a0
8000010c:	00100073          	ebreak
80000110:	0000006f          	j	80000110 <halt+0x8>

80000114 <call_main>:
80000114:	80000537          	lui	a0,0x80000
80000118:	ff010113          	add	sp,sp,-16
8000011c:	13450513          	add	a0,a0,308 # 80000134 <_etext>
80000120:	00112623          	sw	ra,12(sp)
80000124:	efdff0ef          	jal	80000020 <main>
80000128:	00050513          	mv	a0,a0
8000012c:	00100073          	ebreak
80000130:	0000006f          	j	80000130 <call_main+0x1c>
