
/home/xxa/Desktop/CECS-Lab/software/functest/build/max-riscv32.elf:     file format elf32-littleriscv


Disassembly of section .text:

80000000 <_start>:
80000000:	00000413          	li	s0,0
80000004:	00009117          	auipc	sp,0x9
80000008:	ffc10113          	add	sp,sp,-4 # 80009000 <_end>
8000000c:	0e4000ef          	jal	800000f0 <call_main>

80000010 <check>:
80000010:	00050463          	beqz	a0,80000018 <check+0x8>
80000014:	00008067          	ret
80000018:	00100513          	li	a0,1
8000001c:	0c80006f          	j	800000e4 <halt>

80000020 <main>:
80000020:	fd010113          	add	sp,sp,-48
80000024:	03212023          	sw	s2,32(sp)
80000028:	01312e23          	sw	s3,28(sp)
8000002c:	80000937          	lui	s2,0x80000
80000030:	01412c23          	sw	s4,24(sp)
80000034:	800009b7          	lui	s3,0x80000
80000038:	80000a37          	lui	s4,0x80000
8000003c:	01512a23          	sw	s5,20(sp)
80000040:	01612823          	sw	s6,16(sp)
80000044:	01712623          	sw	s7,12(sp)
80000048:	21490b13          	add	s6,s2,532 # 80000214 <test_data>
8000004c:	02112623          	sw	ra,44(sp)
80000050:	02812423          	sw	s0,40(sp)
80000054:	02912223          	sw	s1,36(sp)
80000058:	114a0a13          	add	s4,s4,276 # 80000114 <ans>
8000005c:	21490913          	add	s2,s2,532
80000060:	00000a93          	li	s5,0
80000064:	23498993          	add	s3,s3,564 # 80000234 <_bss_start>
80000068:	04000b93          	li	s7,64
8000006c:	000a0493          	mv	s1,s4
80000070:	000b0413          	mv	s0,s6
80000074:	00042783          	lw	a5,0(s0)
80000078:	00092503          	lw	a0,0(s2)
8000007c:	00440413          	add	s0,s0,4
80000080:	00f55463          	bge	a0,a5,80000088 <main+0x68>
80000084:	00078513          	mv	a0,a5
80000088:	0004a783          	lw	a5,0(s1)
8000008c:	00448493          	add	s1,s1,4
80000090:	40f50533          	sub	a0,a0,a5
80000094:	00153513          	seqz	a0,a0
80000098:	f79ff0ef          	jal	80000010 <check>
8000009c:	fc899ce3          	bne	s3,s0,80000074 <main+0x54>
800000a0:	008a8a93          	add	s5,s5,8
800000a4:	020a0a13          	add	s4,s4,32
800000a8:	00490913          	add	s2,s2,4
800000ac:	fd7a90e3          	bne	s5,s7,8000006c <main+0x4c>
800000b0:	02c12083          	lw	ra,44(sp)
800000b4:	02812403          	lw	s0,40(sp)
800000b8:	02412483          	lw	s1,36(sp)
800000bc:	02012903          	lw	s2,32(sp)
800000c0:	01c12983          	lw	s3,28(sp)
800000c4:	01812a03          	lw	s4,24(sp)
800000c8:	01412a83          	lw	s5,20(sp)
800000cc:	01012b03          	lw	s6,16(sp)
800000d0:	00c12b83          	lw	s7,12(sp)
800000d4:	00000513          	li	a0,0
800000d8:	03010113          	add	sp,sp,48
800000dc:	00008067          	ret

800000e0 <putch>:
800000e0:	00008067          	ret

800000e4 <halt>:
800000e4:	00050513          	mv	a0,a0
800000e8:	00100073          	ebreak
800000ec:	0000006f          	j	800000ec <halt+0x8>

800000f0 <call_main>:
800000f0:	80000537          	lui	a0,0x80000
800000f4:	ff010113          	add	sp,sp,-16
800000f8:	11050513          	add	a0,a0,272 # 80000110 <_etext>
800000fc:	00112623          	sw	ra,12(sp)
80000100:	f21ff0ef          	jal	80000020 <main>
80000104:	00050513          	mv	a0,a0
80000108:	00100073          	ebreak
8000010c:	0000006f          	j	8000010c <call_main+0x1c>
