
/home/xxa/Desktop/CECS-Lab/software/functest/build/mov-c-riscv32.elf:     file format elf32-littleriscv


Disassembly of section .text:

80000000 <_start>:
80000000:	00000413          	li	s0,0
80000004:	00009117          	auipc	sp,0x9
80000008:	ffc10113          	add	sp,sp,-4 # 80009000 <_end>
8000000c:	0f8000ef          	jal	80000104 <call_main>

80000010 <check>:
80000010:	00050463          	beqz	a0,80000018 <check+0x8>
80000014:	00008067          	ret
80000018:	00100513          	li	a0,1
8000001c:	0dc0006f          	j	800000f8 <halt>

80000020 <main>:
80000020:	ff010113          	add	sp,sp,-16
80000024:	00812423          	sw	s0,8(sp)
80000028:	80000437          	lui	s0,0x80000
8000002c:	00112623          	sw	ra,12(sp)
80000030:	12840413          	add	s0,s0,296 # 80000128 <A>
80000034:	00912223          	sw	s1,4(sp)
80000038:	00042023          	sw	zero,0(s0)
8000003c:	00100793          	li	a5,1
80000040:	00f42223          	sw	a5,4(s0)
80000044:	00200793          	li	a5,2
80000048:	00f42423          	sw	a5,8(s0)
8000004c:	00300793          	li	a5,3
80000050:	00f42623          	sw	a5,12(s0)
80000054:	00400793          	li	a5,4
80000058:	00f42823          	sw	a5,16(s0)
8000005c:	00c42783          	lw	a5,12(s0)
80000060:	800004b7          	lui	s1,0x80000
80000064:	14f4a823          	sw	a5,336(s1) # 80000150 <b>
80000068:	1504a783          	lw	a5,336(s1)
8000006c:	00f42a23          	sw	a5,20(s0)
80000070:	00042503          	lw	a0,0(s0)
80000074:	00153513          	seqz	a0,a0
80000078:	f99ff0ef          	jal	80000010 <check>
8000007c:	00442503          	lw	a0,4(s0)
80000080:	fff50513          	add	a0,a0,-1
80000084:	00153513          	seqz	a0,a0
80000088:	f89ff0ef          	jal	80000010 <check>
8000008c:	00842503          	lw	a0,8(s0)
80000090:	ffe50513          	add	a0,a0,-2
80000094:	00153513          	seqz	a0,a0
80000098:	f79ff0ef          	jal	80000010 <check>
8000009c:	00c42503          	lw	a0,12(s0)
800000a0:	ffd50513          	add	a0,a0,-3
800000a4:	00153513          	seqz	a0,a0
800000a8:	f69ff0ef          	jal	80000010 <check>
800000ac:	01042503          	lw	a0,16(s0)
800000b0:	ffc50513          	add	a0,a0,-4
800000b4:	00153513          	seqz	a0,a0
800000b8:	f59ff0ef          	jal	80000010 <check>
800000bc:	1504a503          	lw	a0,336(s1)
800000c0:	ffd50513          	add	a0,a0,-3
800000c4:	00153513          	seqz	a0,a0
800000c8:	f49ff0ef          	jal	80000010 <check>
800000cc:	01442503          	lw	a0,20(s0)
800000d0:	ffd50513          	add	a0,a0,-3
800000d4:	00153513          	seqz	a0,a0
800000d8:	f39ff0ef          	jal	80000010 <check>
800000dc:	00c12083          	lw	ra,12(sp)
800000e0:	00812403          	lw	s0,8(sp)
800000e4:	00412483          	lw	s1,4(sp)
800000e8:	00000513          	li	a0,0
800000ec:	01010113          	add	sp,sp,16
800000f0:	00008067          	ret

800000f4 <putch>:
800000f4:	00008067          	ret

800000f8 <halt>:
800000f8:	00050513          	mv	a0,a0
800000fc:	00100073          	ebreak
80000100:	0000006f          	j	80000100 <halt+0x8>

80000104 <call_main>:
80000104:	80000537          	lui	a0,0x80000
80000108:	ff010113          	add	sp,sp,-16
8000010c:	12450513          	add	a0,a0,292 # 80000124 <_etext>
80000110:	00112623          	sw	ra,12(sp)
80000114:	f0dff0ef          	jal	80000020 <main>
80000118:	00050513          	mv	a0,a0
8000011c:	00100073          	ebreak
80000120:	0000006f          	j	80000120 <call_main+0x1c>
