
/home/xxa/Desktop/CECS-Lab/software/functest/build/movsx-riscv32.elf:     file format elf32-littleriscv


Disassembly of section .text:

80000000 <_start>:
80000000:	00000413          	li	s0,0
80000004:	00009117          	auipc	sp,0x9
80000008:	ffc10113          	add	sp,sp,-4 # 80009000 <_end>
8000000c:	1a4000ef          	jal	800001b0 <call_main>

80000010 <check>:
80000010:	00050463          	beqz	a0,80000018 <check+0x8>
80000014:	00008067          	ret
80000018:	00100513          	li	a0,1
8000001c:	1880006f          	j	800001a4 <halt>

80000020 <main>:
80000020:	ff010113          	add	sp,sp,-16
80000024:	00812423          	sw	s0,8(sp)
80000028:	80000437          	lui	s0,0x80000
8000002c:	00112623          	sw	ra,12(sp)
80000030:	1e040413          	add	s0,s0,480 # 800001e0 <A>
80000034:	00912223          	sw	s1,4(sp)
80000038:	01212023          	sw	s2,0(sp)
8000003c:	00042023          	sw	zero,0(s0)
80000040:	00100793          	li	a5,1
80000044:	00f42223          	sw	a5,4(s0)
80000048:	00200793          	li	a5,2
8000004c:	00f42423          	sw	a5,8(s0)
80000050:	00300793          	li	a5,3
80000054:	00f42623          	sw	a5,12(s0)
80000058:	00400793          	li	a5,4
8000005c:	00f42823          	sw	a5,16(s0)
80000060:	00c42783          	lw	a5,12(s0)
80000064:	80000937          	lui	s2,0x80000
80000068:	800004b7          	lui	s1,0x80000
8000006c:	20f92423          	sw	a5,520(s2) # 80000208 <b>
80000070:	20892783          	lw	a5,520(s2)
80000074:	1d448493          	add	s1,s1,468 # 800001d4 <C>
80000078:	00f42a23          	sw	a5,20(s0)
8000007c:	06100793          	li	a5,97
80000080:	00f48023          	sb	a5,0(s1)
80000084:	0004c503          	lbu	a0,0(s1)
80000088:	01851513          	sll	a0,a0,0x18
8000008c:	41855513          	sra	a0,a0,0x18
80000090:	f9f50513          	add	a0,a0,-97
80000094:	00153513          	seqz	a0,a0
80000098:	f79ff0ef          	jal	80000010 <check>
8000009c:	0004c783          	lbu	a5,0(s1)
800000a0:	01879793          	sll	a5,a5,0x18
800000a4:	4187d793          	sra	a5,a5,0x18
800000a8:	00f480a3          	sb	a5,1(s1)
800000ac:	0014c503          	lbu	a0,1(s1)
800000b0:	01851513          	sll	a0,a0,0x18
800000b4:	41855513          	sra	a0,a0,0x18
800000b8:	f9f50513          	add	a0,a0,-97
800000bc:	00153513          	seqz	a0,a0
800000c0:	f51ff0ef          	jal	80000010 <check>
800000c4:	0004c783          	lbu	a5,0(s1)
800000c8:	01879793          	sll	a5,a5,0x18
800000cc:	4187d793          	sra	a5,a5,0x18
800000d0:	00f42023          	sw	a5,0(s0)
800000d4:	00042503          	lw	a0,0(s0)
800000d8:	f9f50513          	add	a0,a0,-97
800000dc:	00153513          	seqz	a0,a0
800000e0:	f31ff0ef          	jal	80000010 <check>
800000e4:	f8000793          	li	a5,-128
800000e8:	00f480a3          	sb	a5,1(s1)
800000ec:	0014c783          	lbu	a5,1(s1)
800000f0:	01879793          	sll	a5,a5,0x18
800000f4:	4187d793          	sra	a5,a5,0x18
800000f8:	00f42023          	sw	a5,0(s0)
800000fc:	00442503          	lw	a0,4(s0)
80000100:	fff50513          	add	a0,a0,-1
80000104:	00153513          	seqz	a0,a0
80000108:	f09ff0ef          	jal	80000010 <check>
8000010c:	00842503          	lw	a0,8(s0)
80000110:	ffe50513          	add	a0,a0,-2
80000114:	00153513          	seqz	a0,a0
80000118:	ef9ff0ef          	jal	80000010 <check>
8000011c:	00c42503          	lw	a0,12(s0)
80000120:	ffd50513          	add	a0,a0,-3
80000124:	00153513          	seqz	a0,a0
80000128:	ee9ff0ef          	jal	80000010 <check>
8000012c:	01042503          	lw	a0,16(s0)
80000130:	ffc50513          	add	a0,a0,-4
80000134:	00153513          	seqz	a0,a0
80000138:	ed9ff0ef          	jal	80000010 <check>
8000013c:	20892503          	lw	a0,520(s2)
80000140:	ffd50513          	add	a0,a0,-3
80000144:	00153513          	seqz	a0,a0
80000148:	ec9ff0ef          	jal	80000010 <check>
8000014c:	01442503          	lw	a0,20(s0)
80000150:	ffd50513          	add	a0,a0,-3
80000154:	00153513          	seqz	a0,a0
80000158:	eb9ff0ef          	jal	80000010 <check>
8000015c:	0014c503          	lbu	a0,1(s1)
80000160:	01851513          	sll	a0,a0,0x18
80000164:	41855513          	sra	a0,a0,0x18
80000168:	08050513          	add	a0,a0,128
8000016c:	00153513          	seqz	a0,a0
80000170:	ea1ff0ef          	jal	80000010 <check>
80000174:	00042503          	lw	a0,0(s0)
80000178:	08050513          	add	a0,a0,128
8000017c:	00153513          	seqz	a0,a0
80000180:	e91ff0ef          	jal	80000010 <check>
80000184:	00c12083          	lw	ra,12(sp)
80000188:	00812403          	lw	s0,8(sp)
8000018c:	00412483          	lw	s1,4(sp)
80000190:	00012903          	lw	s2,0(sp)
80000194:	00000513          	li	a0,0
80000198:	01010113          	add	sp,sp,16
8000019c:	00008067          	ret

800001a0 <putch>:
800001a0:	00008067          	ret

800001a4 <halt>:
800001a4:	00050513          	mv	a0,a0
800001a8:	00100073          	ebreak
800001ac:	0000006f          	j	800001ac <halt+0x8>

800001b0 <call_main>:
800001b0:	80000537          	lui	a0,0x80000
800001b4:	ff010113          	add	sp,sp,-16
800001b8:	1d050513          	add	a0,a0,464 # 800001d0 <_etext>
800001bc:	00112623          	sw	ra,12(sp)
800001c0:	e61ff0ef          	jal	80000020 <main>
800001c4:	00050513          	mv	a0,a0
800001c8:	00100073          	ebreak
800001cc:	0000006f          	j	800001cc <call_main+0x1c>
