
/home/xxa/Desktop/CECS-Lab/software/functest/build/pascal-riscv32.elf:     file format elf32-littleriscv


Disassembly of section .text:

80000000 <_start>:
80000000:	00000413          	li	s0,0
80000004:	00009117          	auipc	sp,0x9
80000008:	ffc10113          	add	sp,sp,-4 # 80009000 <_end>
8000000c:	0e0000ef          	jal	800000ec <call_main>

80000010 <check>:
80000010:	00050463          	beqz	a0,80000018 <check+0x8>
80000014:	00008067          	ret
80000018:	00100513          	li	a0,1
8000001c:	0c40006f          	j	800000e0 <halt>

80000020 <main>:
80000020:	ff010113          	add	sp,sp,-16
80000024:	00812423          	sw	s0,8(sp)
80000028:	80000437          	lui	s0,0x80000
8000002c:	01212023          	sw	s2,0(sp)
80000030:	18c40793          	add	a5,s0,396 # 8000018c <a>
80000034:	00112623          	sw	ra,12(sp)
80000038:	00912223          	sw	s1,4(sp)
8000003c:	00100713          	li	a4,1
80000040:	18c40413          	add	s0,s0,396
80000044:	80000637          	lui	a2,0x80000
80000048:	800005b7          	lui	a1,0x80000
8000004c:	00e7a223          	sw	a4,4(a5)
80000050:	00e7a023          	sw	a4,0(a5)
80000054:	19460613          	add	a2,a2,404 # 80000194 <a+0x8>
80000058:	07c40913          	add	s2,s0,124
8000005c:	19058593          	add	a1,a1,400 # 80000190 <a+0x4>
80000060:	00100513          	li	a0,1
80000064:	00058793          	mv	a5,a1
80000068:	00100693          	li	a3,1
8000006c:	00068713          	mv	a4,a3
80000070:	0007a683          	lw	a3,0(a5)
80000074:	00478793          	add	a5,a5,4
80000078:	00e68733          	add	a4,a3,a4
8000007c:	fee7ae23          	sw	a4,-4(a5)
80000080:	fec796e3          	bne	a5,a2,8000006c <main+0x4c>
80000084:	00a7a023          	sw	a0,0(a5)
80000088:	00478613          	add	a2,a5,4
8000008c:	fd261ce3          	bne	a2,s2,80000064 <main+0x44>
80000090:	800004b7          	lui	s1,0x80000
80000094:	11048493          	add	s1,s1,272 # 80000110 <ans>
80000098:	00042503          	lw	a0,0(s0)
8000009c:	0004a783          	lw	a5,0(s1)
800000a0:	00440413          	add	s0,s0,4
800000a4:	00448493          	add	s1,s1,4
800000a8:	40f50533          	sub	a0,a0,a5
800000ac:	00153513          	seqz	a0,a0
800000b0:	f61ff0ef          	jal	80000010 <check>
800000b4:	ff2412e3          	bne	s0,s2,80000098 <main+0x78>
800000b8:	00100513          	li	a0,1
800000bc:	f55ff0ef          	jal	80000010 <check>
800000c0:	00c12083          	lw	ra,12(sp)
800000c4:	00812403          	lw	s0,8(sp)
800000c8:	00412483          	lw	s1,4(sp)
800000cc:	00012903          	lw	s2,0(sp)
800000d0:	00000513          	li	a0,0
800000d4:	01010113          	add	sp,sp,16
800000d8:	00008067          	ret

800000dc <putch>:
800000dc:	00008067          	ret

800000e0 <halt>:
800000e0:	00050513          	mv	a0,a0
800000e4:	00100073          	ebreak
800000e8:	0000006f          	j	800000e8 <halt+0x8>

800000ec <call_main>:
800000ec:	80000537          	lui	a0,0x80000
800000f0:	ff010113          	add	sp,sp,-16
800000f4:	10c50513          	add	a0,a0,268 # 8000010c <_etext>
800000f8:	00112623          	sw	ra,12(sp)
800000fc:	f25ff0ef          	jal	80000020 <main>
80000100:	00050513          	mv	a0,a0
80000104:	00100073          	ebreak
80000108:	0000006f          	j	80000108 <call_main+0x1c>
