
/home/xxa/Desktop/CECS-Lab/software/functest/build/quick-sort-riscv32.elf:     file format elf32-littleriscv


Disassembly of section .text:

80000000 <_start>:
80000000:	00000413          	li	s0,0
80000004:	00009117          	auipc	sp,0x9
80000008:	ffc10113          	add	sp,sp,-4 # 80009000 <_end>
8000000c:	208000ef          	jal	80000214 <call_main>

80000010 <check>:
80000010:	00050463          	beqz	a0,80000018 <check+0x8>
80000014:	00008067          	ret
80000018:	00100513          	li	a0,1
8000001c:	1ec0006f          	j	80000208 <halt>

80000020 <quick_sort>:
80000020:	fe010113          	add	sp,sp,-32
80000024:	00912a23          	sw	s1,20(sp)
80000028:	00112e23          	sw	ra,28(sp)
8000002c:	00261493          	sll	s1,a2,0x2
80000030:	00812c23          	sw	s0,24(sp)
80000034:	01212823          	sw	s2,16(sp)
80000038:	01312623          	sw	s3,12(sp)
8000003c:	009504b3          	add	s1,a0,s1
80000040:	0cc5d063          	bge	a1,a2,80000100 <quick_sort+0xe0>
80000044:	00060993          	mv	s3,a2
80000048:	00050913          	mv	s2,a0
8000004c:	00259793          	sll	a5,a1,0x2
80000050:	00f907b3          	add	a5,s2,a5
80000054:	0007a883          	lw	a7,0(a5)
80000058:	0d35d263          	bge	a1,s3,8000011c <quick_sort+0xfc>
8000005c:	0004a703          	lw	a4,0(s1)
80000060:	00058613          	mv	a2,a1
80000064:	00098693          	mv	a3,s3
80000068:	fff68813          	add	a6,a3,-1
8000006c:	00281813          	sll	a6,a6,0x2
80000070:	01090833          	add	a6,s2,a6
80000074:	0140006f          	j	80000088 <quick_sort+0x68>
80000078:	fff68693          	add	a3,a3,-1
8000007c:	0047a703          	lw	a4,4(a5)
80000080:	0ac68463          	beq	a3,a2,80000128 <quick_sort+0x108>
80000084:	00078813          	mv	a6,a5
80000088:	ffc80793          	add	a5,a6,-4
8000008c:	fee8c6e3          	blt	a7,a4,80000078 <quick_sort+0x58>
80000090:	00261793          	sll	a5,a2,0x2
80000094:	00f907b3          	add	a5,s2,a5
80000098:	00269813          	sll	a6,a3,0x2
8000009c:	00e7a023          	sw	a4,0(a5)
800000a0:	01090833          	add	a6,s2,a6
800000a4:	08d65863          	bge	a2,a3,80000134 <quick_sort+0x114>
800000a8:	00060413          	mv	s0,a2
800000ac:	00c0006f          	j	800000b8 <quick_sort+0x98>
800000b0:	00478793          	add	a5,a5,4
800000b4:	02868463          	beq	a3,s0,800000dc <quick_sort+0xbc>
800000b8:	0007a703          	lw	a4,0(a5)
800000bc:	00040613          	mv	a2,s0
800000c0:	00140413          	add	s0,s0,1
800000c4:	fee8d6e3          	bge	a7,a4,800000b0 <quick_sort+0x90>
800000c8:	00e82023          	sw	a4,0(a6)
800000cc:	f8d64ee3          	blt	a2,a3,80000068 <quick_sort+0x48>
800000d0:	00060413          	mv	s0,a2
800000d4:	fff60613          	add	a2,a2,-1
800000d8:	0140006f          	j	800000ec <quick_sort+0xcc>
800000dc:	00241793          	sll	a5,s0,0x2
800000e0:	00f907b3          	add	a5,s2,a5
800000e4:	0007a703          	lw	a4,0(a5)
800000e8:	00e82023          	sw	a4,0(a6)
800000ec:	0117a023          	sw	a7,0(a5)
800000f0:	00090513          	mv	a0,s2
800000f4:	f2dff0ef          	jal	80000020 <quick_sort>
800000f8:	00140593          	add	a1,s0,1
800000fc:	f535c8e3          	blt	a1,s3,8000004c <quick_sort+0x2c>
80000100:	01c12083          	lw	ra,28(sp)
80000104:	01812403          	lw	s0,24(sp)
80000108:	01412483          	lw	s1,20(sp)
8000010c:	01012903          	lw	s2,16(sp)
80000110:	00c12983          	lw	s3,12(sp)
80000114:	02010113          	add	sp,sp,32
80000118:	00008067          	ret
8000011c:	fff58613          	add	a2,a1,-1
80000120:	00058413          	mv	s0,a1
80000124:	fc9ff06f          	j	800000ec <quick_sort+0xcc>
80000128:	00261793          	sll	a5,a2,0x2
8000012c:	00f907b3          	add	a5,s2,a5
80000130:	00e7a023          	sw	a4,0(a5)
80000134:	00060413          	mv	s0,a2
80000138:	fff60613          	add	a2,a2,-1
8000013c:	fadff06f          	j	800000e8 <quick_sort+0xc8>

80000140 <main>:
80000140:	fe010113          	add	sp,sp,-32
80000144:	01412423          	sw	s4,8(sp)
80000148:	80000a37          	lui	s4,0x80000
8000014c:	01300613          	li	a2,19
80000150:	00000593          	li	a1,0
80000154:	238a0513          	add	a0,s4,568 # 80000238 <a>
80000158:	00812c23          	sw	s0,24(sp)
8000015c:	00912a23          	sw	s1,20(sp)
80000160:	01212823          	sw	s2,16(sp)
80000164:	01312623          	sw	s3,12(sp)
80000168:	00112e23          	sw	ra,28(sp)
8000016c:	238a0493          	add	s1,s4,568
80000170:	eb1ff0ef          	jal	80000020 <quick_sort>
80000174:	238a0913          	add	s2,s4,568
80000178:	00000413          	li	s0,0
8000017c:	01400993          	li	s3,20
80000180:	00092503          	lw	a0,0(s2)
80000184:	00490913          	add	s2,s2,4
80000188:	40850533          	sub	a0,a0,s0
8000018c:	00153513          	seqz	a0,a0
80000190:	00140413          	add	s0,s0,1
80000194:	e7dff0ef          	jal	80000010 <check>
80000198:	ff3414e3          	bne	s0,s3,80000180 <main+0x40>
8000019c:	00100513          	li	a0,1
800001a0:	e71ff0ef          	jal	80000010 <check>
800001a4:	01300613          	li	a2,19
800001a8:	00000593          	li	a1,0
800001ac:	238a0513          	add	a0,s4,568
800001b0:	e71ff0ef          	jal	80000020 <quick_sort>
800001b4:	00000413          	li	s0,0
800001b8:	01400913          	li	s2,20
800001bc:	0004a503          	lw	a0,0(s1)
800001c0:	00448493          	add	s1,s1,4
800001c4:	40850533          	sub	a0,a0,s0
800001c8:	00153513          	seqz	a0,a0
800001cc:	00140413          	add	s0,s0,1
800001d0:	e41ff0ef          	jal	80000010 <check>
800001d4:	ff2414e3          	bne	s0,s2,800001bc <main+0x7c>
800001d8:	00100513          	li	a0,1
800001dc:	e35ff0ef          	jal	80000010 <check>
800001e0:	01c12083          	lw	ra,28(sp)
800001e4:	01812403          	lw	s0,24(sp)
800001e8:	01412483          	lw	s1,20(sp)
800001ec:	01012903          	lw	s2,16(sp)
800001f0:	00c12983          	lw	s3,12(sp)
800001f4:	00812a03          	lw	s4,8(sp)
800001f8:	00000513          	li	a0,0
800001fc:	02010113          	add	sp,sp,32
80000200:	00008067          	ret

80000204 <putch>:
80000204:	00008067          	ret

80000208 <halt>:
80000208:	00050513          	mv	a0,a0
8000020c:	00100073          	ebreak
80000210:	0000006f          	j	80000210 <halt+0x8>

80000214 <call_main>:
80000214:	80000537          	lui	a0,0x80000
80000218:	ff010113          	add	sp,sp,-16
8000021c:	23450513          	add	a0,a0,564 # 80000234 <_etext>
80000220:	00112623          	sw	ra,12(sp)
80000224:	f1dff0ef          	jal	80000140 <main>
80000228:	00050513          	mv	a0,a0
8000022c:	00100073          	ebreak
80000230:	0000006f          	j	80000230 <call_main+0x1c>
