
/home/xxa/Desktop/CECS-Lab/software/functest/build/select-sort-riscv32.elf:     file format elf32-littleriscv


Disassembly of section .text:

80000000 <_start>:
80000000:	00000413          	li	s0,0
80000004:	00009117          	auipc	sp,0x9
80000008:	ffc10113          	add	sp,sp,-4 # 80009000 <_end>
8000000c:	134000ef          	jal	80000140 <call_main>

80000010 <check>:
80000010:	00050463          	beqz	a0,80000018 <check+0x8>
80000014:	00008067          	ret
80000018:	00100513          	li	a0,1
8000001c:	1180006f          	j	80000134 <halt>

80000020 <select_sort>:
80000020:	80000837          	lui	a6,0x80000
80000024:	80000e37          	lui	t3,0x80000
80000028:	16880813          	add	a6,a6,360 # 80000168 <a+0x4>
8000002c:	00000893          	li	a7,0
80000030:	164e0e13          	add	t3,t3,356 # 80000164 <a>
80000034:	01400513          	li	a0,20
80000038:	01300e93          	li	t4,19
8000003c:	ffc82303          	lw	t1,-4(a6)
80000040:	00088593          	mv	a1,a7
80000044:	00188893          	add	a7,a7,1
80000048:	00080713          	mv	a4,a6
8000004c:	00030613          	mv	a2,t1
80000050:	00088793          	mv	a5,a7
80000054:	00072683          	lw	a3,0(a4)
80000058:	00470713          	add	a4,a4,4
8000005c:	00c6d663          	bge	a3,a2,80000068 <select_sort+0x48>
80000060:	00078593          	mv	a1,a5
80000064:	00068613          	mv	a2,a3
80000068:	00178793          	add	a5,a5,1
8000006c:	fea794e3          	bne	a5,a0,80000054 <select_sort+0x34>
80000070:	00259593          	sll	a1,a1,0x2
80000074:	fec82e23          	sw	a2,-4(a6)
80000078:	00be05b3          	add	a1,t3,a1
8000007c:	0065a023          	sw	t1,0(a1)
80000080:	00480813          	add	a6,a6,4
80000084:	fbd89ce3          	bne	a7,t4,8000003c <select_sort+0x1c>
80000088:	00008067          	ret

8000008c <main>:
8000008c:	fe010113          	add	sp,sp,-32
80000090:	00912a23          	sw	s1,20(sp)
80000094:	800004b7          	lui	s1,0x80000
80000098:	00812c23          	sw	s0,24(sp)
8000009c:	01212823          	sw	s2,16(sp)
800000a0:	01312623          	sw	s3,12(sp)
800000a4:	00112e23          	sw	ra,28(sp)
800000a8:	16448913          	add	s2,s1,356 # 80000164 <a>
800000ac:	f75ff0ef          	jal	80000020 <select_sort>
800000b0:	16448493          	add	s1,s1,356
800000b4:	00000413          	li	s0,0
800000b8:	01400993          	li	s3,20
800000bc:	0004a503          	lw	a0,0(s1)
800000c0:	00448493          	add	s1,s1,4
800000c4:	40850533          	sub	a0,a0,s0
800000c8:	00153513          	seqz	a0,a0
800000cc:	00140413          	add	s0,s0,1
800000d0:	f41ff0ef          	jal	80000010 <check>
800000d4:	ff3414e3          	bne	s0,s3,800000bc <main+0x30>
800000d8:	00100513          	li	a0,1
800000dc:	f35ff0ef          	jal	80000010 <check>
800000e0:	00000413          	li	s0,0
800000e4:	f3dff0ef          	jal	80000020 <select_sort>
800000e8:	01400493          	li	s1,20
800000ec:	00092503          	lw	a0,0(s2)
800000f0:	00490913          	add	s2,s2,4
800000f4:	40850533          	sub	a0,a0,s0
800000f8:	00153513          	seqz	a0,a0
800000fc:	00140413          	add	s0,s0,1
80000100:	f11ff0ef          	jal	80000010 <check>
80000104:	fe9414e3          	bne	s0,s1,800000ec <main+0x60>
80000108:	00100513          	li	a0,1
8000010c:	f05ff0ef          	jal	80000010 <check>
80000110:	01c12083          	lw	ra,28(sp)
80000114:	01812403          	lw	s0,24(sp)
80000118:	01412483          	lw	s1,20(sp)
8000011c:	01012903          	lw	s2,16(sp)
80000120:	00c12983          	lw	s3,12(sp)
80000124:	00000513          	li	a0,0
80000128:	02010113          	add	sp,sp,32
8000012c:	00008067          	ret

80000130 <putch>:
80000130:	00008067          	ret

80000134 <halt>:
80000134:	00050513          	mv	a0,a0
80000138:	00100073          	ebreak
8000013c:	0000006f          	j	8000013c <halt+0x8>

80000140 <call_main>:
80000140:	80000537          	lui	a0,0x80000
80000144:	ff010113          	add	sp,sp,-16
80000148:	16050513          	add	a0,a0,352 # 80000160 <_etext>
8000014c:	00112623          	sw	ra,12(sp)
80000150:	f3dff0ef          	jal	8000008c <main>
80000154:	00050513          	mv	a0,a0
80000158:	00100073          	ebreak
8000015c:	0000006f          	j	8000015c <call_main+0x1c>
