
/home/xxa/Desktop/CECS-Lab/software/functest/build/string-riscv32.elf:     file format elf32-littleriscv


Disassembly of section .text:

80000000 <_start>:
80000000:	00000413          	li	s0,0
80000004:	00009117          	auipc	sp,0x9
80000008:	ffc10113          	add	sp,sp,-4 # 80009000 <_end>
8000000c:	120000ef          	jal	8000012c <call_main>

80000010 <check>:
80000010:	00050463          	beqz	a0,80000018 <check+0x8>
80000014:	00008067          	ret
80000018:	00100513          	li	a0,1
8000001c:	1040006f          	j	80000120 <halt>

80000020 <main>:
80000020:	ff010113          	add	sp,sp,-16
80000024:	00812423          	sw	s0,8(sp)
80000028:	80000437          	lui	s0,0x80000
8000002c:	73440413          	add	s0,s0,1844 # 80000734 <s>
80000030:	00842583          	lw	a1,8(s0)
80000034:	00042503          	lw	a0,0(s0)
80000038:	00112623          	sw	ra,12(sp)
8000003c:	00912223          	sw	s1,4(sp)
80000040:	230000ef          	jal	80000270 <strcmp>
80000044:	00153513          	seqz	a0,a0
80000048:	fc9ff0ef          	jal	80000010 <check>
8000004c:	00442583          	lw	a1,4(s0)
80000050:	00042503          	lw	a0,0(s0)
80000054:	800004b7          	lui	s1,0x80000
80000058:	218000ef          	jal	80000270 <strcmp>
8000005c:	01f55513          	srl	a0,a0,0x1f
80000060:	fb1ff0ef          	jal	80000010 <check>
80000064:	00442583          	lw	a1,4(s0)
80000068:	00042503          	lw	a0,0(s0)
8000006c:	00158593          	add	a1,a1,1
80000070:	00150513          	add	a0,a0,1
80000074:	1fc000ef          	jal	80000270 <strcmp>
80000078:	01f55513          	srl	a0,a0,0x1f
8000007c:	f95ff0ef          	jal	80000010 <check>
80000080:	00442583          	lw	a1,4(s0)
80000084:	00042503          	lw	a0,0(s0)
80000088:	00258593          	add	a1,a1,2
8000008c:	00250513          	add	a0,a0,2
80000090:	1e0000ef          	jal	80000270 <strcmp>
80000094:	01f55513          	srl	a0,a0,0x1f
80000098:	f79ff0ef          	jal	80000010 <check>
8000009c:	00442583          	lw	a1,4(s0)
800000a0:	00042503          	lw	a0,0(s0)
800000a4:	00358593          	add	a1,a1,3
800000a8:	00350513          	add	a0,a0,3
800000ac:	1c4000ef          	jal	80000270 <strcmp>
800000b0:	01f55513          	srl	a0,a0,0x1f
800000b4:	f5dff0ef          	jal	80000010 <check>
800000b8:	800005b7          	lui	a1,0x80000
800000bc:	72c58593          	add	a1,a1,1836 # 8000072c <str1>
800000c0:	74c48513          	add	a0,s1,1868 # 8000074c <str>
800000c4:	0e8000ef          	jal	800001ac <strcpy>
800000c8:	00c42583          	lw	a1,12(s0)
800000cc:	148000ef          	jal	80000214 <strcat>
800000d0:	01042583          	lw	a1,16(s0)
800000d4:	19c000ef          	jal	80000270 <strcmp>
800000d8:	00153513          	seqz	a0,a0
800000dc:	f35ff0ef          	jal	80000010 <check>
800000e0:	00500613          	li	a2,5
800000e4:	02300593          	li	a1,35
800000e8:	74c48513          	add	a0,s1,1868
800000ec:	290000ef          	jal	8000037c <memset>
800000f0:	01442583          	lw	a1,20(s0)
800000f4:	00500613          	li	a2,5
800000f8:	554000ef          	jal	8000064c <memcmp>
800000fc:	00153513          	seqz	a0,a0
80000100:	f11ff0ef          	jal	80000010 <check>
80000104:	00c12083          	lw	ra,12(sp)
80000108:	00812403          	lw	s0,8(sp)
8000010c:	00412483          	lw	s1,4(sp)
80000110:	00000513          	li	a0,0
80000114:	01010113          	add	sp,sp,16
80000118:	00008067          	ret

8000011c <putch>:
8000011c:	00008067          	ret

80000120 <halt>:
80000120:	00050513          	mv	a0,a0
80000124:	00100073          	ebreak
80000128:	0000006f          	j	80000128 <halt+0x8>

8000012c <call_main>:
8000012c:	80000537          	lui	a0,0x80000
80000130:	ff010113          	add	sp,sp,-16
80000134:	72850513          	add	a0,a0,1832 # 80000728 <argv>
80000138:	00112623          	sw	ra,12(sp)
8000013c:	ee5ff0ef          	jal	80000020 <main>
80000140:	00050513          	mv	a0,a0
80000144:	00100073          	ebreak
80000148:	0000006f          	j	80000148 <call_main+0x1c>

8000014c <strlen>:
8000014c:	00054783          	lbu	a5,0(a0)
80000150:	00050713          	mv	a4,a0
80000154:	00000513          	li	a0,0
80000158:	00078c63          	beqz	a5,80000170 <strlen+0x24>
8000015c:	00150513          	add	a0,a0,1
80000160:	00a707b3          	add	a5,a4,a0
80000164:	0007c783          	lbu	a5,0(a5)
80000168:	fe079ae3          	bnez	a5,8000015c <strlen+0x10>
8000016c:	00008067          	ret
80000170:	00008067          	ret

80000174 <strnlen>:
80000174:	00054783          	lbu	a5,0(a0)
80000178:	02078663          	beqz	a5,800001a4 <strnlen+0x30>
8000017c:	02058463          	beqz	a1,800001a4 <strnlen+0x30>
80000180:	00b505b3          	add	a1,a0,a1
80000184:	00050793          	mv	a5,a0
80000188:	0080006f          	j	80000190 <strnlen+0x1c>
8000018c:	00b78863          	beq	a5,a1,8000019c <strnlen+0x28>
80000190:	0017c703          	lbu	a4,1(a5)
80000194:	00178793          	add	a5,a5,1
80000198:	fe071ae3          	bnez	a4,8000018c <strnlen+0x18>
8000019c:	40a78533          	sub	a0,a5,a0
800001a0:	00008067          	ret
800001a4:	00000513          	li	a0,0
800001a8:	00008067          	ret

800001ac <strcpy>:
800001ac:	0005c703          	lbu	a4,0(a1)
800001b0:	02070663          	beqz	a4,800001dc <strcpy+0x30>
800001b4:	00000793          	li	a5,0
800001b8:	00f506b3          	add	a3,a0,a5
800001bc:	00178793          	add	a5,a5,1
800001c0:	00e68023          	sb	a4,0(a3)
800001c4:	00f58733          	add	a4,a1,a5
800001c8:	00074703          	lbu	a4,0(a4)
800001cc:	fe0716e3          	bnez	a4,800001b8 <strcpy+0xc>
800001d0:	00f507b3          	add	a5,a0,a5
800001d4:	00078023          	sb	zero,0(a5)
800001d8:	00008067          	ret
800001dc:	00050793          	mv	a5,a0
800001e0:	00078023          	sb	zero,0(a5)
800001e4:	00008067          	ret

800001e8 <strncpy>:
800001e8:	02060463          	beqz	a2,80000210 <strncpy+0x28>
800001ec:	00050713          	mv	a4,a0
800001f0:	00c58633          	add	a2,a1,a2
800001f4:	0100006f          	j	80000204 <strncpy+0x1c>
800001f8:	00f70023          	sb	a5,0(a4)
800001fc:	00170713          	add	a4,a4,1
80000200:	00c58863          	beq	a1,a2,80000210 <strncpy+0x28>
80000204:	0005c783          	lbu	a5,0(a1)
80000208:	00158593          	add	a1,a1,1
8000020c:	fe0796e3          	bnez	a5,800001f8 <strncpy+0x10>
80000210:	00008067          	ret

80000214 <strcat>:
80000214:	00054783          	lbu	a5,0(a0)
80000218:	04078663          	beqz	a5,80000264 <strcat+0x50>
8000021c:	00000713          	li	a4,0
80000220:	00170713          	add	a4,a4,1
80000224:	00e507b3          	add	a5,a0,a4
80000228:	0007c683          	lbu	a3,0(a5)
8000022c:	fe069ae3          	bnez	a3,80000220 <strcat+0xc>
80000230:	0005c603          	lbu	a2,0(a1)
80000234:	02060463          	beqz	a2,8000025c <strcat+0x48>
80000238:	00070793          	mv	a5,a4
8000023c:	00f50833          	add	a6,a0,a5
80000240:	00178793          	add	a5,a5,1
80000244:	40e786b3          	sub	a3,a5,a4
80000248:	00c80023          	sb	a2,0(a6)
8000024c:	00d586b3          	add	a3,a1,a3
80000250:	0006c603          	lbu	a2,0(a3)
80000254:	fe0614e3          	bnez	a2,8000023c <strcat+0x28>
80000258:	00f507b3          	add	a5,a0,a5
8000025c:	00078023          	sb	zero,0(a5)
80000260:	00008067          	ret
80000264:	00050793          	mv	a5,a0
80000268:	00000713          	li	a4,0
8000026c:	fc5ff06f          	j	80000230 <strcat+0x1c>

80000270 <strcmp>:
80000270:	00054703          	lbu	a4,0(a0)
80000274:	00000793          	li	a5,0
80000278:	00071c63          	bnez	a4,80000290 <strcmp+0x20>
8000027c:	0340006f          	j	800002b0 <strcmp+0x40>
80000280:	02e6e263          	bltu	a3,a4,800002a4 <strcmp+0x34>
80000284:	02d76e63          	bltu	a4,a3,800002c0 <strcmp+0x50>
80000288:	00064703          	lbu	a4,0(a2)
8000028c:	02070063          	beqz	a4,800002ac <strcmp+0x3c>
80000290:	00f586b3          	add	a3,a1,a5
80000294:	0006c683          	lbu	a3,0(a3)
80000298:	00178793          	add	a5,a5,1
8000029c:	00f50633          	add	a2,a0,a5
800002a0:	fe0690e3          	bnez	a3,80000280 <strcmp+0x10>
800002a4:	00100513          	li	a0,1
800002a8:	00008067          	ret
800002ac:	00f585b3          	add	a1,a1,a5
800002b0:	0005c503          	lbu	a0,0(a1)
800002b4:	00a03533          	snez	a0,a0
800002b8:	40a00533          	neg	a0,a0
800002bc:	00008067          	ret
800002c0:	fff00513          	li	a0,-1
800002c4:	00008067          	ret

800002c8 <strncmp>:
800002c8:	04060863          	beqz	a2,80000318 <strncmp+0x50>
800002cc:	00000793          	li	a5,0
800002d0:	01c0006f          	j	800002ec <strncmp+0x24>
800002d4:	0006c683          	lbu	a3,0(a3)
800002d8:	02068263          	beqz	a3,800002fc <strncmp+0x34>
800002dc:	00178793          	add	a5,a5,1
800002e0:	04e6e063          	bltu	a3,a4,80000320 <strncmp+0x58>
800002e4:	04d76263          	bltu	a4,a3,80000328 <strncmp+0x60>
800002e8:	00c78a63          	beq	a5,a2,800002fc <strncmp+0x34>
800002ec:	00f50733          	add	a4,a0,a5
800002f0:	00074703          	lbu	a4,0(a4)
800002f4:	00f586b3          	add	a3,a1,a5
800002f8:	fc071ee3          	bnez	a4,800002d4 <strncmp+0xc>
800002fc:	00f60e63          	beq	a2,a5,80000318 <strncmp+0x50>
80000300:	00f50533          	add	a0,a0,a5
80000304:	00054503          	lbu	a0,0(a0)
80000308:	00153513          	seqz	a0,a0
8000030c:	40a00533          	neg	a0,a0
80000310:	00156513          	or	a0,a0,1
80000314:	00008067          	ret
80000318:	00000513          	li	a0,0
8000031c:	00008067          	ret
80000320:	00100513          	li	a0,1
80000324:	00008067          	ret
80000328:	fff00513          	li	a0,-1
8000032c:	00008067          	ret

80000330 <strchr>:
80000330:	00054783          	lbu	a5,0(a0)
80000334:	00078a63          	beqz	a5,80000348 <strchr+0x18>
80000338:	00b78a63          	beq	a5,a1,8000034c <strchr+0x1c>
8000033c:	00154783          	lbu	a5,1(a0)
80000340:	00150513          	add	a0,a0,1
80000344:	fe079ae3          	bnez	a5,80000338 <strchr+0x8>
80000348:	00000513          	li	a0,0
8000034c:	00008067          	ret

80000350 <strrchr>:
80000350:	00054703          	lbu	a4,0(a0)
80000354:	00050793          	mv	a5,a0
80000358:	00000513          	li	a0,0
8000035c:	00070e63          	beqz	a4,80000378 <strrchr+0x28>
80000360:	00e59463          	bne	a1,a4,80000368 <strrchr+0x18>
80000364:	00078513          	mv	a0,a5
80000368:	0017c703          	lbu	a4,1(a5)
8000036c:	00178793          	add	a5,a5,1
80000370:	fe0718e3          	bnez	a4,80000360 <strrchr+0x10>
80000374:	00008067          	ret
80000378:	00008067          	ret

8000037c <memset>:
8000037c:	0e050663          	beqz	a0,80000468 <memset+0xec>
80000380:	0e060463          	beqz	a2,80000468 <memset+0xec>
80000384:	40a006b3          	neg	a3,a0
80000388:	fff60813          	add	a6,a2,-1
8000038c:	00500893          	li	a7,5
80000390:	0ff5f713          	zext.b	a4,a1
80000394:	0036f793          	and	a5,a3,3
80000398:	0f08fc63          	bgeu	a7,a6,80000490 <memset+0x114>
8000039c:	0c078e63          	beqz	a5,80000478 <memset+0xfc>
800003a0:	00e50023          	sb	a4,0(a0)
800003a4:	0026f693          	and	a3,a3,2
800003a8:	0c068263          	beqz	a3,8000046c <memset+0xf0>
800003ac:	fff50693          	add	a3,a0,-1
800003b0:	00e500a3          	sb	a4,1(a0)
800003b4:	0036f693          	and	a3,a3,3
800003b8:	0c069663          	bnez	a3,80000484 <memset+0x108>
800003bc:	00e50123          	sb	a4,2(a0)
800003c0:	00300e13          	li	t3,3
800003c4:	00300893          	li	a7,3
800003c8:	00871693          	sll	a3,a4,0x8
800003cc:	40f605b3          	sub	a1,a2,a5
800003d0:	01071813          	sll	a6,a4,0x10
800003d4:	00d766b3          	or	a3,a4,a3
800003d8:	0106e6b3          	or	a3,a3,a6
800003dc:	01871313          	sll	t1,a4,0x18
800003e0:	00f507b3          	add	a5,a0,a5
800003e4:	ffc5f813          	and	a6,a1,-4
800003e8:	0066e6b3          	or	a3,a3,t1
800003ec:	00f80833          	add	a6,a6,a5
800003f0:	00d7a023          	sw	a3,0(a5)
800003f4:	00478793          	add	a5,a5,4
800003f8:	ff079ce3          	bne	a5,a6,800003f0 <memset+0x74>
800003fc:	0035f793          	and	a5,a1,3
80000400:	06078463          	beqz	a5,80000468 <memset+0xec>
80000404:	ffc5f793          	and	a5,a1,-4
80000408:	00f888b3          	add	a7,a7,a5
8000040c:	01c787b3          	add	a5,a5,t3
80000410:	011508b3          	add	a7,a0,a7
80000414:	00e88023          	sb	a4,0(a7)
80000418:	00178693          	add	a3,a5,1
8000041c:	04c6f663          	bgeu	a3,a2,80000468 <memset+0xec>
80000420:	00d506b3          	add	a3,a0,a3
80000424:	00e68023          	sb	a4,0(a3)
80000428:	00278693          	add	a3,a5,2
8000042c:	02c6fe63          	bgeu	a3,a2,80000468 <memset+0xec>
80000430:	00d506b3          	add	a3,a0,a3
80000434:	00e68023          	sb	a4,0(a3)
80000438:	00378693          	add	a3,a5,3
8000043c:	02c6f663          	bgeu	a3,a2,80000468 <memset+0xec>
80000440:	00d506b3          	add	a3,a0,a3
80000444:	00e68023          	sb	a4,0(a3)
80000448:	00478693          	add	a3,a5,4
8000044c:	00c6fe63          	bgeu	a3,a2,80000468 <memset+0xec>
80000450:	00d506b3          	add	a3,a0,a3
80000454:	00e68023          	sb	a4,0(a3)
80000458:	00578793          	add	a5,a5,5
8000045c:	00c7f663          	bgeu	a5,a2,80000468 <memset+0xec>
80000460:	00f507b3          	add	a5,a0,a5
80000464:	00e78023          	sb	a4,0(a5)
80000468:	00008067          	ret
8000046c:	00100e13          	li	t3,1
80000470:	00100893          	li	a7,1
80000474:	f55ff06f          	j	800003c8 <memset+0x4c>
80000478:	00000893          	li	a7,0
8000047c:	00000e13          	li	t3,0
80000480:	f49ff06f          	j	800003c8 <memset+0x4c>
80000484:	00200e13          	li	t3,2
80000488:	00200893          	li	a7,2
8000048c:	f3dff06f          	j	800003c8 <memset+0x4c>
80000490:	00000793          	li	a5,0
80000494:	00000893          	li	a7,0
80000498:	f79ff06f          	j	80000410 <memset+0x94>

8000049c <memmove>:
8000049c:	02b56663          	bltu	a0,a1,800004c8 <memmove+0x2c>
800004a0:	fff60793          	add	a5,a2,-1
800004a4:	fff00813          	li	a6,-1
800004a8:	0e060063          	beqz	a2,80000588 <memmove+0xec>
800004ac:	00f58733          	add	a4,a1,a5
800004b0:	00074683          	lbu	a3,0(a4)
800004b4:	00f50733          	add	a4,a0,a5
800004b8:	fff78793          	add	a5,a5,-1
800004bc:	00d70023          	sb	a3,0(a4)
800004c0:	ff0796e3          	bne	a5,a6,800004ac <memmove+0x10>
800004c4:	00008067          	ret
800004c8:	fe060ee3          	beqz	a2,800004c4 <memmove+0x28>
800004cc:	fff60793          	add	a5,a2,-1
800004d0:	00600713          	li	a4,6
800004d4:	08f77a63          	bgeu	a4,a5,80000568 <memmove+0xcc>
800004d8:	00a5e7b3          	or	a5,a1,a0
800004dc:	0037f793          	and	a5,a5,3
800004e0:	08079463          	bnez	a5,80000568 <memmove+0xcc>
800004e4:	00158793          	add	a5,a1,1
800004e8:	40f507b3          	sub	a5,a0,a5
800004ec:	0037b793          	sltiu	a5,a5,3
800004f0:	06079c63          	bnez	a5,80000568 <memmove+0xcc>
800004f4:	ffc67813          	and	a6,a2,-4
800004f8:	00058793          	mv	a5,a1
800004fc:	00050713          	mv	a4,a0
80000500:	00b80833          	add	a6,a6,a1
80000504:	0007a683          	lw	a3,0(a5)
80000508:	00478793          	add	a5,a5,4
8000050c:	00470713          	add	a4,a4,4
80000510:	fed72e23          	sw	a3,-4(a4)
80000514:	ff0798e3          	bne	a5,a6,80000504 <memmove+0x68>
80000518:	00367713          	and	a4,a2,3
8000051c:	ffc67793          	and	a5,a2,-4
80000520:	fa0702e3          	beqz	a4,800004c4 <memmove+0x28>
80000524:	00f58733          	add	a4,a1,a5
80000528:	00074803          	lbu	a6,0(a4)
8000052c:	00f506b3          	add	a3,a0,a5
80000530:	00178713          	add	a4,a5,1
80000534:	01068023          	sb	a6,0(a3)
80000538:	f8c776e3          	bgeu	a4,a2,800004c4 <memmove+0x28>
8000053c:	00e586b3          	add	a3,a1,a4
80000540:	0006c683          	lbu	a3,0(a3)
80000544:	00e50733          	add	a4,a0,a4
80000548:	00278793          	add	a5,a5,2
8000054c:	00d70023          	sb	a3,0(a4)
80000550:	f6c7fae3          	bgeu	a5,a2,800004c4 <memmove+0x28>
80000554:	00f585b3          	add	a1,a1,a5
80000558:	0005c703          	lbu	a4,0(a1)
8000055c:	00f507b3          	add	a5,a0,a5
80000560:	00e78023          	sb	a4,0(a5)
80000564:	00008067          	ret
80000568:	00050793          	mv	a5,a0
8000056c:	00c58633          	add	a2,a1,a2
80000570:	0005c703          	lbu	a4,0(a1)
80000574:	00158593          	add	a1,a1,1
80000578:	00178793          	add	a5,a5,1
8000057c:	fee78fa3          	sb	a4,-1(a5)
80000580:	feb618e3          	bne	a2,a1,80000570 <memmove+0xd4>
80000584:	00008067          	ret
80000588:	00008067          	ret

8000058c <memcpy>:
8000058c:	0a060e63          	beqz	a2,80000648 <memcpy+0xbc>
80000590:	fff60793          	add	a5,a2,-1
80000594:	00600713          	li	a4,6
80000598:	08f77a63          	bgeu	a4,a5,8000062c <memcpy+0xa0>
8000059c:	00a5e7b3          	or	a5,a1,a0
800005a0:	0037f793          	and	a5,a5,3
800005a4:	08079463          	bnez	a5,8000062c <memcpy+0xa0>
800005a8:	00158793          	add	a5,a1,1
800005ac:	40f507b3          	sub	a5,a0,a5
800005b0:	0037b793          	sltiu	a5,a5,3
800005b4:	06079c63          	bnez	a5,8000062c <memcpy+0xa0>
800005b8:	ffc67813          	and	a6,a2,-4
800005bc:	00058793          	mv	a5,a1
800005c0:	00050713          	mv	a4,a0
800005c4:	00b80833          	add	a6,a6,a1
800005c8:	0007a683          	lw	a3,0(a5)
800005cc:	00478793          	add	a5,a5,4
800005d0:	00470713          	add	a4,a4,4
800005d4:	fed72e23          	sw	a3,-4(a4)
800005d8:	ff0798e3          	bne	a5,a6,800005c8 <memcpy+0x3c>
800005dc:	00367713          	and	a4,a2,3
800005e0:	ffc67793          	and	a5,a2,-4
800005e4:	06070263          	beqz	a4,80000648 <memcpy+0xbc>
800005e8:	00f58733          	add	a4,a1,a5
800005ec:	00074803          	lbu	a6,0(a4)
800005f0:	00f506b3          	add	a3,a0,a5
800005f4:	00178713          	add	a4,a5,1
800005f8:	01068023          	sb	a6,0(a3)
800005fc:	04c77663          	bgeu	a4,a2,80000648 <memcpy+0xbc>
80000600:	00e586b3          	add	a3,a1,a4
80000604:	0006c683          	lbu	a3,0(a3)
80000608:	00e50733          	add	a4,a0,a4
8000060c:	00278793          	add	a5,a5,2
80000610:	00d70023          	sb	a3,0(a4)
80000614:	02c7fa63          	bgeu	a5,a2,80000648 <memcpy+0xbc>
80000618:	00f585b3          	add	a1,a1,a5
8000061c:	0005c703          	lbu	a4,0(a1)
80000620:	00f507b3          	add	a5,a0,a5
80000624:	00e78023          	sb	a4,0(a5)
80000628:	00008067          	ret
8000062c:	00050793          	mv	a5,a0
80000630:	00c58633          	add	a2,a1,a2
80000634:	0005c703          	lbu	a4,0(a1)
80000638:	00158593          	add	a1,a1,1
8000063c:	00178793          	add	a5,a5,1
80000640:	fee78fa3          	sb	a4,-1(a5)
80000644:	feb618e3          	bne	a2,a1,80000634 <memcpy+0xa8>
80000648:	00008067          	ret

8000064c <memcmp>:
8000064c:	04060863          	beqz	a2,8000069c <memcmp+0x50>
80000650:	00000793          	li	a5,0
80000654:	01c0006f          	j	80000670 <memcmp+0x24>
80000658:	0006c683          	lbu	a3,0(a3)
8000065c:	02068263          	beqz	a3,80000680 <memcmp+0x34>
80000660:	00178793          	add	a5,a5,1
80000664:	04e6e063          	bltu	a3,a4,800006a4 <memcmp+0x58>
80000668:	04d76263          	bltu	a4,a3,800006ac <memcmp+0x60>
8000066c:	00c78a63          	beq	a5,a2,80000680 <memcmp+0x34>
80000670:	00f50733          	add	a4,a0,a5
80000674:	00074703          	lbu	a4,0(a4)
80000678:	00f586b3          	add	a3,a1,a5
8000067c:	fc071ee3          	bnez	a4,80000658 <memcmp+0xc>
80000680:	00f60e63          	beq	a2,a5,8000069c <memcmp+0x50>
80000684:	00f50533          	add	a0,a0,a5
80000688:	00054503          	lbu	a0,0(a0)
8000068c:	00153513          	seqz	a0,a0
80000690:	40a00533          	neg	a0,a0
80000694:	00156513          	or	a0,a0,1
80000698:	00008067          	ret
8000069c:	00000513          	li	a0,0
800006a0:	00008067          	ret
800006a4:	00100513          	li	a0,1
800006a8:	00008067          	ret
800006ac:	fff00513          	li	a0,-1
800006b0:	00008067          	ret
